ARM GAS  /var/folders/g1/j12m_ky910s3_sv7d4yrsdn00000gn/T//ccpEAUBC.s 			page 1


   1              		.cpu cortex-m7
   2              		.arch armv7e-m
   3              		.fpu fpv5-d16
   4              		.eabi_attribute 28, 1
   5              		.eabi_attribute 20, 1
   6              		.eabi_attribute 21, 1
   7              		.eabi_attribute 23, 3
   8              		.eabi_attribute 24, 1
   9              		.eabi_attribute 25, 1
  10              		.eabi_attribute 26, 1
  11              		.eabi_attribute 30, 1
  12              		.eabi_attribute 34, 1
  13              		.eabi_attribute 18, 4
  14              		.file	"gpio.c"
  15              		.text
  16              	.Ltext0:
  17              		.cfi_sections	.debug_frame
  18              		.file 1 "Core/Src/gpio.c"
  19              		.section	.text.MX_GPIO_Init,"ax",%progbits
  20              		.align	1
  21              		.global	MX_GPIO_Init
  22              		.syntax unified
  23              		.thumb
  24              		.thumb_func
  26              	MX_GPIO_Init:
  27              	.LFB144:
   1:Core/Src/gpio.c **** /* USER CODE BEGIN Header */
   2:Core/Src/gpio.c **** /**
   3:Core/Src/gpio.c ****   ******************************************************************************
   4:Core/Src/gpio.c ****   * @file    gpio.c
   5:Core/Src/gpio.c ****   * @brief   This file provides code for the configuration
   6:Core/Src/gpio.c ****   *          of all used GPIO pins.
   7:Core/Src/gpio.c ****   ******************************************************************************
   8:Core/Src/gpio.c ****   * @attention
   9:Core/Src/gpio.c ****   *
  10:Core/Src/gpio.c ****   * Copyright (c) 2024 STMicroelectronics.
  11:Core/Src/gpio.c ****   * All rights reserved.
  12:Core/Src/gpio.c ****   *
  13:Core/Src/gpio.c ****   * This software is licensed under terms that can be found in the LICENSE file
  14:Core/Src/gpio.c ****   * in the root directory of this software component.
  15:Core/Src/gpio.c ****   * If no LICENSE file comes with this software, it is provided AS-IS.
  16:Core/Src/gpio.c ****   *
  17:Core/Src/gpio.c ****   ******************************************************************************
  18:Core/Src/gpio.c ****   */
  19:Core/Src/gpio.c **** /* USER CODE END Header */
  20:Core/Src/gpio.c **** 
  21:Core/Src/gpio.c **** /* Includes ------------------------------------------------------------------*/
  22:Core/Src/gpio.c **** #include "gpio.h"
  23:Core/Src/gpio.c **** 
  24:Core/Src/gpio.c **** /* USER CODE BEGIN 0 */
  25:Core/Src/gpio.c **** 
  26:Core/Src/gpio.c **** /* USER CODE END 0 */
  27:Core/Src/gpio.c **** 
  28:Core/Src/gpio.c **** /*----------------------------------------------------------------------------*/
  29:Core/Src/gpio.c **** /* Configure GPIO                                                             */
  30:Core/Src/gpio.c **** /*----------------------------------------------------------------------------*/
  31:Core/Src/gpio.c **** /* USER CODE BEGIN 1 */
ARM GAS  /var/folders/g1/j12m_ky910s3_sv7d4yrsdn00000gn/T//ccpEAUBC.s 			page 2


  32:Core/Src/gpio.c **** 
  33:Core/Src/gpio.c **** /* USER CODE END 1 */
  34:Core/Src/gpio.c **** 
  35:Core/Src/gpio.c **** /** Configure pins
  36:Core/Src/gpio.c ****      PC14-OSC32_IN (OSC32_IN)   ------> RCC_OSC32_IN
  37:Core/Src/gpio.c ****      PC15-OSC32_OUT (OSC32_OUT)   ------> RCC_OSC32_OUT
  38:Core/Src/gpio.c ****      PH0-OSC_IN (PH0)   ------> RCC_OSC_IN
  39:Core/Src/gpio.c ****      PH1-OSC_OUT (PH1)   ------> RCC_OSC_OUT
  40:Core/Src/gpio.c ****      PA8   ------> RCC_MCO_1
  41:Core/Src/gpio.c ****      PA13 (JTMS/SWDIO)   ------> DEBUG_JTMS-SWDIO
  42:Core/Src/gpio.c ****      PA14 (JTCK/SWCLK)   ------> DEBUG_JTCK-SWCLK
  43:Core/Src/gpio.c **** */
  44:Core/Src/gpio.c **** void MX_GPIO_Init(void)
  45:Core/Src/gpio.c **** {
  28              		.loc 1 45 1 view -0
  29              		.cfi_startproc
  30              		@ args = 0, pretend = 0, frame = 48
  31              		@ frame_needed = 0, uses_anonymous_args = 0
  32 0000 2DE9F047 		push	{r4, r5, r6, r7, r8, r9, r10, lr}
  33              	.LCFI0:
  34              		.cfi_def_cfa_offset 32
  35              		.cfi_offset 4, -32
  36              		.cfi_offset 5, -28
  37              		.cfi_offset 6, -24
  38              		.cfi_offset 7, -20
  39              		.cfi_offset 8, -16
  40              		.cfi_offset 9, -12
  41              		.cfi_offset 10, -8
  42              		.cfi_offset 14, -4
  43 0004 8CB0     		sub	sp, sp, #48
  44              	.LCFI1:
  45              		.cfi_def_cfa_offset 80
  46:Core/Src/gpio.c **** 
  47:Core/Src/gpio.c ****   GPIO_InitTypeDef GPIO_InitStruct = {0};
  46              		.loc 1 47 3 view .LVU1
  47              		.loc 1 47 20 is_stmt 0 view .LVU2
  48 0006 07AD     		add	r5, sp, #28
  49 0008 0024     		movs	r4, #0
  50 000a 0794     		str	r4, [sp, #28]
  51 000c 0894     		str	r4, [sp, #32]
  52 000e 0994     		str	r4, [sp, #36]
  53 0010 0A94     		str	r4, [sp, #40]
  54 0012 0B94     		str	r4, [sp, #44]
  48:Core/Src/gpio.c **** 
  49:Core/Src/gpio.c ****   /* GPIO Ports Clock Enable */
  50:Core/Src/gpio.c ****   __HAL_RCC_GPIOE_CLK_ENABLE();
  55              		.loc 1 50 3 is_stmt 1 view .LVU3
  56              	.LBB2:
  57              		.loc 1 50 3 view .LVU4
  58              		.loc 1 50 3 view .LVU5
  59 0014 634B     		ldr	r3, .L3
  60 0016 D3F8E020 		ldr	r2, [r3, #224]
  61 001a 42F01002 		orr	r2, r2, #16
  62 001e C3F8E020 		str	r2, [r3, #224]
  63              		.loc 1 50 3 view .LVU6
  64 0022 D3F8E020 		ldr	r2, [r3, #224]
  65 0026 02F01002 		and	r2, r2, #16
ARM GAS  /var/folders/g1/j12m_ky910s3_sv7d4yrsdn00000gn/T//ccpEAUBC.s 			page 3


  66 002a 0192     		str	r2, [sp, #4]
  67              		.loc 1 50 3 view .LVU7
  68 002c 019A     		ldr	r2, [sp, #4]
  69              	.LBE2:
  70              		.loc 1 50 3 view .LVU8
  51:Core/Src/gpio.c ****   __HAL_RCC_GPIOC_CLK_ENABLE();
  71              		.loc 1 51 3 view .LVU9
  72              	.LBB3:
  73              		.loc 1 51 3 view .LVU10
  74              		.loc 1 51 3 view .LVU11
  75 002e D3F8E020 		ldr	r2, [r3, #224]
  76 0032 42F00402 		orr	r2, r2, #4
  77 0036 C3F8E020 		str	r2, [r3, #224]
  78              		.loc 1 51 3 view .LVU12
  79 003a D3F8E020 		ldr	r2, [r3, #224]
  80 003e 02F00402 		and	r2, r2, #4
  81 0042 0292     		str	r2, [sp, #8]
  82              		.loc 1 51 3 view .LVU13
  83 0044 029A     		ldr	r2, [sp, #8]
  84              	.LBE3:
  85              		.loc 1 51 3 view .LVU14
  52:Core/Src/gpio.c ****   __HAL_RCC_GPIOH_CLK_ENABLE();
  86              		.loc 1 52 3 view .LVU15
  87              	.LBB4:
  88              		.loc 1 52 3 view .LVU16
  89              		.loc 1 52 3 view .LVU17
  90 0046 D3F8E020 		ldr	r2, [r3, #224]
  91 004a 42F08002 		orr	r2, r2, #128
  92 004e C3F8E020 		str	r2, [r3, #224]
  93              		.loc 1 52 3 view .LVU18
  94 0052 D3F8E020 		ldr	r2, [r3, #224]
  95 0056 02F08002 		and	r2, r2, #128
  96 005a 0392     		str	r2, [sp, #12]
  97              		.loc 1 52 3 view .LVU19
  98 005c 039A     		ldr	r2, [sp, #12]
  99              	.LBE4:
 100              		.loc 1 52 3 view .LVU20
  53:Core/Src/gpio.c ****   __HAL_RCC_GPIOA_CLK_ENABLE();
 101              		.loc 1 53 3 view .LVU21
 102              	.LBB5:
 103              		.loc 1 53 3 view .LVU22
 104              		.loc 1 53 3 view .LVU23
 105 005e D3F8E020 		ldr	r2, [r3, #224]
 106 0062 42F00102 		orr	r2, r2, #1
 107 0066 C3F8E020 		str	r2, [r3, #224]
 108              		.loc 1 53 3 view .LVU24
 109 006a D3F8E020 		ldr	r2, [r3, #224]
 110 006e 02F00102 		and	r2, r2, #1
 111 0072 0492     		str	r2, [sp, #16]
 112              		.loc 1 53 3 view .LVU25
 113 0074 049A     		ldr	r2, [sp, #16]
 114              	.LBE5:
 115              		.loc 1 53 3 view .LVU26
  54:Core/Src/gpio.c ****   __HAL_RCC_GPIOB_CLK_ENABLE();
 116              		.loc 1 54 3 view .LVU27
 117              	.LBB6:
 118              		.loc 1 54 3 view .LVU28
ARM GAS  /var/folders/g1/j12m_ky910s3_sv7d4yrsdn00000gn/T//ccpEAUBC.s 			page 4


 119              		.loc 1 54 3 view .LVU29
 120 0076 D3F8E020 		ldr	r2, [r3, #224]
 121 007a 42F00202 		orr	r2, r2, #2
 122 007e C3F8E020 		str	r2, [r3, #224]
 123              		.loc 1 54 3 view .LVU30
 124 0082 D3F8E020 		ldr	r2, [r3, #224]
 125 0086 02F00202 		and	r2, r2, #2
 126 008a 0592     		str	r2, [sp, #20]
 127              		.loc 1 54 3 view .LVU31
 128 008c 059A     		ldr	r2, [sp, #20]
 129              	.LBE6:
 130              		.loc 1 54 3 view .LVU32
  55:Core/Src/gpio.c ****   __HAL_RCC_GPIOD_CLK_ENABLE();
 131              		.loc 1 55 3 view .LVU33
 132              	.LBB7:
 133              		.loc 1 55 3 view .LVU34
 134              		.loc 1 55 3 view .LVU35
 135 008e D3F8E020 		ldr	r2, [r3, #224]
 136 0092 42F00802 		orr	r2, r2, #8
 137 0096 C3F8E020 		str	r2, [r3, #224]
 138              		.loc 1 55 3 view .LVU36
 139 009a D3F8E030 		ldr	r3, [r3, #224]
 140 009e 03F00803 		and	r3, r3, #8
 141 00a2 0693     		str	r3, [sp, #24]
 142              		.loc 1 55 3 view .LVU37
 143 00a4 069B     		ldr	r3, [sp, #24]
 144              	.LBE7:
 145              		.loc 1 55 3 view .LVU38
  56:Core/Src/gpio.c **** 
  57:Core/Src/gpio.c ****   /*Configure GPIO pin Output Level */
  58:Core/Src/gpio.c ****   HAL_GPIO_WritePin(GPIOC, LED_R_Pin|LED_G_Pin|LED_B_Pin, GPIO_PIN_SET);
 146              		.loc 1 58 3 view .LVU39
 147 00a6 DFF80481 		ldr	r8, .L3+8
 148 00aa 0122     		movs	r2, #1
 149 00ac 0721     		movs	r1, #7
 150 00ae 4046     		mov	r0, r8
 151 00b0 FFF7FEFF 		bl	HAL_GPIO_WritePin
 152              	.LVL0:
  59:Core/Src/gpio.c **** 
  60:Core/Src/gpio.c ****   /*Configure GPIO pin Output Level */
  61:Core/Src/gpio.c ****   HAL_GPIO_WritePin(GPIOD, LCD_PWR_Pin|LCD_RST_Pin, GPIO_PIN_RESET);
 153              		.loc 1 61 3 view .LVU40
 154 00b4 DFF8F8A0 		ldr	r10, .L3+12
 155 00b8 2246     		mov	r2, r4
 156 00ba 1821     		movs	r1, #24
 157 00bc 5046     		mov	r0, r10
 158 00be FFF7FEFF 		bl	HAL_GPIO_WritePin
 159              	.LVL1:
  62:Core/Src/gpio.c **** 
  63:Core/Src/gpio.c ****   /*Configure GPIO pin Output Level */
  64:Core/Src/gpio.c ****   HAL_GPIO_WritePin(LCD_DC_GPIO_Port, LCD_DC_Pin, GPIO_PIN_RESET);
 160              		.loc 1 64 3 view .LVU41
 161 00c2 DFF8F090 		ldr	r9, .L3+16
 162 00c6 2246     		mov	r2, r4
 163 00c8 1021     		movs	r1, #16
 164 00ca 4846     		mov	r0, r9
 165 00cc FFF7FEFF 		bl	HAL_GPIO_WritePin
ARM GAS  /var/folders/g1/j12m_ky910s3_sv7d4yrsdn00000gn/T//ccpEAUBC.s 			page 5


 166              	.LVL2:
  65:Core/Src/gpio.c **** 
  66:Core/Src/gpio.c ****   /*Configure GPIO pins : PE2 PE3 PE7 PE8
  67:Core/Src/gpio.c ****                            PE9 PE10 PE11 PE12
  68:Core/Src/gpio.c ****                            PE13 PE14 PE15 */
  69:Core/Src/gpio.c ****   GPIO_InitStruct.Pin = GPIO_PIN_2|GPIO_PIN_3|GPIO_PIN_7|GPIO_PIN_8
 167              		.loc 1 69 3 view .LVU42
 168              		.loc 1 69 23 is_stmt 0 view .LVU43
 169 00d0 4FF68C73 		movw	r3, #65420
 170 00d4 0793     		str	r3, [sp, #28]
  70:Core/Src/gpio.c ****                           |GPIO_PIN_9|GPIO_PIN_10|GPIO_PIN_11|GPIO_PIN_12
  71:Core/Src/gpio.c ****                           |GPIO_PIN_13|GPIO_PIN_14|GPIO_PIN_15;
  72:Core/Src/gpio.c ****   GPIO_InitStruct.Mode = GPIO_MODE_ANALOG;
 171              		.loc 1 72 3 is_stmt 1 view .LVU44
 172              		.loc 1 72 24 is_stmt 0 view .LVU45
 173 00d6 0327     		movs	r7, #3
 174 00d8 0897     		str	r7, [sp, #32]
  73:Core/Src/gpio.c ****   GPIO_InitStruct.Pull = GPIO_NOPULL;
 175              		.loc 1 73 3 is_stmt 1 view .LVU46
 176              		.loc 1 73 24 is_stmt 0 view .LVU47
 177 00da 0994     		str	r4, [sp, #36]
  74:Core/Src/gpio.c ****   HAL_GPIO_Init(GPIOE, &GPIO_InitStruct);
 178              		.loc 1 74 3 is_stmt 1 view .LVU48
 179 00dc 2946     		mov	r1, r5
 180 00de 3248     		ldr	r0, .L3+4
 181 00e0 FFF7FEFF 		bl	HAL_GPIO_Init
 182              	.LVL3:
  75:Core/Src/gpio.c **** 
  76:Core/Src/gpio.c ****   /*Configure GPIO pin : KEY_Pin */
  77:Core/Src/gpio.c ****   GPIO_InitStruct.Pin = KEY_Pin;
 183              		.loc 1 77 3 view .LVU49
 184              		.loc 1 77 23 is_stmt 0 view .LVU50
 185 00e4 4FF40053 		mov	r3, #8192
 186 00e8 0793     		str	r3, [sp, #28]
  78:Core/Src/gpio.c ****   GPIO_InitStruct.Mode = GPIO_MODE_INPUT;
 187              		.loc 1 78 3 is_stmt 1 view .LVU51
 188              		.loc 1 78 24 is_stmt 0 view .LVU52
 189 00ea 0894     		str	r4, [sp, #32]
  79:Core/Src/gpio.c ****   GPIO_InitStruct.Pull = GPIO_PULLUP;
 190              		.loc 1 79 3 is_stmt 1 view .LVU53
 191              		.loc 1 79 24 is_stmt 0 view .LVU54
 192 00ec 0126     		movs	r6, #1
 193 00ee 0996     		str	r6, [sp, #36]
  80:Core/Src/gpio.c ****   HAL_GPIO_Init(KEY_GPIO_Port, &GPIO_InitStruct);
 194              		.loc 1 80 3 is_stmt 1 view .LVU55
 195 00f0 2946     		mov	r1, r5
 196 00f2 4046     		mov	r0, r8
 197 00f4 FFF7FEFF 		bl	HAL_GPIO_Init
 198              	.LVL4:
  81:Core/Src/gpio.c **** 
  82:Core/Src/gpio.c ****   /*Configure GPIO pins : LED_R_Pin LED_G_Pin LED_B_Pin */
  83:Core/Src/gpio.c ****   GPIO_InitStruct.Pin = LED_R_Pin|LED_G_Pin|LED_B_Pin;
 199              		.loc 1 83 3 view .LVU56
 200              		.loc 1 83 23 is_stmt 0 view .LVU57
 201 00f8 0723     		movs	r3, #7
 202 00fa 0793     		str	r3, [sp, #28]
  84:Core/Src/gpio.c ****   GPIO_InitStruct.Mode = GPIO_MODE_OUTPUT_PP;
ARM GAS  /var/folders/g1/j12m_ky910s3_sv7d4yrsdn00000gn/T//ccpEAUBC.s 			page 6


 203              		.loc 1 84 3 is_stmt 1 view .LVU58
 204              		.loc 1 84 24 is_stmt 0 view .LVU59
 205 00fc 0896     		str	r6, [sp, #32]
  85:Core/Src/gpio.c ****   GPIO_InitStruct.Pull = GPIO_PULLUP;
 206              		.loc 1 85 3 is_stmt 1 view .LVU60
 207              		.loc 1 85 24 is_stmt 0 view .LVU61
 208 00fe 0996     		str	r6, [sp, #36]
  86:Core/Src/gpio.c ****   GPIO_InitStruct.Speed = GPIO_SPEED_FREQ_LOW;
 209              		.loc 1 86 3 is_stmt 1 view .LVU62
 210              		.loc 1 86 25 is_stmt 0 view .LVU63
 211 0100 0A94     		str	r4, [sp, #40]
  87:Core/Src/gpio.c ****   HAL_GPIO_Init(GPIOC, &GPIO_InitStruct);
 212              		.loc 1 87 3 is_stmt 1 view .LVU64
 213 0102 2946     		mov	r1, r5
 214 0104 4046     		mov	r0, r8
 215 0106 FFF7FEFF 		bl	HAL_GPIO_Init
 216              	.LVL5:
  88:Core/Src/gpio.c **** 
  89:Core/Src/gpio.c ****   /*Configure GPIO pins : PC3 PC4 PC5 PC8
  90:Core/Src/gpio.c ****                            PC9 PC10 PC11 PC12 */
  91:Core/Src/gpio.c ****   GPIO_InitStruct.Pin = GPIO_PIN_3|GPIO_PIN_4|GPIO_PIN_5|GPIO_PIN_8
 217              		.loc 1 91 3 view .LVU65
 218              		.loc 1 91 23 is_stmt 0 view .LVU66
 219 010a 41F63873 		movw	r3, #7992
 220 010e 0793     		str	r3, [sp, #28]
  92:Core/Src/gpio.c ****                           |GPIO_PIN_9|GPIO_PIN_10|GPIO_PIN_11|GPIO_PIN_12;
  93:Core/Src/gpio.c ****   GPIO_InitStruct.Mode = GPIO_MODE_ANALOG;
 221              		.loc 1 93 3 is_stmt 1 view .LVU67
 222              		.loc 1 93 24 is_stmt 0 view .LVU68
 223 0110 0897     		str	r7, [sp, #32]
  94:Core/Src/gpio.c ****   GPIO_InitStruct.Pull = GPIO_NOPULL;
 224              		.loc 1 94 3 is_stmt 1 view .LVU69
 225              		.loc 1 94 24 is_stmt 0 view .LVU70
 226 0112 0994     		str	r4, [sp, #36]
  95:Core/Src/gpio.c ****   HAL_GPIO_Init(GPIOC, &GPIO_InitStruct);
 227              		.loc 1 95 3 is_stmt 1 view .LVU71
 228 0114 2946     		mov	r1, r5
 229 0116 4046     		mov	r0, r8
 230 0118 FFF7FEFF 		bl	HAL_GPIO_Init
 231              	.LVL6:
  96:Core/Src/gpio.c **** 
  97:Core/Src/gpio.c ****   /*Configure GPIO pins : PA0 PA1 PA2 PA3
  98:Core/Src/gpio.c ****                            PA5 PA7 PA11 PA12
  99:Core/Src/gpio.c ****                            PA15 */
 100:Core/Src/gpio.c ****   GPIO_InitStruct.Pin = GPIO_PIN_0|GPIO_PIN_1|GPIO_PIN_2|GPIO_PIN_3
 232              		.loc 1 100 3 view .LVU72
 233              		.loc 1 100 23 is_stmt 0 view .LVU73
 234 011c 49F6AF03 		movw	r3, #39087
 235 0120 0793     		str	r3, [sp, #28]
 101:Core/Src/gpio.c ****                           |GPIO_PIN_5|GPIO_PIN_7|GPIO_PIN_11|GPIO_PIN_12
 102:Core/Src/gpio.c ****                           |GPIO_PIN_15;
 103:Core/Src/gpio.c ****   GPIO_InitStruct.Mode = GPIO_MODE_ANALOG;
 236              		.loc 1 103 3 is_stmt 1 view .LVU74
 237              		.loc 1 103 24 is_stmt 0 view .LVU75
 238 0122 0897     		str	r7, [sp, #32]
 104:Core/Src/gpio.c ****   GPIO_InitStruct.Pull = GPIO_NOPULL;
 239              		.loc 1 104 3 is_stmt 1 view .LVU76
ARM GAS  /var/folders/g1/j12m_ky910s3_sv7d4yrsdn00000gn/T//ccpEAUBC.s 			page 7


 240              		.loc 1 104 24 is_stmt 0 view .LVU77
 241 0124 0994     		str	r4, [sp, #36]
 105:Core/Src/gpio.c ****   HAL_GPIO_Init(GPIOA, &GPIO_InitStruct);
 242              		.loc 1 105 3 is_stmt 1 view .LVU78
 243 0126 A8F50068 		sub	r8, r8, #2048
 244 012a 2946     		mov	r1, r5
 245 012c 4046     		mov	r0, r8
 246 012e FFF7FEFF 		bl	HAL_GPIO_Init
 247              	.LVL7:
 106:Core/Src/gpio.c **** 
 107:Core/Src/gpio.c ****   /*Configure GPIO pins : PB0 PB1 PB2 PB10
 108:Core/Src/gpio.c ****                            PB11 PB12 PB13 PB14
 109:Core/Src/gpio.c ****                            PB15 */
 110:Core/Src/gpio.c ****   GPIO_InitStruct.Pin = GPIO_PIN_0|GPIO_PIN_1|GPIO_PIN_2|GPIO_PIN_10
 248              		.loc 1 110 3 view .LVU79
 249              		.loc 1 110 23 is_stmt 0 view .LVU80
 250 0132 4FF60743 		movw	r3, #64519
 251 0136 0793     		str	r3, [sp, #28]
 111:Core/Src/gpio.c ****                           |GPIO_PIN_11|GPIO_PIN_12|GPIO_PIN_13|GPIO_PIN_14
 112:Core/Src/gpio.c ****                           |GPIO_PIN_15;
 113:Core/Src/gpio.c ****   GPIO_InitStruct.Mode = GPIO_MODE_ANALOG;
 252              		.loc 1 113 3 is_stmt 1 view .LVU81
 253              		.loc 1 113 24 is_stmt 0 view .LVU82
 254 0138 0897     		str	r7, [sp, #32]
 114:Core/Src/gpio.c ****   GPIO_InitStruct.Pull = GPIO_NOPULL;
 255              		.loc 1 114 3 is_stmt 1 view .LVU83
 256              		.loc 1 114 24 is_stmt 0 view .LVU84
 257 013a 0994     		str	r4, [sp, #36]
 115:Core/Src/gpio.c ****   HAL_GPIO_Init(GPIOB, &GPIO_InitStruct);
 258              		.loc 1 115 3 is_stmt 1 view .LVU85
 259 013c 2946     		mov	r1, r5
 260 013e 4846     		mov	r0, r9
 261 0140 FFF7FEFF 		bl	HAL_GPIO_Init
 262              	.LVL8:
 116:Core/Src/gpio.c **** 
 117:Core/Src/gpio.c ****   /*Configure GPIO pins : PD8 PD9 PD10 PD11
 118:Core/Src/gpio.c ****                            PD12 PD13 PD14 PD15
 119:Core/Src/gpio.c ****                            PD0 PD1 PD2 PD5
 120:Core/Src/gpio.c ****                            PD6 PD7 */
 121:Core/Src/gpio.c ****   GPIO_InitStruct.Pin = GPIO_PIN_8|GPIO_PIN_9|GPIO_PIN_10|GPIO_PIN_11
 263              		.loc 1 121 3 view .LVU86
 264              		.loc 1 121 23 is_stmt 0 view .LVU87
 265 0144 4FF6E773 		movw	r3, #65511
 266 0148 0793     		str	r3, [sp, #28]
 122:Core/Src/gpio.c ****                           |GPIO_PIN_12|GPIO_PIN_13|GPIO_PIN_14|GPIO_PIN_15
 123:Core/Src/gpio.c ****                           |GPIO_PIN_0|GPIO_PIN_1|GPIO_PIN_2|GPIO_PIN_5
 124:Core/Src/gpio.c ****                           |GPIO_PIN_6|GPIO_PIN_7;
 125:Core/Src/gpio.c ****   GPIO_InitStruct.Mode = GPIO_MODE_ANALOG;
 267              		.loc 1 125 3 is_stmt 1 view .LVU88
 268              		.loc 1 125 24 is_stmt 0 view .LVU89
 269 014a 0897     		str	r7, [sp, #32]
 126:Core/Src/gpio.c ****   GPIO_InitStruct.Pull = GPIO_NOPULL;
 270              		.loc 1 126 3 is_stmt 1 view .LVU90
 271              		.loc 1 126 24 is_stmt 0 view .LVU91
 272 014c 0994     		str	r4, [sp, #36]
 127:Core/Src/gpio.c ****   HAL_GPIO_Init(GPIOD, &GPIO_InitStruct);
 273              		.loc 1 127 3 is_stmt 1 view .LVU92
ARM GAS  /var/folders/g1/j12m_ky910s3_sv7d4yrsdn00000gn/T//ccpEAUBC.s 			page 8


 274 014e 2946     		mov	r1, r5
 275 0150 5046     		mov	r0, r10
 276 0152 FFF7FEFF 		bl	HAL_GPIO_Init
 277              	.LVL9:
 128:Core/Src/gpio.c **** 
 129:Core/Src/gpio.c ****   /*Configure GPIO pin : PA8 */
 130:Core/Src/gpio.c ****   GPIO_InitStruct.Pin = GPIO_PIN_8;
 278              		.loc 1 130 3 view .LVU93
 279              		.loc 1 130 23 is_stmt 0 view .LVU94
 280 0156 4FF48073 		mov	r3, #256
 281 015a 0793     		str	r3, [sp, #28]
 131:Core/Src/gpio.c ****   GPIO_InitStruct.Mode = GPIO_MODE_AF_PP;
 282              		.loc 1 131 3 is_stmt 1 view .LVU95
 283              		.loc 1 131 24 is_stmt 0 view .LVU96
 284 015c 0223     		movs	r3, #2
 285 015e 0893     		str	r3, [sp, #32]
 132:Core/Src/gpio.c ****   GPIO_InitStruct.Pull = GPIO_NOPULL;
 286              		.loc 1 132 3 is_stmt 1 view .LVU97
 287              		.loc 1 132 24 is_stmt 0 view .LVU98
 288 0160 0994     		str	r4, [sp, #36]
 133:Core/Src/gpio.c ****   GPIO_InitStruct.Speed = GPIO_SPEED_FREQ_LOW;
 289              		.loc 1 133 3 is_stmt 1 view .LVU99
 290              		.loc 1 133 25 is_stmt 0 view .LVU100
 291 0162 0A94     		str	r4, [sp, #40]
 134:Core/Src/gpio.c ****   GPIO_InitStruct.Alternate = GPIO_AF0_MCO;
 292              		.loc 1 134 3 is_stmt 1 view .LVU101
 293              		.loc 1 134 29 is_stmt 0 view .LVU102
 294 0164 0B94     		str	r4, [sp, #44]
 135:Core/Src/gpio.c ****   HAL_GPIO_Init(GPIOA, &GPIO_InitStruct);
 295              		.loc 1 135 3 is_stmt 1 view .LVU103
 296 0166 2946     		mov	r1, r5
 297 0168 4046     		mov	r0, r8
 298 016a FFF7FEFF 		bl	HAL_GPIO_Init
 299              	.LVL10:
 136:Core/Src/gpio.c **** 
 137:Core/Src/gpio.c ****   /*Configure GPIO pins : LCD_PWR_Pin LCD_RST_Pin */
 138:Core/Src/gpio.c ****   GPIO_InitStruct.Pin = LCD_PWR_Pin|LCD_RST_Pin;
 300              		.loc 1 138 3 view .LVU104
 301              		.loc 1 138 23 is_stmt 0 view .LVU105
 302 016e 1823     		movs	r3, #24
 303 0170 0793     		str	r3, [sp, #28]
 139:Core/Src/gpio.c ****   GPIO_InitStruct.Mode = GPIO_MODE_OUTPUT_PP;
 304              		.loc 1 139 3 is_stmt 1 view .LVU106
 305              		.loc 1 139 24 is_stmt 0 view .LVU107
 306 0172 0896     		str	r6, [sp, #32]
 140:Core/Src/gpio.c ****   GPIO_InitStruct.Pull = GPIO_PULLUP;
 307              		.loc 1 140 3 is_stmt 1 view .LVU108
 308              		.loc 1 140 24 is_stmt 0 view .LVU109
 309 0174 0996     		str	r6, [sp, #36]
 141:Core/Src/gpio.c ****   GPIO_InitStruct.Speed = GPIO_SPEED_FREQ_LOW;
 310              		.loc 1 141 3 is_stmt 1 view .LVU110
 311              		.loc 1 141 25 is_stmt 0 view .LVU111
 312 0176 0A94     		str	r4, [sp, #40]
 142:Core/Src/gpio.c ****   HAL_GPIO_Init(GPIOD, &GPIO_InitStruct);
 313              		.loc 1 142 3 is_stmt 1 view .LVU112
 314 0178 2946     		mov	r1, r5
 315 017a 5046     		mov	r0, r10
ARM GAS  /var/folders/g1/j12m_ky910s3_sv7d4yrsdn00000gn/T//ccpEAUBC.s 			page 9


 316 017c FFF7FEFF 		bl	HAL_GPIO_Init
 317              	.LVL11:
 143:Core/Src/gpio.c **** 
 144:Core/Src/gpio.c ****   /*Configure GPIO pin : LCD_DC_Pin */
 145:Core/Src/gpio.c ****   GPIO_InitStruct.Pin = LCD_DC_Pin;
 318              		.loc 1 145 3 view .LVU113
 319              		.loc 1 145 23 is_stmt 0 view .LVU114
 320 0180 1023     		movs	r3, #16
 321 0182 0793     		str	r3, [sp, #28]
 146:Core/Src/gpio.c ****   GPIO_InitStruct.Mode = GPIO_MODE_OUTPUT_PP;
 322              		.loc 1 146 3 is_stmt 1 view .LVU115
 323              		.loc 1 146 24 is_stmt 0 view .LVU116
 324 0184 0896     		str	r6, [sp, #32]
 147:Core/Src/gpio.c ****   GPIO_InitStruct.Pull = GPIO_PULLUP;
 325              		.loc 1 147 3 is_stmt 1 view .LVU117
 326              		.loc 1 147 24 is_stmt 0 view .LVU118
 327 0186 0996     		str	r6, [sp, #36]
 148:Core/Src/gpio.c ****   GPIO_InitStruct.Speed = GPIO_SPEED_FREQ_LOW;
 328              		.loc 1 148 3 is_stmt 1 view .LVU119
 329              		.loc 1 148 25 is_stmt 0 view .LVU120
 330 0188 0A94     		str	r4, [sp, #40]
 149:Core/Src/gpio.c ****   HAL_GPIO_Init(LCD_DC_GPIO_Port, &GPIO_InitStruct);
 331              		.loc 1 149 3 is_stmt 1 view .LVU121
 332 018a 2946     		mov	r1, r5
 333 018c 4846     		mov	r0, r9
 334 018e FFF7FEFF 		bl	HAL_GPIO_Init
 335              	.LVL12:
 150:Core/Src/gpio.c **** 
 151:Core/Src/gpio.c ****   /*AnalogSwitch Config */
 152:Core/Src/gpio.c ****   HAL_SYSCFG_AnalogSwitchConfig(SYSCFG_SWITCH_PC2, SYSCFG_SWITCH_PC2_CLOSE);
 336              		.loc 1 152 3 view .LVU122
 337 0192 2146     		mov	r1, r4
 338 0194 4FF08060 		mov	r0, #67108864
 339 0198 FFF7FEFF 		bl	HAL_SYSCFG_AnalogSwitchConfig
 340              	.LVL13:
 153:Core/Src/gpio.c **** 
 154:Core/Src/gpio.c **** }
 341              		.loc 1 154 1 is_stmt 0 view .LVU123
 342 019c 0CB0     		add	sp, sp, #48
 343              	.LCFI2:
 344              		.cfi_def_cfa_offset 32
 345              		@ sp needed
 346 019e BDE8F087 		pop	{r4, r5, r6, r7, r8, r9, r10, pc}
 347              	.L4:
 348 01a2 00BF     		.align	2
 349              	.L3:
 350 01a4 00440258 		.word	1476543488
 351 01a8 00100258 		.word	1476530176
 352 01ac 00080258 		.word	1476528128
 353 01b0 000C0258 		.word	1476529152
 354 01b4 00040258 		.word	1476527104
 355              		.cfi_endproc
 356              	.LFE144:
 358              		.text
 359              	.Letext0:
 360              		.file 2 "/Users/zhy/Tools/xpack-arm-none-eabi-gcc-14.2.1-1.1/arm-none-eabi/include/machine/_defaul
 361              		.file 3 "/Users/zhy/Tools/xpack-arm-none-eabi-gcc-14.2.1-1.1/arm-none-eabi/include/sys/_stdint.h"
ARM GAS  /var/folders/g1/j12m_ky910s3_sv7d4yrsdn00000gn/T//ccpEAUBC.s 			page 10


 362              		.file 4 "Drivers/CMSIS/Device/ST/STM32H7xx/Include/stm32h743xx.h"
 363              		.file 5 "Drivers/STM32H7xx_HAL_Driver/Inc/stm32h7xx_hal_gpio.h"
 364              		.file 6 "Drivers/STM32H7xx_HAL_Driver/Inc/stm32h7xx_hal.h"
ARM GAS  /var/folders/g1/j12m_ky910s3_sv7d4yrsdn00000gn/T//ccpEAUBC.s 			page 11

