ARM GAS  /var/folders/g1/j12m_ky910s3_sv7d4yrsdn00000gn/T//ccqHweuV.s 			page 1


   1              		.cpu cortex-m7
   2              		.arch armv7e-m
   3              		.fpu fpv5-d16
   4              		.eabi_attribute 28, 1
   5              		.eabi_attribute 20, 1
   6              		.eabi_attribute 21, 1
   7              		.eabi_attribute 23, 3
   8              		.eabi_attribute 24, 1
   9              		.eabi_attribute 25, 1
  10              		.eabi_attribute 26, 1
  11              		.eabi_attribute 30, 1
  12              		.eabi_attribute 34, 1
  13              		.eabi_attribute 18, 4
  14              		.file	"ov7670.c"
  15              		.text
  16              	.Ltext0:
  17              		.cfi_sections	.debug_frame
  18              		.file 1 "BSP/Camera/ov7670.c"
  19              		.section	.text.OV7670_WriteReg,"ax",%progbits
  20              		.align	1
  21              		.global	OV7670_WriteReg
  22              		.syntax unified
  23              		.thumb
  24              		.thumb_func
  26              	OV7670_WriteReg:
  27              	.LVL0:
  28              	.LFB144:
   1:BSP/Camera/ov7670.c **** #include "ov7670.h"
   2:BSP/Camera/ov7670.c **** #include "ov7670_regs.h"
   3:BSP/Camera/ov7670.c **** 
   4:BSP/Camera/ov7670.c **** int OV7670_WriteReg(uint8_t regAddr, const uint8_t *pData)
   5:BSP/Camera/ov7670.c **** {
  29              		.loc 1 5 1 view -0
  30              		.cfi_startproc
  31              		@ args = 0, pretend = 0, frame = 8
  32              		@ frame_needed = 0, uses_anonymous_args = 0
  33              		.loc 1 5 1 is_stmt 0 view .LVU1
  34 0000 00B5     		push	{lr}
  35              	.LCFI0:
  36              		.cfi_def_cfa_offset 4
  37              		.cfi_offset 14, -4
  38 0002 85B0     		sub	sp, sp, #20
  39              	.LCFI1:
  40              		.cfi_def_cfa_offset 24
   6:BSP/Camera/ov7670.c **** 	uint8_t tt[2];
  41              		.loc 1 6 2 is_stmt 1 view .LVU2
   7:BSP/Camera/ov7670.c **** 	tt[0] = regAddr;
  42              		.loc 1 7 2 view .LVU3
  43              		.loc 1 7 8 is_stmt 0 view .LVU4
  44 0004 8DF80C00 		strb	r0, [sp, #12]
   8:BSP/Camera/ov7670.c **** 	tt[1] = pData[0];
  45              		.loc 1 8 2 is_stmt 1 view .LVU5
  46              		.loc 1 8 15 is_stmt 0 view .LVU6
  47 0008 0B78     		ldrb	r3, [r1]	@ zero_extendqisi2
  48              		.loc 1 8 8 view .LVU7
  49 000a 8DF80D30 		strb	r3, [sp, #13]
   9:BSP/Camera/ov7670.c **** 	if (HAL_I2C_Master_Transmit(hcamera.hi2c, hcamera.addr,tt,2,hcamera.timeout) == HAL_OK)
ARM GAS  /var/folders/g1/j12m_ky910s3_sv7d4yrsdn00000gn/T//ccqHweuV.s 			page 2


  50              		.loc 1 9 2 is_stmt 1 view .LVU8
  51              		.loc 1 9 51 is_stmt 0 view .LVU9
  52 000e 0748     		ldr	r0, .L5
  53              	.LVL1:
  54              		.loc 1 9 6 view .LVU10
  55 0010 8368     		ldr	r3, [r0, #8]
  56 0012 0093     		str	r3, [sp]
  57 0014 0223     		movs	r3, #2
  58 0016 03AA     		add	r2, sp, #12
  59              	.LVL2:
  60              		.loc 1 9 6 view .LVU11
  61 0018 0179     		ldrb	r1, [r0, #4]	@ zero_extendqisi2
  62              	.LVL3:
  63              		.loc 1 9 6 view .LVU12
  64 001a 0068     		ldr	r0, [r0]
  65 001c FFF7FEFF 		bl	HAL_I2C_Master_Transmit
  66              	.LVL4:
  67              		.loc 1 9 5 discriminator 1 view .LVU13
  68 0020 00B1     		cbz	r0, .L1
  10:BSP/Camera/ov7670.c **** 	{
  11:BSP/Camera/ov7670.c **** 		return OV7670_OK;
  12:BSP/Camera/ov7670.c **** 	}
  13:BSP/Camera/ov7670.c **** 	else
  14:BSP/Camera/ov7670.c **** 	{
  15:BSP/Camera/ov7670.c **** 		return OV7670_ERROR;
  69              		.loc 1 15 10 view .LVU14
  70 0022 0120     		movs	r0, #1
  71              	.L1:
  16:BSP/Camera/ov7670.c **** 	}
  17:BSP/Camera/ov7670.c **** }
  72              		.loc 1 17 1 view .LVU15
  73 0024 05B0     		add	sp, sp, #20
  74              	.LCFI2:
  75              		.cfi_def_cfa_offset 4
  76              		@ sp needed
  77 0026 5DF804FB 		ldr	pc, [sp], #4
  78              	.L6:
  79 002a 00BF     		.align	2
  80              	.L5:
  81 002c 00000000 		.word	hcamera
  82              		.cfi_endproc
  83              	.LFE144:
  85              		.section	.text.OV7670_ReadReg,"ax",%progbits
  86              		.align	1
  87              		.global	OV7670_ReadReg
  88              		.syntax unified
  89              		.thumb
  90              		.thumb_func
  92              	OV7670_ReadReg:
  93              	.LVL5:
  94              	.LFB145:
  18:BSP/Camera/ov7670.c **** 
  19:BSP/Camera/ov7670.c **** int OV7670_ReadReg(uint8_t regAddr, uint8_t *pData)
  20:BSP/Camera/ov7670.c **** {
  95              		.loc 1 20 1 is_stmt 1 view -0
  96              		.cfi_startproc
  97              		@ args = 0, pretend = 0, frame = 8
ARM GAS  /var/folders/g1/j12m_ky910s3_sv7d4yrsdn00000gn/T//ccqHweuV.s 			page 3


  98              		@ frame_needed = 0, uses_anonymous_args = 0
  99              		.loc 1 20 1 is_stmt 0 view .LVU17
 100 0000 30B5     		push	{r4, r5, lr}
 101              	.LCFI3:
 102              		.cfi_def_cfa_offset 12
 103              		.cfi_offset 4, -12
 104              		.cfi_offset 5, -8
 105              		.cfi_offset 14, -4
 106 0002 85B0     		sub	sp, sp, #20
 107              	.LCFI4:
 108              		.cfi_def_cfa_offset 32
 109 0004 0D46     		mov	r5, r1
 110 0006 8DF80F00 		strb	r0, [sp, #15]
  21:BSP/Camera/ov7670.c **** 	HAL_I2C_Master_Transmit(hcamera.hi2c, hcamera.addr+1,&regAddr,1,hcamera.timeout);
 111              		.loc 1 21 2 is_stmt 1 view .LVU18
 112              		.loc 1 21 47 is_stmt 0 view .LVU19
 113 000a 0C4C     		ldr	r4, .L11
 114 000c 2179     		ldrb	r1, [r4, #4]	@ zero_extendqisi2
 115              	.LVL6:
 116              		.loc 1 21 2 view .LVU20
 117 000e A368     		ldr	r3, [r4, #8]
 118 0010 0093     		str	r3, [sp]
 119 0012 0123     		movs	r3, #1
 120 0014 0DF10F02 		add	r2, sp, #15
 121 0018 1944     		add	r1, r1, r3
 122 001a 2068     		ldr	r0, [r4]
 123              	.LVL7:
 124              		.loc 1 21 2 view .LVU21
 125 001c FFF7FEFF 		bl	HAL_I2C_Master_Transmit
 126              	.LVL8:
  22:BSP/Camera/ov7670.c **** 	if (HAL_I2C_Master_Receive(hcamera.hi2c, hcamera.addr+1,pData,1,hcamera.timeout) == HAL_OK)
 127              		.loc 1 22 2 is_stmt 1 view .LVU22
 128              		.loc 1 22 50 is_stmt 0 view .LVU23
 129 0020 2179     		ldrb	r1, [r4, #4]	@ zero_extendqisi2
 130              		.loc 1 22 6 view .LVU24
 131 0022 A368     		ldr	r3, [r4, #8]
 132 0024 0093     		str	r3, [sp]
 133 0026 0123     		movs	r3, #1
 134 0028 2A46     		mov	r2, r5
 135 002a 1944     		add	r1, r1, r3
 136 002c 2068     		ldr	r0, [r4]
 137 002e FFF7FEFF 		bl	HAL_I2C_Master_Receive
 138              	.LVL9:
 139              		.loc 1 22 5 discriminator 1 view .LVU25
 140 0032 00B1     		cbz	r0, .L7
  23:BSP/Camera/ov7670.c **** 	{
  24:BSP/Camera/ov7670.c **** 		return OV7670_OK;
  25:BSP/Camera/ov7670.c **** 	}
  26:BSP/Camera/ov7670.c **** 	else
  27:BSP/Camera/ov7670.c **** 	{
  28:BSP/Camera/ov7670.c **** 		return OV7670_ERROR;
 141              		.loc 1 28 10 view .LVU26
 142 0034 0120     		movs	r0, #1
 143              	.L7:
  29:BSP/Camera/ov7670.c **** 	}
  30:BSP/Camera/ov7670.c **** }
 144              		.loc 1 30 1 view .LVU27
ARM GAS  /var/folders/g1/j12m_ky910s3_sv7d4yrsdn00000gn/T//ccqHweuV.s 			page 4


 145 0036 05B0     		add	sp, sp, #20
 146              	.LCFI5:
 147              		.cfi_def_cfa_offset 12
 148              		@ sp needed
 149 0038 30BD     		pop	{r4, r5, pc}
 150              	.LVL10:
 151              	.L12:
 152              		.loc 1 30 1 view .LVU28
 153 003a 00BF     		.align	2
 154              	.L11:
 155 003c 00000000 		.word	hcamera
 156              		.cfi_endproc
 157              	.LFE145:
 159              		.section	.text.OV7670_Reset,"ax",%progbits
 160              		.align	1
 161              		.global	OV7670_Reset
 162              		.syntax unified
 163              		.thumb
 164              		.thumb_func
 166              	OV7670_Reset:
 167              	.LFB146:
  31:BSP/Camera/ov7670.c **** 
  32:BSP/Camera/ov7670.c **** int OV7670_Reset(void)
  33:BSP/Camera/ov7670.c **** {
 168              		.loc 1 33 1 is_stmt 1 view -0
 169              		.cfi_startproc
 170              		@ args = 0, pretend = 0, frame = 8
 171              		@ frame_needed = 0, uses_anonymous_args = 0
 172 0000 10B5     		push	{r4, lr}
 173              	.LCFI6:
 174              		.cfi_def_cfa_offset 8
 175              		.cfi_offset 4, -8
 176              		.cfi_offset 14, -4
 177 0002 82B0     		sub	sp, sp, #8
 178              	.LCFI7:
 179              		.cfi_def_cfa_offset 16
  34:BSP/Camera/ov7670.c **** 	HAL_Delay(100);
 180              		.loc 1 34 2 view .LVU30
 181 0004 6420     		movs	r0, #100
 182 0006 FFF7FEFF 		bl	HAL_Delay
 183              	.LVL11:
  35:BSP/Camera/ov7670.c **** 	uint8_t data = COM7_RESET;
 184              		.loc 1 35 2 view .LVU31
 185              		.loc 1 35 10 is_stmt 0 view .LVU32
 186 000a 8023     		movs	r3, #128
 187 000c 8DF80730 		strb	r3, [sp, #7]
  36:BSP/Camera/ov7670.c **** 	if (OV7670_WriteReg(REG_COM7, &data) != OV7670_OK)
 188              		.loc 1 36 2 is_stmt 1 view .LVU33
 189              		.loc 1 36 6 is_stmt 0 view .LVU34
 190 0010 0DF10701 		add	r1, sp, #7
 191 0014 1220     		movs	r0, #18
 192 0016 FFF7FEFF 		bl	OV7670_WriteReg
 193              	.LVL12:
 194              		.loc 1 36 5 discriminator 1 view .LVU35
 195 001a 18B1     		cbz	r0, .L17
  37:BSP/Camera/ov7670.c **** 	{
  38:BSP/Camera/ov7670.c **** 		return OV7670_ERROR;
ARM GAS  /var/folders/g1/j12m_ky910s3_sv7d4yrsdn00000gn/T//ccqHweuV.s 			page 5


 196              		.loc 1 38 10 view .LVU36
 197 001c 0124     		movs	r4, #1
 198              	.L13:
  39:BSP/Camera/ov7670.c **** 	}
  40:BSP/Camera/ov7670.c **** 	HAL_Delay(100);
  41:BSP/Camera/ov7670.c **** 	return OV7670_OK;
  42:BSP/Camera/ov7670.c **** }
 199              		.loc 1 42 1 view .LVU37
 200 001e 2046     		mov	r0, r4
 201 0020 02B0     		add	sp, sp, #8
 202              	.LCFI8:
 203              		.cfi_remember_state
 204              		.cfi_def_cfa_offset 8
 205              		@ sp needed
 206 0022 10BD     		pop	{r4, pc}
 207              	.L17:
 208              	.LCFI9:
 209              		.cfi_restore_state
 210 0024 0446     		mov	r4, r0
  40:BSP/Camera/ov7670.c **** 	return OV7670_OK;
 211              		.loc 1 40 2 is_stmt 1 view .LVU38
 212 0026 6420     		movs	r0, #100
 213 0028 FFF7FEFF 		bl	HAL_Delay
 214              	.LVL13:
  41:BSP/Camera/ov7670.c **** }
 215              		.loc 1 41 2 view .LVU39
  41:BSP/Camera/ov7670.c **** }
 216              		.loc 1 41 9 is_stmt 0 view .LVU40
 217 002c F7E7     		b	.L13
 218              		.cfi_endproc
 219              	.LFE146:
 221              		.section	.text.OV7670_WriteRegList,"ax",%progbits
 222              		.align	1
 223              		.global	OV7670_WriteRegList
 224              		.syntax unified
 225              		.thumb
 226              		.thumb_func
 228              	OV7670_WriteRegList:
 229              	.LVL14:
 230              	.LFB147:
  43:BSP/Camera/ov7670.c **** 
  44:BSP/Camera/ov7670.c **** int OV7670_WriteRegList(const struct regval_t *reg_list)
  45:BSP/Camera/ov7670.c **** {
 231              		.loc 1 45 1 is_stmt 1 view -0
 232              		.cfi_startproc
 233              		@ args = 0, pretend = 0, frame = 0
 234              		@ frame_needed = 0, uses_anonymous_args = 0
 235              		.loc 1 45 1 is_stmt 0 view .LVU42
 236 0000 10B5     		push	{r4, lr}
 237              	.LCFI10:
 238              		.cfi_def_cfa_offset 8
 239              		.cfi_offset 4, -8
 240              		.cfi_offset 14, -4
 241 0002 0446     		mov	r4, r0
  46:BSP/Camera/ov7670.c **** 	const struct regval_t *pReg = reg_list;
 242              		.loc 1 46 2 is_stmt 1 view .LVU43
 243              	.LVL15:
ARM GAS  /var/folders/g1/j12m_ky910s3_sv7d4yrsdn00000gn/T//ccqHweuV.s 			page 6


  47:BSP/Camera/ov7670.c **** 	while (pReg->reg_addr != 0xFF && pReg->value != 0xFF)
 244              		.loc 1 47 2 view .LVU44
 245              		.loc 1 47 8 is_stmt 0 view .LVU45
 246 0004 00E0     		b	.L19
 247              	.LVL16:
 248              	.L25:
 249              	.LBB2:
  48:BSP/Camera/ov7670.c **** 	{
  49:BSP/Camera/ov7670.c **** 		int write_result = OV7670_WriteReg( pReg->reg_addr, &(pReg->value));
  50:BSP/Camera/ov7670.c **** 		if (write_result != OV7670_OK)
  51:BSP/Camera/ov7670.c **** 		{
  52:BSP/Camera/ov7670.c **** 			return write_result;
  53:BSP/Camera/ov7670.c **** 		}
  54:BSP/Camera/ov7670.c **** 		pReg++;
 250              		.loc 1 54 3 is_stmt 1 view .LVU46
 251              		.loc 1 54 7 is_stmt 0 view .LVU47
 252 0006 0234     		adds	r4, r4, #2
 253              	.LVL17:
 254              	.L19:
 255              		.loc 1 54 7 view .LVU48
 256              	.LBE2:
  47:BSP/Camera/ov7670.c **** 	while (pReg->reg_addr != 0xFF && pReg->value != 0xFF)
 257              		.loc 1 47 32 is_stmt 1 view .LVU49
  47:BSP/Camera/ov7670.c **** 	while (pReg->reg_addr != 0xFF && pReg->value != 0xFF)
 258              		.loc 1 47 13 is_stmt 0 view .LVU50
 259 0008 2078     		ldrb	r0, [r4]	@ zero_extendqisi2
  47:BSP/Camera/ov7670.c **** 	while (pReg->reg_addr != 0xFF && pReg->value != 0xFF)
 260              		.loc 1 47 32 view .LVU51
 261 000a FF28     		cmp	r0, #255
 262 000c 0BD0     		beq	.L22
  47:BSP/Camera/ov7670.c **** 	while (pReg->reg_addr != 0xFF && pReg->value != 0xFF)
 263              		.loc 1 47 39 discriminator 1 view .LVU52
 264 000e 6378     		ldrb	r3, [r4, #1]	@ zero_extendqisi2
  47:BSP/Camera/ov7670.c **** 	while (pReg->reg_addr != 0xFF && pReg->value != 0xFF)
 265              		.loc 1 47 32 discriminator 1 view .LVU53
 266 0010 FF2B     		cmp	r3, #255
 267 0012 06D0     		beq	.L24
 268              	.LBB3:
  49:BSP/Camera/ov7670.c **** 		if (write_result != OV7670_OK)
 269              		.loc 1 49 3 is_stmt 1 view .LVU54
  49:BSP/Camera/ov7670.c **** 		if (write_result != OV7670_OK)
 270              		.loc 1 49 22 is_stmt 0 view .LVU55
 271 0014 611C     		adds	r1, r4, #1
 272 0016 FFF7FEFF 		bl	OV7670_WriteReg
 273              	.LVL18:
  50:BSP/Camera/ov7670.c **** 		{
 274              		.loc 1 50 3 is_stmt 1 view .LVU56
  50:BSP/Camera/ov7670.c **** 		{
 275              		.loc 1 50 6 is_stmt 0 view .LVU57
 276 001a 0346     		mov	r3, r0
 277 001c 0028     		cmp	r0, #0
 278 001e F2D0     		beq	.L25
 279 0020 02E0     		b	.L18
 280              	.LVL19:
 281              	.L24:
  50:BSP/Camera/ov7670.c **** 		{
 282              		.loc 1 50 6 view .LVU58
ARM GAS  /var/folders/g1/j12m_ky910s3_sv7d4yrsdn00000gn/T//ccqHweuV.s 			page 7


 283              	.LBE3:
  55:BSP/Camera/ov7670.c **** 	}
  56:BSP/Camera/ov7670.c **** 	return OV7670_OK;
 284              		.loc 1 56 9 view .LVU59
 285 0022 0023     		movs	r3, #0
 286 0024 00E0     		b	.L18
 287              	.L22:
 288 0026 0023     		movs	r3, #0
 289              	.L18:
  57:BSP/Camera/ov7670.c **** }
 290              		.loc 1 57 1 view .LVU60
 291 0028 1846     		mov	r0, r3
 292 002a 10BD     		pop	{r4, pc}
 293              		.loc 1 57 1 view .LVU61
 294              		.cfi_endproc
 295              	.LFE147:
 297              		.section	.text.OV7670_Light_Mode,"ax",%progbits
 298              		.align	1
 299              		.global	OV7670_Light_Mode
 300              		.syntax unified
 301              		.thumb
 302              		.thumb_func
 304              	OV7670_Light_Mode:
 305              	.LVL20:
 306              	.LFB148:
  58:BSP/Camera/ov7670.c **** 
  59:BSP/Camera/ov7670.c **** ////////////////////////////////////////////////////////////////////////////
  60:BSP/Camera/ov7670.c **** //OV7670功能设置
  61:BSP/Camera/ov7670.c **** //白平衡设置
  62:BSP/Camera/ov7670.c **** //0:自动
  63:BSP/Camera/ov7670.c **** //1:太阳sunny
  64:BSP/Camera/ov7670.c **** //2,阴天cloudy
  65:BSP/Camera/ov7670.c **** //3,办公室office
  66:BSP/Camera/ov7670.c **** //4,家里home
  67:BSP/Camera/ov7670.c **** void OV7670_Light_Mode(uint8_t mode)
  68:BSP/Camera/ov7670.c **** {
 307              		.loc 1 68 1 is_stmt 1 view -0
 308              		.cfi_startproc
 309              		@ args = 0, pretend = 0, frame = 8
 310              		@ frame_needed = 0, uses_anonymous_args = 0
 311              		.loc 1 68 1 is_stmt 0 view .LVU63
 312 0000 00B5     		push	{lr}
 313              	.LCFI11:
 314              		.cfi_def_cfa_offset 4
 315              		.cfi_offset 14, -4
 316 0002 83B0     		sub	sp, sp, #12
 317              	.LCFI12:
 318              		.cfi_def_cfa_offset 16
  69:BSP/Camera/ov7670.c **** 	uint8_t reg13val=0XE7;//默认就是设置为自动白平衡
 319              		.loc 1 69 2 is_stmt 1 view .LVU64
 320              		.loc 1 69 10 is_stmt 0 view .LVU65
 321 0004 E723     		movs	r3, #231
 322 0006 8DF80730 		strb	r3, [sp, #7]
  70:BSP/Camera/ov7670.c **** 	uint8_t reg01val=0;
 323              		.loc 1 70 2 is_stmt 1 view .LVU66
 324              		.loc 1 70 10 is_stmt 0 view .LVU67
 325 000a 0023     		movs	r3, #0
ARM GAS  /var/folders/g1/j12m_ky910s3_sv7d4yrsdn00000gn/T//ccqHweuV.s 			page 8


 326 000c 8DF80630 		strb	r3, [sp, #6]
  71:BSP/Camera/ov7670.c **** 	uint8_t reg02val=0;
 327              		.loc 1 71 2 is_stmt 1 view .LVU68
 328              		.loc 1 71 10 is_stmt 0 view .LVU69
 329 0010 8DF80530 		strb	r3, [sp, #5]
  72:BSP/Camera/ov7670.c **** 	switch(mode)
 330              		.loc 1 72 2 is_stmt 1 view .LVU70
 331 0014 0138     		subs	r0, r0, #1
 332              	.LVL21:
 333              		.loc 1 72 2 is_stmt 0 view .LVU71
 334 0016 0328     		cmp	r0, #3
 335 0018 0CD8     		bhi	.L27
 336 001a DFE800F0 		tbb	[pc, r0]
 337              	.L29:
 338 001e 02       		.byte	(.L32-.L29)/2
 339 001f 1D       		.byte	(.L31-.L29)/2
 340 0020 27       		.byte	(.L30-.L29)/2
 341 0021 31       		.byte	(.L28-.L29)/2
 342              		.p2align 1
 343              	.L32:
  73:BSP/Camera/ov7670.c **** 	{
  74:BSP/Camera/ov7670.c **** 		case 1://sunny
  75:BSP/Camera/ov7670.c **** 			reg13val=0XE5;
 344              		.loc 1 75 4 is_stmt 1 view .LVU72
 345              		.loc 1 75 12 is_stmt 0 view .LVU73
 346 0022 E523     		movs	r3, #229
 347 0024 8DF80730 		strb	r3, [sp, #7]
  76:BSP/Camera/ov7670.c **** 			reg01val=0X5A;
 348              		.loc 1 76 4 is_stmt 1 view .LVU74
 349              		.loc 1 76 12 is_stmt 0 view .LVU75
 350 0028 5A23     		movs	r3, #90
 351 002a 8DF80630 		strb	r3, [sp, #6]
  77:BSP/Camera/ov7670.c **** 			reg02val=0X5C;
 352              		.loc 1 77 4 is_stmt 1 view .LVU76
 353              		.loc 1 77 12 is_stmt 0 view .LVU77
 354 002e 5C23     		movs	r3, #92
 355 0030 8DF80530 		strb	r3, [sp, #5]
  78:BSP/Camera/ov7670.c **** 			break;	
 356              		.loc 1 78 4 is_stmt 1 view .LVU78
 357              	.L27:
  79:BSP/Camera/ov7670.c **** 		case 2://cloudy
  80:BSP/Camera/ov7670.c **** 			reg13val=0XE5;
  81:BSP/Camera/ov7670.c **** 			reg01val=0X58;
  82:BSP/Camera/ov7670.c **** 			reg02val=0X60;
  83:BSP/Camera/ov7670.c **** 			break;	
  84:BSP/Camera/ov7670.c **** 		case 3://office
  85:BSP/Camera/ov7670.c **** 			reg13val=0XE5;
  86:BSP/Camera/ov7670.c **** 			reg01val=0X84;
  87:BSP/Camera/ov7670.c **** 			reg02val=0X4c;
  88:BSP/Camera/ov7670.c **** 			break;	
  89:BSP/Camera/ov7670.c **** 		case 4://home
  90:BSP/Camera/ov7670.c **** 			reg13val=0XE5;
  91:BSP/Camera/ov7670.c **** 			reg01val=0X96;
  92:BSP/Camera/ov7670.c **** 			reg02val=0X40;
  93:BSP/Camera/ov7670.c **** 			break;	
  94:BSP/Camera/ov7670.c **** 	}
  95:BSP/Camera/ov7670.c **** 	OV7670_WriteReg(REG_COM8, &reg13val);//COM8设置 
ARM GAS  /var/folders/g1/j12m_ky910s3_sv7d4yrsdn00000gn/T//ccqHweuV.s 			page 9


 358              		.loc 1 95 2 view .LVU79
 359 0034 0DF10701 		add	r1, sp, #7
 360 0038 1320     		movs	r0, #19
 361              	.LVL22:
 362              		.loc 1 95 2 is_stmt 0 view .LVU80
 363 003a FFF7FEFF 		bl	OV7670_WriteReg
 364              	.LVL23:
  96:BSP/Camera/ov7670.c **** 	OV7670_WriteReg(REG_BLUE,&reg01val);//AWB蓝色通道增益 
 365              		.loc 1 96 2 is_stmt 1 view .LVU81
 366 003e 0DF10601 		add	r1, sp, #6
 367 0042 0120     		movs	r0, #1
 368 0044 FFF7FEFF 		bl	OV7670_WriteReg
 369              	.LVL24:
  97:BSP/Camera/ov7670.c **** 	OV7670_WriteReg(REG_RED,&reg02val);//AWB红色通道增益 
 370              		.loc 1 97 2 view .LVU82
 371 0048 0DF10501 		add	r1, sp, #5
 372 004c 0220     		movs	r0, #2
 373 004e FFF7FEFF 		bl	OV7670_WriteReg
 374              	.LVL25:
  98:BSP/Camera/ov7670.c **** }				
 375              		.loc 1 98 1 is_stmt 0 view .LVU83
 376 0052 03B0     		add	sp, sp, #12
 377              	.LCFI13:
 378              		.cfi_remember_state
 379              		.cfi_def_cfa_offset 4
 380              		@ sp needed
 381 0054 5DF804FB 		ldr	pc, [sp], #4
 382              	.L31:
 383              	.LCFI14:
 384              		.cfi_restore_state
  80:BSP/Camera/ov7670.c **** 			reg01val=0X58;
 385              		.loc 1 80 4 is_stmt 1 view .LVU84
  80:BSP/Camera/ov7670.c **** 			reg01val=0X58;
 386              		.loc 1 80 12 is_stmt 0 view .LVU85
 387 0058 E523     		movs	r3, #229
 388 005a 8DF80730 		strb	r3, [sp, #7]
  81:BSP/Camera/ov7670.c **** 			reg02val=0X60;
 389              		.loc 1 81 4 is_stmt 1 view .LVU86
  81:BSP/Camera/ov7670.c **** 			reg02val=0X60;
 390              		.loc 1 81 12 is_stmt 0 view .LVU87
 391 005e 5823     		movs	r3, #88
 392 0060 8DF80630 		strb	r3, [sp, #6]
  82:BSP/Camera/ov7670.c **** 			break;	
 393              		.loc 1 82 4 is_stmt 1 view .LVU88
  82:BSP/Camera/ov7670.c **** 			break;	
 394              		.loc 1 82 12 is_stmt 0 view .LVU89
 395 0064 6023     		movs	r3, #96
 396 0066 8DF80530 		strb	r3, [sp, #5]
  83:BSP/Camera/ov7670.c **** 		case 3://office
 397              		.loc 1 83 4 is_stmt 1 view .LVU90
 398 006a E3E7     		b	.L27
 399              	.L30:
  85:BSP/Camera/ov7670.c **** 			reg01val=0X84;
 400              		.loc 1 85 4 view .LVU91
  85:BSP/Camera/ov7670.c **** 			reg01val=0X84;
 401              		.loc 1 85 12 is_stmt 0 view .LVU92
 402 006c E523     		movs	r3, #229
ARM GAS  /var/folders/g1/j12m_ky910s3_sv7d4yrsdn00000gn/T//ccqHweuV.s 			page 10


 403 006e 8DF80730 		strb	r3, [sp, #7]
  86:BSP/Camera/ov7670.c **** 			reg02val=0X4c;
 404              		.loc 1 86 4 is_stmt 1 view .LVU93
  86:BSP/Camera/ov7670.c **** 			reg02val=0X4c;
 405              		.loc 1 86 12 is_stmt 0 view .LVU94
 406 0072 8423     		movs	r3, #132
 407 0074 8DF80630 		strb	r3, [sp, #6]
  87:BSP/Camera/ov7670.c **** 			break;	
 408              		.loc 1 87 4 is_stmt 1 view .LVU95
  87:BSP/Camera/ov7670.c **** 			break;	
 409              		.loc 1 87 12 is_stmt 0 view .LVU96
 410 0078 4C23     		movs	r3, #76
 411 007a 8DF80530 		strb	r3, [sp, #5]
  88:BSP/Camera/ov7670.c **** 		case 4://home
 412              		.loc 1 88 4 is_stmt 1 view .LVU97
 413 007e D9E7     		b	.L27
 414              	.L28:
  90:BSP/Camera/ov7670.c **** 			reg01val=0X96;
 415              		.loc 1 90 4 view .LVU98
  90:BSP/Camera/ov7670.c **** 			reg01val=0X96;
 416              		.loc 1 90 12 is_stmt 0 view .LVU99
 417 0080 E523     		movs	r3, #229
 418 0082 8DF80730 		strb	r3, [sp, #7]
  91:BSP/Camera/ov7670.c **** 			reg02val=0X40;
 419              		.loc 1 91 4 is_stmt 1 view .LVU100
  91:BSP/Camera/ov7670.c **** 			reg02val=0X40;
 420              		.loc 1 91 12 is_stmt 0 view .LVU101
 421 0086 9623     		movs	r3, #150
 422 0088 8DF80630 		strb	r3, [sp, #6]
  92:BSP/Camera/ov7670.c **** 			break;	
 423              		.loc 1 92 4 is_stmt 1 view .LVU102
  92:BSP/Camera/ov7670.c **** 			break;	
 424              		.loc 1 92 12 is_stmt 0 view .LVU103
 425 008c 4023     		movs	r3, #64
 426 008e 8DF80530 		strb	r3, [sp, #5]
  93:BSP/Camera/ov7670.c **** 	}
 427              		.loc 1 93 4 is_stmt 1 view .LVU104
 428 0092 CFE7     		b	.L27
 429              		.cfi_endproc
 430              	.LFE148:
 432              		.section	.text.OV7670_Color_Saturation,"ax",%progbits
 433              		.align	1
 434              		.global	OV7670_Color_Saturation
 435              		.syntax unified
 436              		.thumb
 437              		.thumb_func
 439              	OV7670_Color_Saturation:
 440              	.LVL26:
 441              	.LFB149:
  99:BSP/Camera/ov7670.c **** 
 100:BSP/Camera/ov7670.c **** //色度设置
 101:BSP/Camera/ov7670.c **** //0:-2
 102:BSP/Camera/ov7670.c **** //1:-1
 103:BSP/Camera/ov7670.c **** //2,0
 104:BSP/Camera/ov7670.c **** //3,1
 105:BSP/Camera/ov7670.c **** //4,2
 106:BSP/Camera/ov7670.c **** void OV7670_Color_Saturation(uint8_t sat)
ARM GAS  /var/folders/g1/j12m_ky910s3_sv7d4yrsdn00000gn/T//ccqHweuV.s 			page 11


 107:BSP/Camera/ov7670.c **** {
 442              		.loc 1 107 1 view -0
 443              		.cfi_startproc
 444              		@ args = 0, pretend = 0, frame = 8
 445              		@ frame_needed = 0, uses_anonymous_args = 0
 446              		.loc 1 107 1 is_stmt 0 view .LVU106
 447 0000 10B5     		push	{r4, lr}
 448              	.LCFI15:
 449              		.cfi_def_cfa_offset 8
 450              		.cfi_offset 4, -8
 451              		.cfi_offset 14, -4
 452 0002 82B0     		sub	sp, sp, #8
 453              	.LCFI16:
 454              		.cfi_def_cfa_offset 16
 108:BSP/Camera/ov7670.c **** 	uint8_t reg4f5054val=0X80;//默认就是sat=2,即不调节色度的设置
 455              		.loc 1 108 2 is_stmt 1 view .LVU107
 456              		.loc 1 108 10 is_stmt 0 view .LVU108
 457 0004 8023     		movs	r3, #128
 458 0006 8DF80730 		strb	r3, [sp, #7]
 109:BSP/Camera/ov7670.c ****  	uint8_t reg52val=0X22;
 459              		.loc 1 109 3 is_stmt 1 view .LVU109
 460              		.loc 1 109 11 is_stmt 0 view .LVU110
 461 000a 2223     		movs	r3, #34
 462 000c 8DF80630 		strb	r3, [sp, #6]
 110:BSP/Camera/ov7670.c **** 	uint8_t reg53val=0X5E;
 463              		.loc 1 110 2 is_stmt 1 view .LVU111
 464              		.loc 1 110 10 is_stmt 0 view .LVU112
 465 0010 5E23     		movs	r3, #94
 466 0012 8DF80530 		strb	r3, [sp, #5]
 111:BSP/Camera/ov7670.c **** 	uint8_t reg54val=0X9E;
 467              		.loc 1 111 2 is_stmt 1 view .LVU113
 468              		.loc 1 111 10 is_stmt 0 view .LVU114
 469 0016 9E23     		movs	r3, #158
 470 0018 8DF80430 		strb	r3, [sp, #4]
 112:BSP/Camera/ov7670.c ****  	switch(sat)
 471              		.loc 1 112 3 is_stmt 1 view .LVU115
 472 001c 0428     		cmp	r0, #4
 473 001e 0DD8     		bhi	.L36
 474 0020 DFE800F0 		tbb	[pc, r0]
 475              	.L38:
 476 0024 03       		.byte	(.L41-.L38)/2
 477 0025 2E       		.byte	(.L40-.L38)/2
 478 0026 0C       		.byte	(.L36-.L38)/2
 479 0027 38       		.byte	(.L39-.L38)/2
 480 0028 42       		.byte	(.L37-.L38)/2
 481 0029 00       		.p2align 1
 482              	.L41:
 113:BSP/Camera/ov7670.c **** 	{
 114:BSP/Camera/ov7670.c **** 		case 0://-2
 115:BSP/Camera/ov7670.c **** 			reg4f5054val=0X40;  	 
 483              		.loc 1 115 4 view .LVU116
 484              		.loc 1 115 16 is_stmt 0 view .LVU117
 485 002a 4023     		movs	r3, #64
 486 002c 8DF80730 		strb	r3, [sp, #7]
 116:BSP/Camera/ov7670.c **** 			reg52val=0X11;
 487              		.loc 1 116 4 is_stmt 1 view .LVU118
 488              		.loc 1 116 12 is_stmt 0 view .LVU119
ARM GAS  /var/folders/g1/j12m_ky910s3_sv7d4yrsdn00000gn/T//ccqHweuV.s 			page 12


 489 0030 1123     		movs	r3, #17
 490 0032 8DF80630 		strb	r3, [sp, #6]
 117:BSP/Camera/ov7670.c **** 			reg53val=0X2F;	 	 
 491              		.loc 1 117 4 is_stmt 1 view .LVU120
 492              		.loc 1 117 12 is_stmt 0 view .LVU121
 493 0036 2F23     		movs	r3, #47
 494 0038 8DF80530 		strb	r3, [sp, #5]
 118:BSP/Camera/ov7670.c **** 			break;	
 495              		.loc 1 118 4 is_stmt 1 view .LVU122
 496              	.L36:
 119:BSP/Camera/ov7670.c **** 		case 1://-1
 120:BSP/Camera/ov7670.c **** 			reg4f5054val=0X66;	    
 121:BSP/Camera/ov7670.c **** 			reg52val=0X1B;
 122:BSP/Camera/ov7670.c **** 			reg53val=0X4B;	  
 123:BSP/Camera/ov7670.c **** 			break;	
 124:BSP/Camera/ov7670.c **** 		case 3://1
 125:BSP/Camera/ov7670.c **** 			reg4f5054val=0X99;	   
 126:BSP/Camera/ov7670.c **** 			reg52val=0X28;
 127:BSP/Camera/ov7670.c **** 			reg53val=0X71;	   
 128:BSP/Camera/ov7670.c **** 			break;	
 129:BSP/Camera/ov7670.c **** 		case 4://2
 130:BSP/Camera/ov7670.c **** 			reg4f5054val=0XC0;	   
 131:BSP/Camera/ov7670.c **** 			reg52val=0X33;
 132:BSP/Camera/ov7670.c **** 			reg53val=0X8D;	   
 133:BSP/Camera/ov7670.c **** 			break;	
 134:BSP/Camera/ov7670.c **** 	}
 135:BSP/Camera/ov7670.c **** 	OV7670_WriteReg(MTX1,&reg4f5054val);	//色彩矩阵系数1
 497              		.loc 1 135 2 view .LVU123
 498 003c 0DF10704 		add	r4, sp, #7
 499 0040 2146     		mov	r1, r4
 500 0042 4F20     		movs	r0, #79
 501              	.LVL27:
 502              		.loc 1 135 2 is_stmt 0 view .LVU124
 503 0044 FFF7FEFF 		bl	OV7670_WriteReg
 504              	.LVL28:
 136:BSP/Camera/ov7670.c **** 	OV7670_WriteReg(MTX2,&reg4f5054val);	//色彩矩阵系数2 
 505              		.loc 1 136 2 is_stmt 1 view .LVU125
 506 0048 2146     		mov	r1, r4
 507 004a 5020     		movs	r0, #80
 508 004c FFF7FEFF 		bl	OV7670_WriteReg
 509              	.LVL29:
 137:BSP/Camera/ov7670.c **** 	OV7670_WriteReg(MTX3,0X00);			//色彩矩阵系数3  
 510              		.loc 1 137 2 view .LVU126
 511 0050 0021     		movs	r1, #0
 512 0052 5120     		movs	r0, #81
 513 0054 FFF7FEFF 		bl	OV7670_WriteReg
 514              	.LVL30:
 138:BSP/Camera/ov7670.c **** 	OV7670_WriteReg(MTX4,&reg52val);		//色彩矩阵系数4 
 515              		.loc 1 138 2 view .LVU127
 516 0058 0DF10601 		add	r1, sp, #6
 517 005c 5220     		movs	r0, #82
 518 005e FFF7FEFF 		bl	OV7670_WriteReg
 519              	.LVL31:
 139:BSP/Camera/ov7670.c **** 	OV7670_WriteReg(MTX5,&reg53val);		//色彩矩阵系数5 
 520              		.loc 1 139 2 view .LVU128
 521 0062 0DF10501 		add	r1, sp, #5
 522 0066 5320     		movs	r0, #83
ARM GAS  /var/folders/g1/j12m_ky910s3_sv7d4yrsdn00000gn/T//ccqHweuV.s 			page 13


 523 0068 FFF7FEFF 		bl	OV7670_WriteReg
 524              	.LVL32:
 140:BSP/Camera/ov7670.c **** 	OV7670_WriteReg(MTX6,&reg4f5054val);	//色彩矩阵系数6  
 525              		.loc 1 140 2 view .LVU129
 526 006c 2146     		mov	r1, r4
 527 006e 5420     		movs	r0, #84
 528 0070 FFF7FEFF 		bl	OV7670_WriteReg
 529              	.LVL33:
 141:BSP/Camera/ov7670.c **** 	OV7670_WriteReg(MTXS,&reg54val);			//MTXS 
 530              		.loc 1 141 2 view .LVU130
 531 0074 01A9     		add	r1, sp, #4
 532 0076 5820     		movs	r0, #88
 533 0078 FFF7FEFF 		bl	OV7670_WriteReg
 534              	.LVL34:
 142:BSP/Camera/ov7670.c **** }
 535              		.loc 1 142 1 is_stmt 0 view .LVU131
 536 007c 02B0     		add	sp, sp, #8
 537              	.LCFI17:
 538              		.cfi_remember_state
 539              		.cfi_def_cfa_offset 8
 540              		@ sp needed
 541 007e 10BD     		pop	{r4, pc}
 542              	.LVL35:
 543              	.L40:
 544              	.LCFI18:
 545              		.cfi_restore_state
 120:BSP/Camera/ov7670.c **** 			reg52val=0X1B;
 546              		.loc 1 120 4 is_stmt 1 view .LVU132
 120:BSP/Camera/ov7670.c **** 			reg52val=0X1B;
 547              		.loc 1 120 16 is_stmt 0 view .LVU133
 548 0080 6623     		movs	r3, #102
 549 0082 8DF80730 		strb	r3, [sp, #7]
 121:BSP/Camera/ov7670.c **** 			reg53val=0X4B;	  
 550              		.loc 1 121 4 is_stmt 1 view .LVU134
 121:BSP/Camera/ov7670.c **** 			reg53val=0X4B;	  
 551              		.loc 1 121 12 is_stmt 0 view .LVU135
 552 0086 1B23     		movs	r3, #27
 553 0088 8DF80630 		strb	r3, [sp, #6]
 122:BSP/Camera/ov7670.c **** 			break;	
 554              		.loc 1 122 4 is_stmt 1 view .LVU136
 122:BSP/Camera/ov7670.c **** 			break;	
 555              		.loc 1 122 12 is_stmt 0 view .LVU137
 556 008c 4B23     		movs	r3, #75
 557 008e 8DF80530 		strb	r3, [sp, #5]
 123:BSP/Camera/ov7670.c **** 		case 3://1
 558              		.loc 1 123 4 is_stmt 1 view .LVU138
 559 0092 D3E7     		b	.L36
 560              	.L39:
 125:BSP/Camera/ov7670.c **** 			reg52val=0X28;
 561              		.loc 1 125 4 view .LVU139
 125:BSP/Camera/ov7670.c **** 			reg52val=0X28;
 562              		.loc 1 125 16 is_stmt 0 view .LVU140
 563 0094 9923     		movs	r3, #153
 564 0096 8DF80730 		strb	r3, [sp, #7]
 126:BSP/Camera/ov7670.c **** 			reg53val=0X71;	   
 565              		.loc 1 126 4 is_stmt 1 view .LVU141
 126:BSP/Camera/ov7670.c **** 			reg53val=0X71;	   
ARM GAS  /var/folders/g1/j12m_ky910s3_sv7d4yrsdn00000gn/T//ccqHweuV.s 			page 14


 566              		.loc 1 126 12 is_stmt 0 view .LVU142
 567 009a 2823     		movs	r3, #40
 568 009c 8DF80630 		strb	r3, [sp, #6]
 127:BSP/Camera/ov7670.c **** 			break;	
 569              		.loc 1 127 4 is_stmt 1 view .LVU143
 127:BSP/Camera/ov7670.c **** 			break;	
 570              		.loc 1 127 12 is_stmt 0 view .LVU144
 571 00a0 7123     		movs	r3, #113
 572 00a2 8DF80530 		strb	r3, [sp, #5]
 128:BSP/Camera/ov7670.c **** 		case 4://2
 573              		.loc 1 128 4 is_stmt 1 view .LVU145
 574 00a6 C9E7     		b	.L36
 575              	.L37:
 130:BSP/Camera/ov7670.c **** 			reg52val=0X33;
 576              		.loc 1 130 4 view .LVU146
 130:BSP/Camera/ov7670.c **** 			reg52val=0X33;
 577              		.loc 1 130 16 is_stmt 0 view .LVU147
 578 00a8 C023     		movs	r3, #192
 579 00aa 8DF80730 		strb	r3, [sp, #7]
 131:BSP/Camera/ov7670.c **** 			reg53val=0X8D;	   
 580              		.loc 1 131 4 is_stmt 1 view .LVU148
 131:BSP/Camera/ov7670.c **** 			reg53val=0X8D;	   
 581              		.loc 1 131 12 is_stmt 0 view .LVU149
 582 00ae 3323     		movs	r3, #51
 583 00b0 8DF80630 		strb	r3, [sp, #6]
 132:BSP/Camera/ov7670.c **** 			break;	
 584              		.loc 1 132 4 is_stmt 1 view .LVU150
 132:BSP/Camera/ov7670.c **** 			break;	
 585              		.loc 1 132 12 is_stmt 0 view .LVU151
 586 00b4 8D23     		movs	r3, #141
 587 00b6 8DF80530 		strb	r3, [sp, #5]
 133:BSP/Camera/ov7670.c **** 	}
 588              		.loc 1 133 4 is_stmt 1 view .LVU152
 589 00ba BFE7     		b	.L36
 590              		.cfi_endproc
 591              	.LFE149:
 593              		.section	.text.OV7670_Brightness,"ax",%progbits
 594              		.align	1
 595              		.global	OV7670_Brightness
 596              		.syntax unified
 597              		.thumb
 598              		.thumb_func
 600              	OV7670_Brightness:
 601              	.LVL36:
 602              	.LFB150:
 143:BSP/Camera/ov7670.c **** 
 144:BSP/Camera/ov7670.c **** //亮度设置
 145:BSP/Camera/ov7670.c **** //0:-2
 146:BSP/Camera/ov7670.c **** //1:-1
 147:BSP/Camera/ov7670.c **** //2,0
 148:BSP/Camera/ov7670.c **** //3,1
 149:BSP/Camera/ov7670.c **** //4,2
 150:BSP/Camera/ov7670.c **** void OV7670_Brightness(uint8_t bright)
 151:BSP/Camera/ov7670.c **** {
 603              		.loc 1 151 1 view -0
 604              		.cfi_startproc
 605              		@ args = 0, pretend = 0, frame = 8
ARM GAS  /var/folders/g1/j12m_ky910s3_sv7d4yrsdn00000gn/T//ccqHweuV.s 			page 15


 606              		@ frame_needed = 0, uses_anonymous_args = 0
 607              		.loc 1 151 1 is_stmt 0 view .LVU154
 608 0000 00B5     		push	{lr}
 609              	.LCFI19:
 610              		.cfi_def_cfa_offset 4
 611              		.cfi_offset 14, -4
 612 0002 83B0     		sub	sp, sp, #12
 613              	.LCFI20:
 614              		.cfi_def_cfa_offset 16
 152:BSP/Camera/ov7670.c **** 	uint8_t reg55val=0X00;//默认就是bright=2
 615              		.loc 1 152 2 is_stmt 1 view .LVU155
 616              		.loc 1 152 10 is_stmt 0 view .LVU156
 617 0004 0023     		movs	r3, #0
 618 0006 8DF80730 		strb	r3, [sp, #7]
 153:BSP/Camera/ov7670.c ****   	switch(bright)
 619              		.loc 1 153 4 is_stmt 1 view .LVU157
 620 000a 0428     		cmp	r0, #4
 621 000c 07D8     		bhi	.L45
 622 000e DFE800F0 		tbb	[pc, r0]
 623              	.L47:
 624 0012 03       		.byte	(.L50-.L47)/2
 625 0013 0E       		.byte	(.L49-.L47)/2
 626 0014 06       		.byte	(.L45-.L47)/2
 627 0015 12       		.byte	(.L48-.L47)/2
 628 0016 16       		.byte	(.L46-.L47)/2
 629 0017 00       		.p2align 1
 630              	.L50:
 154:BSP/Camera/ov7670.c **** 	{
 155:BSP/Camera/ov7670.c **** 		case 0://-2
 156:BSP/Camera/ov7670.c **** 			reg55val=0XB0;	 	 
 631              		.loc 1 156 4 view .LVU158
 632              		.loc 1 156 12 is_stmt 0 view .LVU159
 633 0018 B023     		movs	r3, #176
 634 001a 8DF80730 		strb	r3, [sp, #7]
 157:BSP/Camera/ov7670.c **** 			break;	
 635              		.loc 1 157 4 is_stmt 1 view .LVU160
 636              	.L45:
 158:BSP/Camera/ov7670.c **** 		case 1://-1
 159:BSP/Camera/ov7670.c **** 			reg55val=0X98;	 	 
 160:BSP/Camera/ov7670.c **** 			break;	
 161:BSP/Camera/ov7670.c **** 		case 3://1
 162:BSP/Camera/ov7670.c **** 			reg55val=0X18;	 	 
 163:BSP/Camera/ov7670.c **** 			break;	
 164:BSP/Camera/ov7670.c **** 		case 4://2
 165:BSP/Camera/ov7670.c **** 			reg55val=0X30;	 	 
 166:BSP/Camera/ov7670.c **** 			break;	
 167:BSP/Camera/ov7670.c **** 	}
 168:BSP/Camera/ov7670.c **** 	OV7670_WriteReg(REG_BRIGHT,&reg55val);	//亮度调节 
 637              		.loc 1 168 2 view .LVU161
 638 001e 0DF10701 		add	r1, sp, #7
 639 0022 5520     		movs	r0, #85
 640              	.LVL37:
 641              		.loc 1 168 2 is_stmt 0 view .LVU162
 642 0024 FFF7FEFF 		bl	OV7670_WriteReg
 643              	.LVL38:
 169:BSP/Camera/ov7670.c **** }
 644              		.loc 1 169 1 view .LVU163
ARM GAS  /var/folders/g1/j12m_ky910s3_sv7d4yrsdn00000gn/T//ccqHweuV.s 			page 16


 645 0028 03B0     		add	sp, sp, #12
 646              	.LCFI21:
 647              		.cfi_remember_state
 648              		.cfi_def_cfa_offset 4
 649              		@ sp needed
 650 002a 5DF804FB 		ldr	pc, [sp], #4
 651              	.LVL39:
 652              	.L49:
 653              	.LCFI22:
 654              		.cfi_restore_state
 159:BSP/Camera/ov7670.c **** 			break;	
 655              		.loc 1 159 4 is_stmt 1 view .LVU164
 159:BSP/Camera/ov7670.c **** 			break;	
 656              		.loc 1 159 12 is_stmt 0 view .LVU165
 657 002e 9823     		movs	r3, #152
 658 0030 8DF80730 		strb	r3, [sp, #7]
 160:BSP/Camera/ov7670.c **** 		case 3://1
 659              		.loc 1 160 4 is_stmt 1 view .LVU166
 660 0034 F3E7     		b	.L45
 661              	.L48:
 162:BSP/Camera/ov7670.c **** 			break;	
 662              		.loc 1 162 4 view .LVU167
 162:BSP/Camera/ov7670.c **** 			break;	
 663              		.loc 1 162 12 is_stmt 0 view .LVU168
 664 0036 1823     		movs	r3, #24
 665 0038 8DF80730 		strb	r3, [sp, #7]
 163:BSP/Camera/ov7670.c **** 		case 4://2
 666              		.loc 1 163 4 is_stmt 1 view .LVU169
 667 003c EFE7     		b	.L45
 668              	.L46:
 165:BSP/Camera/ov7670.c **** 			break;	
 669              		.loc 1 165 4 view .LVU170
 165:BSP/Camera/ov7670.c **** 			break;	
 670              		.loc 1 165 12 is_stmt 0 view .LVU171
 671 003e 3023     		movs	r3, #48
 672 0040 8DF80730 		strb	r3, [sp, #7]
 166:BSP/Camera/ov7670.c **** 	}
 673              		.loc 1 166 4 is_stmt 1 view .LVU172
 674 0044 EBE7     		b	.L45
 675              		.cfi_endproc
 676              	.LFE150:
 678              		.section	.text.OV7670_Contrast,"ax",%progbits
 679              		.align	1
 680              		.global	OV7670_Contrast
 681              		.syntax unified
 682              		.thumb
 683              		.thumb_func
 685              	OV7670_Contrast:
 686              	.LVL40:
 687              	.LFB151:
 170:BSP/Camera/ov7670.c **** 
 171:BSP/Camera/ov7670.c **** //对比度设置
 172:BSP/Camera/ov7670.c **** //0:-2
 173:BSP/Camera/ov7670.c **** //1:-1
 174:BSP/Camera/ov7670.c **** //2,0
 175:BSP/Camera/ov7670.c **** //3,1
 176:BSP/Camera/ov7670.c **** //4,2
ARM GAS  /var/folders/g1/j12m_ky910s3_sv7d4yrsdn00000gn/T//ccqHweuV.s 			page 17


 177:BSP/Camera/ov7670.c **** void OV7670_Contrast(uint8_t contrast)
 178:BSP/Camera/ov7670.c **** {
 688              		.loc 1 178 1 view -0
 689              		.cfi_startproc
 690              		@ args = 0, pretend = 0, frame = 8
 691              		@ frame_needed = 0, uses_anonymous_args = 0
 692              		.loc 1 178 1 is_stmt 0 view .LVU174
 693 0000 00B5     		push	{lr}
 694              	.LCFI23:
 695              		.cfi_def_cfa_offset 4
 696              		.cfi_offset 14, -4
 697 0002 83B0     		sub	sp, sp, #12
 698              	.LCFI24:
 699              		.cfi_def_cfa_offset 16
 179:BSP/Camera/ov7670.c **** 	uint8_t reg56val=0X40;//默认就是contrast=2
 700              		.loc 1 179 2 is_stmt 1 view .LVU175
 701              		.loc 1 179 10 is_stmt 0 view .LVU176
 702 0004 4023     		movs	r3, #64
 703 0006 8DF80730 		strb	r3, [sp, #7]
 180:BSP/Camera/ov7670.c ****   	switch(contrast)
 704              		.loc 1 180 4 is_stmt 1 view .LVU177
 705 000a 0428     		cmp	r0, #4
 706 000c 07D8     		bhi	.L54
 707 000e DFE800F0 		tbb	[pc, r0]
 708              	.L56:
 709 0012 03       		.byte	(.L59-.L56)/2
 710 0013 0E       		.byte	(.L58-.L56)/2
 711 0014 06       		.byte	(.L54-.L56)/2
 712 0015 12       		.byte	(.L57-.L56)/2
 713 0016 16       		.byte	(.L55-.L56)/2
 714 0017 00       		.p2align 1
 715              	.L59:
 181:BSP/Camera/ov7670.c **** 	{
 182:BSP/Camera/ov7670.c **** 		case 0://-2
 183:BSP/Camera/ov7670.c **** 			reg56val=0X30;	 	 
 716              		.loc 1 183 4 view .LVU178
 717              		.loc 1 183 12 is_stmt 0 view .LVU179
 718 0018 3023     		movs	r3, #48
 719 001a 8DF80730 		strb	r3, [sp, #7]
 184:BSP/Camera/ov7670.c **** 			break;	
 720              		.loc 1 184 4 is_stmt 1 view .LVU180
 721              	.L54:
 185:BSP/Camera/ov7670.c **** 		case 1://-1
 186:BSP/Camera/ov7670.c **** 			reg56val=0X38;	 	 
 187:BSP/Camera/ov7670.c **** 			break;	
 188:BSP/Camera/ov7670.c **** 		case 3://1
 189:BSP/Camera/ov7670.c **** 			reg56val=0X50;	 	 
 190:BSP/Camera/ov7670.c **** 			break;	
 191:BSP/Camera/ov7670.c **** 		case 4://2
 192:BSP/Camera/ov7670.c **** 			reg56val=0X60;	 	 
 193:BSP/Camera/ov7670.c **** 			break;	
 194:BSP/Camera/ov7670.c **** 	}
 195:BSP/Camera/ov7670.c **** 	OV7670_WriteReg(REG_CONTRAS,&reg56val);	//对比度调节 
 722              		.loc 1 195 2 view .LVU181
 723 001e 0DF10701 		add	r1, sp, #7
 724 0022 5620     		movs	r0, #86
 725              	.LVL41:
ARM GAS  /var/folders/g1/j12m_ky910s3_sv7d4yrsdn00000gn/T//ccqHweuV.s 			page 18


 726              		.loc 1 195 2 is_stmt 0 view .LVU182
 727 0024 FFF7FEFF 		bl	OV7670_WriteReg
 728              	.LVL42:
 196:BSP/Camera/ov7670.c **** }
 729              		.loc 1 196 1 view .LVU183
 730 0028 03B0     		add	sp, sp, #12
 731              	.LCFI25:
 732              		.cfi_remember_state
 733              		.cfi_def_cfa_offset 4
 734              		@ sp needed
 735 002a 5DF804FB 		ldr	pc, [sp], #4
 736              	.LVL43:
 737              	.L58:
 738              	.LCFI26:
 739              		.cfi_restore_state
 186:BSP/Camera/ov7670.c **** 			break;	
 740              		.loc 1 186 4 is_stmt 1 view .LVU184
 186:BSP/Camera/ov7670.c **** 			break;	
 741              		.loc 1 186 12 is_stmt 0 view .LVU185
 742 002e 3823     		movs	r3, #56
 743 0030 8DF80730 		strb	r3, [sp, #7]
 187:BSP/Camera/ov7670.c **** 		case 3://1
 744              		.loc 1 187 4 is_stmt 1 view .LVU186
 745 0034 F3E7     		b	.L54
 746              	.L57:
 189:BSP/Camera/ov7670.c **** 			break;	
 747              		.loc 1 189 4 view .LVU187
 189:BSP/Camera/ov7670.c **** 			break;	
 748              		.loc 1 189 12 is_stmt 0 view .LVU188
 749 0036 5023     		movs	r3, #80
 750 0038 8DF80730 		strb	r3, [sp, #7]
 190:BSP/Camera/ov7670.c **** 		case 4://2
 751              		.loc 1 190 4 is_stmt 1 view .LVU189
 752 003c EFE7     		b	.L54
 753              	.L55:
 192:BSP/Camera/ov7670.c **** 			break;	
 754              		.loc 1 192 4 view .LVU190
 192:BSP/Camera/ov7670.c **** 			break;	
 755              		.loc 1 192 12 is_stmt 0 view .LVU191
 756 003e 6023     		movs	r3, #96
 757 0040 8DF80730 		strb	r3, [sp, #7]
 193:BSP/Camera/ov7670.c **** 	}
 758              		.loc 1 193 4 is_stmt 1 view .LVU192
 759 0044 EBE7     		b	.L54
 760              		.cfi_endproc
 761              	.LFE151:
 763              		.section	.text.OV7670_Special_Effects,"ax",%progbits
 764              		.align	1
 765              		.global	OV7670_Special_Effects
 766              		.syntax unified
 767              		.thumb
 768              		.thumb_func
 770              	OV7670_Special_Effects:
 771              	.LVL44:
 772              	.LFB152:
 197:BSP/Camera/ov7670.c **** 
 198:BSP/Camera/ov7670.c **** //特效设置
ARM GAS  /var/folders/g1/j12m_ky910s3_sv7d4yrsdn00000gn/T//ccqHweuV.s 			page 19


 199:BSP/Camera/ov7670.c **** //0:普通模式    
 200:BSP/Camera/ov7670.c **** //1,负片
 201:BSP/Camera/ov7670.c **** //2,黑白   
 202:BSP/Camera/ov7670.c **** //3,偏红色
 203:BSP/Camera/ov7670.c **** //4,偏绿色
 204:BSP/Camera/ov7670.c **** //5,偏蓝色
 205:BSP/Camera/ov7670.c **** //6,复古	    
 206:BSP/Camera/ov7670.c **** void OV7670_Special_Effects(uint8_t eft)
 207:BSP/Camera/ov7670.c **** {
 773              		.loc 1 207 1 view -0
 774              		.cfi_startproc
 775              		@ args = 0, pretend = 0, frame = 8
 776              		@ frame_needed = 0, uses_anonymous_args = 0
 777              		.loc 1 207 1 is_stmt 0 view .LVU194
 778 0000 00B5     		push	{lr}
 779              	.LCFI27:
 780              		.cfi_def_cfa_offset 4
 781              		.cfi_offset 14, -4
 782 0002 83B0     		sub	sp, sp, #12
 783              	.LCFI28:
 784              		.cfi_def_cfa_offset 16
 208:BSP/Camera/ov7670.c **** 	uint8_t reg3aval=0X04;//默认为普通模式
 785              		.loc 1 208 2 is_stmt 1 view .LVU195
 786              		.loc 1 208 10 is_stmt 0 view .LVU196
 787 0004 0423     		movs	r3, #4
 788 0006 8DF80730 		strb	r3, [sp, #7]
 209:BSP/Camera/ov7670.c **** 	uint8_t reg67val=0XC0;
 789              		.loc 1 209 2 is_stmt 1 view .LVU197
 790              		.loc 1 209 10 is_stmt 0 view .LVU198
 791 000a C023     		movs	r3, #192
 792 000c 8DF80630 		strb	r3, [sp, #6]
 210:BSP/Camera/ov7670.c **** 	uint8_t reg68val=0X80;
 793              		.loc 1 210 2 is_stmt 1 view .LVU199
 794              		.loc 1 210 10 is_stmt 0 view .LVU200
 795 0010 8023     		movs	r3, #128
 796 0012 8DF80530 		strb	r3, [sp, #5]
 211:BSP/Camera/ov7670.c **** 	switch(eft)
 797              		.loc 1 211 2 is_stmt 1 view .LVU201
 798 0016 0138     		subs	r0, r0, #1
 799              	.LVL45:
 800              		.loc 1 211 2 is_stmt 0 view .LVU202
 801 0018 0528     		cmp	r0, #5
 802 001a 0AD8     		bhi	.L63
 803 001c DFE800F0 		tbb	[pc, r0]
 804              	.L65:
 805 0020 03       		.byte	(.L70-.L65)/2
 806 0021 1B       		.byte	(.L69-.L65)/2
 807 0022 22       		.byte	(.L68-.L65)/2
 808 0023 26       		.byte	(.L67-.L65)/2
 809 0024 2F       		.byte	(.L66-.L65)/2
 810 0025 39       		.byte	(.L64-.L65)/2
 811              		.p2align 1
 812              	.L70:
 212:BSP/Camera/ov7670.c **** 	{
 213:BSP/Camera/ov7670.c **** 		case 1://负片
 214:BSP/Camera/ov7670.c **** 			reg3aval=0X24;
 813              		.loc 1 214 4 is_stmt 1 view .LVU203
ARM GAS  /var/folders/g1/j12m_ky910s3_sv7d4yrsdn00000gn/T//ccqHweuV.s 			page 20


 814              		.loc 1 214 12 is_stmt 0 view .LVU204
 815 0026 2423     		movs	r3, #36
 816 0028 8DF80730 		strb	r3, [sp, #7]
 215:BSP/Camera/ov7670.c **** 			reg67val=0X80;
 817              		.loc 1 215 4 is_stmt 1 view .LVU205
 818              		.loc 1 215 12 is_stmt 0 view .LVU206
 819 002c 8023     		movs	r3, #128
 820 002e 8DF80630 		strb	r3, [sp, #6]
 216:BSP/Camera/ov7670.c **** 			reg68val=0X80;
 821              		.loc 1 216 4 is_stmt 1 view .LVU207
 217:BSP/Camera/ov7670.c **** 			break;	
 822              		.loc 1 217 4 view .LVU208
 823              	.L63:
 218:BSP/Camera/ov7670.c **** 		case 2://黑白
 219:BSP/Camera/ov7670.c **** 			reg3aval=0X14;
 220:BSP/Camera/ov7670.c **** 			reg67val=0X80;
 221:BSP/Camera/ov7670.c **** 			reg68val=0X80;
 222:BSP/Camera/ov7670.c **** 			break;	
 223:BSP/Camera/ov7670.c **** 		case 3://偏红色
 224:BSP/Camera/ov7670.c **** 			reg3aval=0X14;
 225:BSP/Camera/ov7670.c **** 			reg67val=0Xc0;
 226:BSP/Camera/ov7670.c **** 			reg68val=0X80;
 227:BSP/Camera/ov7670.c **** 			break;	
 228:BSP/Camera/ov7670.c **** 		case 4://偏绿色
 229:BSP/Camera/ov7670.c **** 			reg3aval=0X14;
 230:BSP/Camera/ov7670.c **** 			reg67val=0X40;
 231:BSP/Camera/ov7670.c **** 			reg68val=0X40;
 232:BSP/Camera/ov7670.c **** 			break;	
 233:BSP/Camera/ov7670.c **** 		case 5://偏蓝色
 234:BSP/Camera/ov7670.c **** 			reg3aval=0X14;
 235:BSP/Camera/ov7670.c **** 			reg67val=0X80;
 236:BSP/Camera/ov7670.c **** 			reg68val=0XC0;
 237:BSP/Camera/ov7670.c **** 			break;	
 238:BSP/Camera/ov7670.c **** 		case 6://复古
 239:BSP/Camera/ov7670.c **** 			reg3aval=0X14;
 240:BSP/Camera/ov7670.c **** 			reg67val=0XA0;
 241:BSP/Camera/ov7670.c **** 			reg68val=0X40;
 242:BSP/Camera/ov7670.c **** 			break;	 
 243:BSP/Camera/ov7670.c **** 	}
 244:BSP/Camera/ov7670.c **** 	OV7670_WriteReg(REG_TSLB,&reg3aval);//TSLB设置 
 824              		.loc 1 244 2 view .LVU209
 825 0032 0DF10701 		add	r1, sp, #7
 826 0036 3A20     		movs	r0, #58
 827              	.LVL46:
 828              		.loc 1 244 2 is_stmt 0 view .LVU210
 829 0038 FFF7FEFF 		bl	OV7670_WriteReg
 830              	.LVL47:
 245:BSP/Camera/ov7670.c **** 	OV7670_WriteReg(0X68,&reg67val);//MANU,手动U值 
 831              		.loc 1 245 2 is_stmt 1 view .LVU211
 832 003c 0DF10601 		add	r1, sp, #6
 833 0040 6820     		movs	r0, #104
 834 0042 FFF7FEFF 		bl	OV7670_WriteReg
 835              	.LVL48:
 246:BSP/Camera/ov7670.c **** 	OV7670_WriteReg(0X67,&reg68val);//MANV,手动V值 
 836              		.loc 1 246 2 view .LVU212
 837 0046 0DF10501 		add	r1, sp, #5
 838 004a 6720     		movs	r0, #103
ARM GAS  /var/folders/g1/j12m_ky910s3_sv7d4yrsdn00000gn/T//ccqHweuV.s 			page 21


 839 004c FFF7FEFF 		bl	OV7670_WriteReg
 840              	.LVL49:
 247:BSP/Camera/ov7670.c **** }
 841              		.loc 1 247 1 is_stmt 0 view .LVU213
 842 0050 03B0     		add	sp, sp, #12
 843              	.LCFI29:
 844              		.cfi_remember_state
 845              		.cfi_def_cfa_offset 4
 846              		@ sp needed
 847 0052 5DF804FB 		ldr	pc, [sp], #4
 848              	.L69:
 849              	.LCFI30:
 850              		.cfi_restore_state
 219:BSP/Camera/ov7670.c **** 			reg67val=0X80;
 851              		.loc 1 219 4 is_stmt 1 view .LVU214
 219:BSP/Camera/ov7670.c **** 			reg67val=0X80;
 852              		.loc 1 219 12 is_stmt 0 view .LVU215
 853 0056 1423     		movs	r3, #20
 854 0058 8DF80730 		strb	r3, [sp, #7]
 220:BSP/Camera/ov7670.c **** 			reg68val=0X80;
 855              		.loc 1 220 4 is_stmt 1 view .LVU216
 220:BSP/Camera/ov7670.c **** 			reg68val=0X80;
 856              		.loc 1 220 12 is_stmt 0 view .LVU217
 857 005c 8023     		movs	r3, #128
 858 005e 8DF80630 		strb	r3, [sp, #6]
 221:BSP/Camera/ov7670.c **** 			break;	
 859              		.loc 1 221 4 is_stmt 1 view .LVU218
 222:BSP/Camera/ov7670.c **** 		case 3://偏红色
 860              		.loc 1 222 4 view .LVU219
 861 0062 E6E7     		b	.L63
 862              	.L68:
 224:BSP/Camera/ov7670.c **** 			reg67val=0Xc0;
 863              		.loc 1 224 4 view .LVU220
 224:BSP/Camera/ov7670.c **** 			reg67val=0Xc0;
 864              		.loc 1 224 12 is_stmt 0 view .LVU221
 865 0064 1423     		movs	r3, #20
 866 0066 8DF80730 		strb	r3, [sp, #7]
 225:BSP/Camera/ov7670.c **** 			reg68val=0X80;
 867              		.loc 1 225 4 is_stmt 1 view .LVU222
 226:BSP/Camera/ov7670.c **** 			break;	
 868              		.loc 1 226 4 view .LVU223
 227:BSP/Camera/ov7670.c **** 		case 4://偏绿色
 869              		.loc 1 227 4 view .LVU224
 870 006a E2E7     		b	.L63
 871              	.L67:
 229:BSP/Camera/ov7670.c **** 			reg67val=0X40;
 872              		.loc 1 229 4 view .LVU225
 229:BSP/Camera/ov7670.c **** 			reg67val=0X40;
 873              		.loc 1 229 12 is_stmt 0 view .LVU226
 874 006c 1423     		movs	r3, #20
 875 006e 8DF80730 		strb	r3, [sp, #7]
 230:BSP/Camera/ov7670.c **** 			reg68val=0X40;
 876              		.loc 1 230 4 is_stmt 1 view .LVU227
 230:BSP/Camera/ov7670.c **** 			reg68val=0X40;
 877              		.loc 1 230 12 is_stmt 0 view .LVU228
 878 0072 4023     		movs	r3, #64
 879 0074 8DF80630 		strb	r3, [sp, #6]
ARM GAS  /var/folders/g1/j12m_ky910s3_sv7d4yrsdn00000gn/T//ccqHweuV.s 			page 22


 231:BSP/Camera/ov7670.c **** 			break;	
 880              		.loc 1 231 4 is_stmt 1 view .LVU229
 231:BSP/Camera/ov7670.c **** 			break;	
 881              		.loc 1 231 12 is_stmt 0 view .LVU230
 882 0078 8DF80530 		strb	r3, [sp, #5]
 232:BSP/Camera/ov7670.c **** 		case 5://偏蓝色
 883              		.loc 1 232 4 is_stmt 1 view .LVU231
 884 007c D9E7     		b	.L63
 885              	.L66:
 234:BSP/Camera/ov7670.c **** 			reg67val=0X80;
 886              		.loc 1 234 4 view .LVU232
 234:BSP/Camera/ov7670.c **** 			reg67val=0X80;
 887              		.loc 1 234 12 is_stmt 0 view .LVU233
 888 007e 1423     		movs	r3, #20
 889 0080 8DF80730 		strb	r3, [sp, #7]
 235:BSP/Camera/ov7670.c **** 			reg68val=0XC0;
 890              		.loc 1 235 4 is_stmt 1 view .LVU234
 235:BSP/Camera/ov7670.c **** 			reg68val=0XC0;
 891              		.loc 1 235 12 is_stmt 0 view .LVU235
 892 0084 8023     		movs	r3, #128
 893 0086 8DF80630 		strb	r3, [sp, #6]
 236:BSP/Camera/ov7670.c **** 			break;	
 894              		.loc 1 236 4 is_stmt 1 view .LVU236
 236:BSP/Camera/ov7670.c **** 			break;	
 895              		.loc 1 236 12 is_stmt 0 view .LVU237
 896 008a C023     		movs	r3, #192
 897 008c 8DF80530 		strb	r3, [sp, #5]
 237:BSP/Camera/ov7670.c **** 		case 6://复古
 898              		.loc 1 237 4 is_stmt 1 view .LVU238
 899 0090 CFE7     		b	.L63
 900              	.L64:
 239:BSP/Camera/ov7670.c **** 			reg67val=0XA0;
 901              		.loc 1 239 4 view .LVU239
 239:BSP/Camera/ov7670.c **** 			reg67val=0XA0;
 902              		.loc 1 239 12 is_stmt 0 view .LVU240
 903 0092 1423     		movs	r3, #20
 904 0094 8DF80730 		strb	r3, [sp, #7]
 240:BSP/Camera/ov7670.c **** 			reg68val=0X40;
 905              		.loc 1 240 4 is_stmt 1 view .LVU241
 240:BSP/Camera/ov7670.c **** 			reg68val=0X40;
 906              		.loc 1 240 12 is_stmt 0 view .LVU242
 907 0098 A023     		movs	r3, #160
 908 009a 8DF80630 		strb	r3, [sp, #6]
 241:BSP/Camera/ov7670.c **** 			break;	 
 909              		.loc 1 241 4 is_stmt 1 view .LVU243
 241:BSP/Camera/ov7670.c **** 			break;	 
 910              		.loc 1 241 12 is_stmt 0 view .LVU244
 911 009e 4023     		movs	r3, #64
 912 00a0 8DF80530 		strb	r3, [sp, #5]
 242:BSP/Camera/ov7670.c **** 	}
 913              		.loc 1 242 4 is_stmt 1 view .LVU245
 914 00a4 C5E7     		b	.L63
 915              		.cfi_endproc
 916              	.LFE152:
 918              		.section	.text.ov7670_Window_Set,"ax",%progbits
 919              		.align	1
 920              		.global	ov7670_Window_Set
ARM GAS  /var/folders/g1/j12m_ky910s3_sv7d4yrsdn00000gn/T//ccqHweuV.s 			page 23


 921              		.syntax unified
 922              		.thumb
 923              		.thumb_func
 925              	ov7670_Window_Set:
 926              	.LVL50:
 927              	.LFB153:
 248:BSP/Camera/ov7670.c **** 
 249:BSP/Camera/ov7670.c **** //设置图像输出窗口
 250:BSP/Camera/ov7670.c **** //对QVGA设置。
 251:BSP/Camera/ov7670.c **** void ov7670_Window_Set(uint16_t sx,uint16_t sy,uint16_t width,uint16_t height)
 252:BSP/Camera/ov7670.c **** {
 928              		.loc 1 252 1 view -0
 929              		.cfi_startproc
 930              		@ args = 0, pretend = 0, frame = 16
 931              		@ frame_needed = 0, uses_anonymous_args = 0
 932              		.loc 1 252 1 is_stmt 0 view .LVU247
 933 0000 10B5     		push	{r4, lr}
 934              	.LCFI31:
 935              		.cfi_def_cfa_offset 8
 936              		.cfi_offset 4, -8
 937              		.cfi_offset 14, -4
 938 0002 84B0     		sub	sp, sp, #16
 939              	.LCFI32:
 940              		.cfi_def_cfa_offset 24
 941 0004 ADF80600 		strh	r0, [sp, #6]	@ movhi
 942 0008 ADF80410 		strh	r1, [sp, #4]	@ movhi
 253:BSP/Camera/ov7670.c **** 	uint16_t endx;
 943              		.loc 1 253 2 is_stmt 1 view .LVU248
 254:BSP/Camera/ov7670.c **** 	uint16_t endy;
 944              		.loc 1 254 2 view .LVU249
 255:BSP/Camera/ov7670.c **** 	uint8_t temp; 
 945              		.loc 1 255 2 view .LVU250
 256:BSP/Camera/ov7670.c **** 	endx=sx+width*2;	//V*2
 946              		.loc 1 256 2 view .LVU251
 947              		.loc 1 256 9 is_stmt 0 view .LVU252
 948 000c 00EB4200 		add	r0, r0, r2, lsl #1
 949              	.LVL51:
 950              		.loc 1 256 6 view .LVU253
 951 0010 ADF80E00 		strh	r0, [sp, #14]	@ movhi
 257:BSP/Camera/ov7670.c ****  	endy=sy+height*2;
 952              		.loc 1 257 3 is_stmt 1 view .LVU254
 953              		.loc 1 257 10 is_stmt 0 view .LVU255
 954 0014 01EB4301 		add	r1, r1, r3, lsl #1
 955              	.LVL52:
 956              		.loc 1 257 10 view .LVU256
 957 0018 89B2     		uxth	r1, r1
 958              		.loc 1 257 7 view .LVU257
 959 001a ADF80C10 		strh	r1, [sp, #12]	@ movhi
 258:BSP/Camera/ov7670.c **** 	if(endy>784) endy-=784;
 960              		.loc 1 258 2 is_stmt 1 view .LVU258
 961              		.loc 1 258 4 is_stmt 0 view .LVU259
 962 001e B1F5447F 		cmp	r1, #784
 963 0022 03D9     		bls	.L74
 964              		.loc 1 258 15 is_stmt 1 discriminator 1 view .LVU260
 965              		.loc 1 258 19 is_stmt 0 discriminator 1 view .LVU261
 966 0024 A1F54471 		sub	r1, r1, #784
 967 0028 ADF80C10 		strh	r1, [sp, #12]	@ movhi
ARM GAS  /var/folders/g1/j12m_ky910s3_sv7d4yrsdn00000gn/T//ccqHweuV.s 			page 24


 968              	.L74:
 259:BSP/Camera/ov7670.c **** 	
 260:BSP/Camera/ov7670.c **** 	OV7670_ReadReg(0X03,&temp);				//读取Vref之前的值
 969              		.loc 1 260 2 is_stmt 1 view .LVU262
 970 002c 0DF10B04 		add	r4, sp, #11
 971 0030 2146     		mov	r1, r4
 972 0032 0320     		movs	r0, #3
 973 0034 FFF7FEFF 		bl	OV7670_ReadReg
 974              	.LVL53:
 261:BSP/Camera/ov7670.c **** 	temp&=0XF0;
 975              		.loc 1 261 2 view .LVU263
 976              		.loc 1 261 6 is_stmt 0 view .LVU264
 977 0038 9DF80B20 		ldrb	r2, [sp, #11]	@ zero_extendqisi2
 978 003c 02F0F002 		and	r2, r2, #240
 979 0040 8DF80B20 		strb	r2, [sp, #11]
 262:BSP/Camera/ov7670.c **** 	temp|=((endx&0X03)<<2)|(sx&0X03);
 980              		.loc 1 262 2 is_stmt 1 view .LVU265
 981              		.loc 1 262 20 is_stmt 0 view .LVU266
 982 0044 BDF80E30 		ldrh	r3, [sp, #14]
 983 0048 9B00     		lsls	r3, r3, #2
 984 004a 03F00C03 		and	r3, r3, #12
 985              		.loc 1 262 28 view .LVU267
 986 004e BDF80610 		ldrh	r1, [sp, #6]
 987 0052 01F00301 		and	r1, r1, #3
 988              		.loc 1 262 24 view .LVU268
 989 0056 0B43     		orrs	r3, r3, r1
 990              		.loc 1 262 6 view .LVU269
 991 0058 1A43     		orrs	r2, r2, r3
 992 005a 8DF80B20 		strb	r2, [sp, #11]
 263:BSP/Camera/ov7670.c **** 	OV7670_WriteReg(0X03,&temp);				//设置Vref的start和end的最低2位
 993              		.loc 1 263 2 is_stmt 1 view .LVU270
 994 005e 2146     		mov	r1, r4
 995 0060 0320     		movs	r0, #3
 996 0062 FFF7FEFF 		bl	OV7670_WriteReg
 997              	.LVL54:
 264:BSP/Camera/ov7670.c **** 	sx = (sx >>2)&0xFF;
 998              		.loc 1 264 2 view .LVU271
 999              		.loc 1 264 15 is_stmt 0 view .LVU272
 1000 0066 BDF80630 		ldrh	r3, [sp, #6]
 1001 006a C3F38703 		ubfx	r3, r3, #2, #8
 1002              		.loc 1 264 5 view .LVU273
 1003 006e ADF80630 		strh	r3, [sp, #6]	@ movhi
 265:BSP/Camera/ov7670.c **** 	endx = (endx >>2)&0xFF;
 1004              		.loc 1 265 2 is_stmt 1 view .LVU274
 1005              		.loc 1 265 19 is_stmt 0 view .LVU275
 1006 0072 BDF80E30 		ldrh	r3, [sp, #14]
 1007 0076 C3F38703 		ubfx	r3, r3, #2, #8
 1008              		.loc 1 265 7 view .LVU276
 1009 007a ADF80E30 		strh	r3, [sp, #14]	@ movhi
 266:BSP/Camera/ov7670.c **** 	OV7670_WriteReg(0X19,(uint8_t *)&sx);			//设置Vref的start高8位
 1010              		.loc 1 266 2 is_stmt 1 view .LVU277
 1011 007e 0DF10601 		add	r1, sp, #6
 1012 0082 1920     		movs	r0, #25
 1013 0084 FFF7FEFF 		bl	OV7670_WriteReg
 1014              	.LVL55:
 267:BSP/Camera/ov7670.c **** 	OV7670_WriteReg(0X1A,(uint8_t *)&endx);			//设置Vref的end的高8位
 1015              		.loc 1 267 2 view .LVU278
ARM GAS  /var/folders/g1/j12m_ky910s3_sv7d4yrsdn00000gn/T//ccqHweuV.s 			page 25


 1016 0088 0DF10E01 		add	r1, sp, #14
 1017 008c 1A20     		movs	r0, #26
 1018 008e FFF7FEFF 		bl	OV7670_WriteReg
 1019              	.LVL56:
 268:BSP/Camera/ov7670.c **** 
 269:BSP/Camera/ov7670.c **** 	OV7670_ReadReg(0X32,&temp);				//读取Href之前的值
 1020              		.loc 1 269 2 view .LVU279
 1021 0092 2146     		mov	r1, r4
 1022 0094 3220     		movs	r0, #50
 1023 0096 FFF7FEFF 		bl	OV7670_ReadReg
 1024              	.LVL57:
 270:BSP/Camera/ov7670.c **** 	temp&=0XC0;
 1025              		.loc 1 270 2 view .LVU280
 1026              		.loc 1 270 6 is_stmt 0 view .LVU281
 1027 009a 9DF80B20 		ldrb	r2, [sp, #11]	@ zero_extendqisi2
 1028 009e 02F0C002 		and	r2, r2, #192
 1029 00a2 8DF80B20 		strb	r2, [sp, #11]
 271:BSP/Camera/ov7670.c **** 	temp|=((endy&0X07)<<3)|(sy&0X07);
 1030              		.loc 1 271 2 is_stmt 1 view .LVU282
 1031              		.loc 1 271 20 is_stmt 0 view .LVU283
 1032 00a6 BDF80C30 		ldrh	r3, [sp, #12]
 1033 00aa DB00     		lsls	r3, r3, #3
 1034 00ac 03F03803 		and	r3, r3, #56
 1035              		.loc 1 271 28 view .LVU284
 1036 00b0 BDF80410 		ldrh	r1, [sp, #4]
 1037 00b4 01F00701 		and	r1, r1, #7
 1038              		.loc 1 271 24 view .LVU285
 1039 00b8 0B43     		orrs	r3, r3, r1
 1040              		.loc 1 271 6 view .LVU286
 1041 00ba 1A43     		orrs	r2, r2, r3
 1042 00bc 8DF80B20 		strb	r2, [sp, #11]
 272:BSP/Camera/ov7670.c **** 	OV7670_WriteReg(0X32,&temp);
 1043              		.loc 1 272 2 is_stmt 1 view .LVU287
 1044 00c0 2146     		mov	r1, r4
 1045 00c2 3220     		movs	r0, #50
 1046 00c4 FFF7FEFF 		bl	OV7670_WriteReg
 1047              	.LVL58:
 273:BSP/Camera/ov7670.c **** 	sy = (sy>>3)&0xFF;
 1048              		.loc 1 273 2 view .LVU288
 1049              		.loc 1 273 14 is_stmt 0 view .LVU289
 1050 00c8 BDF80430 		ldrh	r3, [sp, #4]
 1051 00cc C3F3C703 		ubfx	r3, r3, #3, #8
 1052              		.loc 1 273 5 view .LVU290
 1053 00d0 ADF80430 		strh	r3, [sp, #4]	@ movhi
 274:BSP/Camera/ov7670.c **** 	OV7670_WriteReg(0X17,(uint8_t *)&sy);			//设置Href的start高8位
 1054              		.loc 1 274 2 is_stmt 1 view .LVU291
 1055 00d4 01A9     		add	r1, sp, #4
 1056 00d6 1720     		movs	r0, #23
 1057 00d8 FFF7FEFF 		bl	OV7670_WriteReg
 1058              	.LVL59:
 275:BSP/Camera/ov7670.c **** 	endy = (endy>>3)&0xFF;
 1059              		.loc 1 275 2 view .LVU292
 1060              		.loc 1 275 18 is_stmt 0 view .LVU293
 1061 00dc BDF80C30 		ldrh	r3, [sp, #12]
 1062 00e0 C3F3C703 		ubfx	r3, r3, #3, #8
 1063              		.loc 1 275 7 view .LVU294
 1064 00e4 ADF80C30 		strh	r3, [sp, #12]	@ movhi
ARM GAS  /var/folders/g1/j12m_ky910s3_sv7d4yrsdn00000gn/T//ccqHweuV.s 			page 26


 276:BSP/Camera/ov7670.c **** 	OV7670_WriteReg(0X18,(uint8_t *)&endy);			//设置Href的end的高8位
 1065              		.loc 1 276 2 is_stmt 1 view .LVU295
 1066 00e8 03A9     		add	r1, sp, #12
 1067 00ea 1820     		movs	r0, #24
 1068 00ec FFF7FEFF 		bl	OV7670_WriteReg
 1069              	.LVL60:
 277:BSP/Camera/ov7670.c **** }
 1070              		.loc 1 277 1 is_stmt 0 view .LVU296
 1071 00f0 04B0     		add	sp, sp, #16
 1072              	.LCFI33:
 1073              		.cfi_def_cfa_offset 8
 1074              		@ sp needed
 1075 00f2 10BD     		pop	{r4, pc}
 1076              		.cfi_endproc
 1077              	.LFE153:
 1079              		.section	.text.OV7670_Config,"ax",%progbits
 1080              		.align	1
 1081              		.global	OV7670_Config
 1082              		.syntax unified
 1083              		.thumb
 1084              		.thumb_func
 1086              	OV7670_Config:
 1087              	.LFB154:
 278:BSP/Camera/ov7670.c **** 
 279:BSP/Camera/ov7670.c **** int OV7670_Config(void)
 280:BSP/Camera/ov7670.c **** {
 1088              		.loc 1 280 1 is_stmt 1 view -0
 1089              		.cfi_startproc
 1090              		@ args = 0, pretend = 0, frame = 8
 1091              		@ frame_needed = 0, uses_anonymous_args = 0
 1092 0000 10B5     		push	{r4, lr}
 1093              	.LCFI34:
 1094              		.cfi_def_cfa_offset 8
 1095              		.cfi_offset 4, -8
 1096              		.cfi_offset 14, -4
 1097 0002 82B0     		sub	sp, sp, #8
 1098              	.LCFI35:
 1099              		.cfi_def_cfa_offset 16
 281:BSP/Camera/ov7670.c **** 	int ov_reset_result = OV7670_Reset();
 1100              		.loc 1 281 2 view .LVU298
 1101              		.loc 1 281 24 is_stmt 0 view .LVU299
 1102 0004 FFF7FEFF 		bl	OV7670_Reset
 1103              	.LVL61:
 282:BSP/Camera/ov7670.c **** 	if (ov_reset_result != OV7670_OK)
 1104              		.loc 1 282 2 is_stmt 1 view .LVU300
 1105              		.loc 1 282 5 is_stmt 0 view .LVU301
 1106 0008 0446     		mov	r4, r0
 1107 000a 10B1     		cbz	r0, .L79
 1108              	.LVL62:
 1109              	.L76:
 283:BSP/Camera/ov7670.c **** 	{
 284:BSP/Camera/ov7670.c **** 		return ov_reset_result;
 285:BSP/Camera/ov7670.c **** 	}
 286:BSP/Camera/ov7670.c **** 	int ov_read_reg_result = OV7670_ERROR;
 287:BSP/Camera/ov7670.c **** 	int ov_write_reg_result = OV7670_ERROR;
 288:BSP/Camera/ov7670.c **** 
 289:BSP/Camera/ov7670.c **** 	ov_write_reg_result = OV7670_WriteRegList( ov7670_default_regs);
ARM GAS  /var/folders/g1/j12m_ky910s3_sv7d4yrsdn00000gn/T//ccqHweuV.s 			page 27


 290:BSP/Camera/ov7670.c **** 	if (ov_write_reg_result != OV7670_OK)
 291:BSP/Camera/ov7670.c **** 	{
 292:BSP/Camera/ov7670.c **** 		return ov_write_reg_result;
 293:BSP/Camera/ov7670.c **** 	}
 294:BSP/Camera/ov7670.c **** 
 295:BSP/Camera/ov7670.c **** 	uint8_t ov_com3 = 0x04; // REG_COM3 enable scaling
 296:BSP/Camera/ov7670.c **** 	ov_write_reg_result = OV7670_WriteReg( REG_COM3, &ov_com3);
 297:BSP/Camera/ov7670.c **** 	if (ov_write_reg_result != OV7670_OK)
 298:BSP/Camera/ov7670.c **** 	{
 299:BSP/Camera/ov7670.c **** 		return ov_write_reg_result;
 300:BSP/Camera/ov7670.c **** 	}
 301:BSP/Camera/ov7670.c **** 
 302:BSP/Camera/ov7670.c **** 	ov_write_reg_result = OV7670_WriteRegList( qqvga_ov7670);
 303:BSP/Camera/ov7670.c **** 	if (ov_write_reg_result != OV7670_OK)
 304:BSP/Camera/ov7670.c **** 	{
 305:BSP/Camera/ov7670.c **** 		return ov_write_reg_result;
 306:BSP/Camera/ov7670.c **** 	}
 307:BSP/Camera/ov7670.c **** 
 308:BSP/Camera/ov7670.c **** 	ov_write_reg_result = OV7670_WriteRegList( rgb565_ov7670);
 309:BSP/Camera/ov7670.c **** 	if (ov_write_reg_result != OV7670_OK)
 310:BSP/Camera/ov7670.c **** 	{
 311:BSP/Camera/ov7670.c **** 		return ov_write_reg_result;
 312:BSP/Camera/ov7670.c **** 	}
 313:BSP/Camera/ov7670.c **** 	
 314:BSP/Camera/ov7670.c **** 	// configure PCLK to 24MHz, input clk 12MHz
 315:BSP/Camera/ov7670.c **** 
 316:BSP/Camera/ov7670.c **** 	uint8_t ov_clk_rc = 0;
 317:BSP/Camera/ov7670.c **** 	ov_read_reg_result = OV7670_ReadReg( REG_CLKRC, &ov_clk_rc);
 318:BSP/Camera/ov7670.c **** 	if (ov_read_reg_result != OV7670_OK)
 319:BSP/Camera/ov7670.c **** 	{
 320:BSP/Camera/ov7670.c **** 		return ov_read_reg_result;
 321:BSP/Camera/ov7670.c **** 	}
 322:BSP/Camera/ov7670.c **** 	ov_clk_rc = (ov_clk_rc & 0x80) | 0x01; // to enable prescaler by 2
 323:BSP/Camera/ov7670.c **** 	ov_write_reg_result = OV7670_WriteReg( REG_CLKRC, &ov_clk_rc);
 324:BSP/Camera/ov7670.c **** 	if (ov_write_reg_result != OV7670_OK)
 325:BSP/Camera/ov7670.c **** 	{
 326:BSP/Camera/ov7670.c **** 		return ov_write_reg_result;
 327:BSP/Camera/ov7670.c **** 	}
 328:BSP/Camera/ov7670.c **** 
 329:BSP/Camera/ov7670.c **** 	uint8_t ov_dblv = 0;
 330:BSP/Camera/ov7670.c **** 	ov_read_reg_result = OV7670_ReadReg( REG_DBLV, &ov_dblv);
 331:BSP/Camera/ov7670.c **** 	if (ov_read_reg_result != OV7670_OK)
 332:BSP/Camera/ov7670.c **** 	{
 333:BSP/Camera/ov7670.c **** 		return ov_read_reg_result;
 334:BSP/Camera/ov7670.c **** 	}
 335:BSP/Camera/ov7670.c **** 	ov_dblv = (ov_dblv & 0x3F) | DBLV_PLL4; // to enable PLL x4
 336:BSP/Camera/ov7670.c **** 	ov_write_reg_result = OV7670_WriteReg( REG_DBLV, &ov_dblv);
 337:BSP/Camera/ov7670.c **** 	if (ov_write_reg_result != OV7670_OK)
 338:BSP/Camera/ov7670.c **** 	{
 339:BSP/Camera/ov7670.c **** 		return ov_write_reg_result;
 340:BSP/Camera/ov7670.c **** 	}
 341:BSP/Camera/ov7670.c **** 	
 342:BSP/Camera/ov7670.c **** 	HAL_Delay(100);
 343:BSP/Camera/ov7670.c **** 	
 344:BSP/Camera/ov7670.c **** //	OV7670_Light_Mode(4);
 345:BSP/Camera/ov7670.c **** //	OV7670_Color_Saturation(2);
 346:BSP/Camera/ov7670.c **** //	OV7670_Brightness(2);
ARM GAS  /var/folders/g1/j12m_ky910s3_sv7d4yrsdn00000gn/T//ccqHweuV.s 			page 28


 347:BSP/Camera/ov7670.c **** //	OV7670_Contrast(2);
 348:BSP/Camera/ov7670.c **** //	OV7670_Special_Effects(0);
 349:BSP/Camera/ov7670.c **** //	ov7670_Window_Set(0,320,160,120);
 350:BSP/Camera/ov7670.c **** 	
 351:BSP/Camera/ov7670.c **** 	return OV7670_OK;
 352:BSP/Camera/ov7670.c **** }
 1110              		.loc 1 352 1 view .LVU302
 1111 000c 2046     		mov	r0, r4
 1112 000e 02B0     		add	sp, sp, #8
 1113              	.LCFI36:
 1114              		.cfi_remember_state
 1115              		.cfi_def_cfa_offset 8
 1116              		@ sp needed
 1117 0010 10BD     		pop	{r4, pc}
 1118              	.LVL63:
 1119              	.L79:
 1120              	.LCFI37:
 1121              		.cfi_restore_state
 286:BSP/Camera/ov7670.c **** 	int ov_write_reg_result = OV7670_ERROR;
 1122              		.loc 1 286 2 is_stmt 1 view .LVU303
 287:BSP/Camera/ov7670.c **** 
 1123              		.loc 1 287 2 view .LVU304
 289:BSP/Camera/ov7670.c **** 	if (ov_write_reg_result != OV7670_OK)
 1124              		.loc 1 289 2 view .LVU305
 289:BSP/Camera/ov7670.c **** 	if (ov_write_reg_result != OV7670_OK)
 1125              		.loc 1 289 24 is_stmt 0 view .LVU306
 1126 0012 2B48     		ldr	r0, .L80
 1127              	.LVL64:
 289:BSP/Camera/ov7670.c **** 	if (ov_write_reg_result != OV7670_OK)
 1128              		.loc 1 289 24 view .LVU307
 1129 0014 FFF7FEFF 		bl	OV7670_WriteRegList
 1130              	.LVL65:
 290:BSP/Camera/ov7670.c **** 	{
 1131              		.loc 1 290 2 is_stmt 1 view .LVU308
 290:BSP/Camera/ov7670.c **** 	{
 1132              		.loc 1 290 5 is_stmt 0 view .LVU309
 1133 0018 0446     		mov	r4, r0
 1134              	.LVL66:
 290:BSP/Camera/ov7670.c **** 	{
 1135              		.loc 1 290 5 view .LVU310
 1136 001a 0028     		cmp	r0, #0
 1137 001c F6D1     		bne	.L76
 295:BSP/Camera/ov7670.c **** 	ov_write_reg_result = OV7670_WriteReg( REG_COM3, &ov_com3);
 1138              		.loc 1 295 2 is_stmt 1 view .LVU311
 295:BSP/Camera/ov7670.c **** 	ov_write_reg_result = OV7670_WriteReg( REG_COM3, &ov_com3);
 1139              		.loc 1 295 10 is_stmt 0 view .LVU312
 1140 001e 0423     		movs	r3, #4
 1141 0020 8DF80730 		strb	r3, [sp, #7]
 296:BSP/Camera/ov7670.c **** 	if (ov_write_reg_result != OV7670_OK)
 1142              		.loc 1 296 2 is_stmt 1 view .LVU313
 296:BSP/Camera/ov7670.c **** 	if (ov_write_reg_result != OV7670_OK)
 1143              		.loc 1 296 24 is_stmt 0 view .LVU314
 1144 0024 0DF10701 		add	r1, sp, #7
 1145 0028 0C20     		movs	r0, #12
 1146              	.LVL67:
 296:BSP/Camera/ov7670.c **** 	if (ov_write_reg_result != OV7670_OK)
 1147              		.loc 1 296 24 view .LVU315
ARM GAS  /var/folders/g1/j12m_ky910s3_sv7d4yrsdn00000gn/T//ccqHweuV.s 			page 29


 1148 002a FFF7FEFF 		bl	OV7670_WriteReg
 1149              	.LVL68:
 297:BSP/Camera/ov7670.c **** 	{
 1150              		.loc 1 297 2 is_stmt 1 view .LVU316
 297:BSP/Camera/ov7670.c **** 	{
 1151              		.loc 1 297 5 is_stmt 0 view .LVU317
 1152 002e 0446     		mov	r4, r0
 1153 0030 0028     		cmp	r0, #0
 1154 0032 EBD1     		bne	.L76
 302:BSP/Camera/ov7670.c **** 	if (ov_write_reg_result != OV7670_OK)
 1155              		.loc 1 302 2 is_stmt 1 view .LVU318
 302:BSP/Camera/ov7670.c **** 	if (ov_write_reg_result != OV7670_OK)
 1156              		.loc 1 302 24 is_stmt 0 view .LVU319
 1157 0034 2348     		ldr	r0, .L80+4
 1158              	.LVL69:
 302:BSP/Camera/ov7670.c **** 	if (ov_write_reg_result != OV7670_OK)
 1159              		.loc 1 302 24 view .LVU320
 1160 0036 FFF7FEFF 		bl	OV7670_WriteRegList
 1161              	.LVL70:
 303:BSP/Camera/ov7670.c **** 	{
 1162              		.loc 1 303 2 is_stmt 1 view .LVU321
 303:BSP/Camera/ov7670.c **** 	{
 1163              		.loc 1 303 5 is_stmt 0 view .LVU322
 1164 003a 0446     		mov	r4, r0
 1165 003c 0028     		cmp	r0, #0
 1166 003e E5D1     		bne	.L76
 308:BSP/Camera/ov7670.c **** 	if (ov_write_reg_result != OV7670_OK)
 1167              		.loc 1 308 2 is_stmt 1 view .LVU323
 308:BSP/Camera/ov7670.c **** 	if (ov_write_reg_result != OV7670_OK)
 1168              		.loc 1 308 24 is_stmt 0 view .LVU324
 1169 0040 2148     		ldr	r0, .L80+8
 1170              	.LVL71:
 308:BSP/Camera/ov7670.c **** 	if (ov_write_reg_result != OV7670_OK)
 1171              		.loc 1 308 24 view .LVU325
 1172 0042 FFF7FEFF 		bl	OV7670_WriteRegList
 1173              	.LVL72:
 309:BSP/Camera/ov7670.c **** 	{
 1174              		.loc 1 309 2 is_stmt 1 view .LVU326
 309:BSP/Camera/ov7670.c **** 	{
 1175              		.loc 1 309 5 is_stmt 0 view .LVU327
 1176 0046 0446     		mov	r4, r0
 1177 0048 0028     		cmp	r0, #0
 1178 004a DFD1     		bne	.L76
 316:BSP/Camera/ov7670.c **** 	ov_read_reg_result = OV7670_ReadReg( REG_CLKRC, &ov_clk_rc);
 1179              		.loc 1 316 2 is_stmt 1 view .LVU328
 316:BSP/Camera/ov7670.c **** 	ov_read_reg_result = OV7670_ReadReg( REG_CLKRC, &ov_clk_rc);
 1180              		.loc 1 316 10 is_stmt 0 view .LVU329
 1181 004c 0023     		movs	r3, #0
 1182 004e 8DF80630 		strb	r3, [sp, #6]
 317:BSP/Camera/ov7670.c **** 	if (ov_read_reg_result != OV7670_OK)
 1183              		.loc 1 317 2 is_stmt 1 view .LVU330
 317:BSP/Camera/ov7670.c **** 	if (ov_read_reg_result != OV7670_OK)
 1184              		.loc 1 317 23 is_stmt 0 view .LVU331
 1185 0052 0DF10601 		add	r1, sp, #6
 1186 0056 1120     		movs	r0, #17
 1187              	.LVL73:
 317:BSP/Camera/ov7670.c **** 	if (ov_read_reg_result != OV7670_OK)
ARM GAS  /var/folders/g1/j12m_ky910s3_sv7d4yrsdn00000gn/T//ccqHweuV.s 			page 30


 1188              		.loc 1 317 23 view .LVU332
 1189 0058 FFF7FEFF 		bl	OV7670_ReadReg
 1190              	.LVL74:
 318:BSP/Camera/ov7670.c **** 	{
 1191              		.loc 1 318 2 is_stmt 1 view .LVU333
 318:BSP/Camera/ov7670.c **** 	{
 1192              		.loc 1 318 5 is_stmt 0 view .LVU334
 1193 005c 0446     		mov	r4, r0
 1194              	.LVL75:
 318:BSP/Camera/ov7670.c **** 	{
 1195              		.loc 1 318 5 view .LVU335
 1196 005e 0028     		cmp	r0, #0
 1197 0060 D4D1     		bne	.L76
 322:BSP/Camera/ov7670.c **** 	ov_write_reg_result = OV7670_WriteReg( REG_CLKRC, &ov_clk_rc);
 1198              		.loc 1 322 2 is_stmt 1 view .LVU336
 322:BSP/Camera/ov7670.c **** 	ov_write_reg_result = OV7670_WriteReg( REG_CLKRC, &ov_clk_rc);
 1199              		.loc 1 322 25 is_stmt 0 view .LVU337
 1200 0062 9DF80630 		ldrb	r3, [sp, #6]	@ zero_extendqisi2
 322:BSP/Camera/ov7670.c **** 	ov_write_reg_result = OV7670_WriteReg( REG_CLKRC, &ov_clk_rc);
 1201              		.loc 1 322 12 view .LVU338
 1202 0066 23F07F03 		bic	r3, r3, #127
 1203 006a 43F00103 		orr	r3, r3, #1
 1204 006e 8DF80630 		strb	r3, [sp, #6]
 323:BSP/Camera/ov7670.c **** 	if (ov_write_reg_result != OV7670_OK)
 1205              		.loc 1 323 2 is_stmt 1 view .LVU339
 323:BSP/Camera/ov7670.c **** 	if (ov_write_reg_result != OV7670_OK)
 1206              		.loc 1 323 24 is_stmt 0 view .LVU340
 1207 0072 0DF10601 		add	r1, sp, #6
 1208 0076 1120     		movs	r0, #17
 1209              	.LVL76:
 323:BSP/Camera/ov7670.c **** 	if (ov_write_reg_result != OV7670_OK)
 1210              		.loc 1 323 24 view .LVU341
 1211 0078 FFF7FEFF 		bl	OV7670_WriteReg
 1212              	.LVL77:
 324:BSP/Camera/ov7670.c **** 	{
 1213              		.loc 1 324 2 is_stmt 1 view .LVU342
 324:BSP/Camera/ov7670.c **** 	{
 1214              		.loc 1 324 5 is_stmt 0 view .LVU343
 1215 007c 0446     		mov	r4, r0
 1216              	.LVL78:
 324:BSP/Camera/ov7670.c **** 	{
 1217              		.loc 1 324 5 view .LVU344
 1218 007e 0028     		cmp	r0, #0
 1219 0080 C4D1     		bne	.L76
 329:BSP/Camera/ov7670.c **** 	ov_read_reg_result = OV7670_ReadReg( REG_DBLV, &ov_dblv);
 1220              		.loc 1 329 2 is_stmt 1 view .LVU345
 329:BSP/Camera/ov7670.c **** 	ov_read_reg_result = OV7670_ReadReg( REG_DBLV, &ov_dblv);
 1221              		.loc 1 329 10 is_stmt 0 view .LVU346
 1222 0082 0023     		movs	r3, #0
 1223 0084 8DF80530 		strb	r3, [sp, #5]
 330:BSP/Camera/ov7670.c **** 	if (ov_read_reg_result != OV7670_OK)
 1224              		.loc 1 330 2 is_stmt 1 view .LVU347
 330:BSP/Camera/ov7670.c **** 	if (ov_read_reg_result != OV7670_OK)
 1225              		.loc 1 330 23 is_stmt 0 view .LVU348
 1226 0088 0DF10501 		add	r1, sp, #5
 1227 008c 6B20     		movs	r0, #107
 1228              	.LVL79:
ARM GAS  /var/folders/g1/j12m_ky910s3_sv7d4yrsdn00000gn/T//ccqHweuV.s 			page 31


 330:BSP/Camera/ov7670.c **** 	if (ov_read_reg_result != OV7670_OK)
 1229              		.loc 1 330 23 view .LVU349
 1230 008e FFF7FEFF 		bl	OV7670_ReadReg
 1231              	.LVL80:
 331:BSP/Camera/ov7670.c **** 	{
 1232              		.loc 1 331 2 is_stmt 1 view .LVU350
 331:BSP/Camera/ov7670.c **** 	{
 1233              		.loc 1 331 5 is_stmt 0 view .LVU351
 1234 0092 0446     		mov	r4, r0
 1235              	.LVL81:
 331:BSP/Camera/ov7670.c **** 	{
 1236              		.loc 1 331 5 view .LVU352
 1237 0094 0028     		cmp	r0, #0
 1238 0096 B9D1     		bne	.L76
 335:BSP/Camera/ov7670.c **** 	ov_write_reg_result = OV7670_WriteReg( REG_DBLV, &ov_dblv);
 1239              		.loc 1 335 2 is_stmt 1 view .LVU353
 335:BSP/Camera/ov7670.c **** 	ov_write_reg_result = OV7670_WriteReg( REG_DBLV, &ov_dblv);
 1240              		.loc 1 335 21 is_stmt 0 view .LVU354
 1241 0098 9DF80530 		ldrb	r3, [sp, #5]	@ zero_extendqisi2
 335:BSP/Camera/ov7670.c **** 	ov_write_reg_result = OV7670_WriteReg( REG_DBLV, &ov_dblv);
 1242              		.loc 1 335 10 view .LVU355
 1243 009c 03F03F03 		and	r3, r3, #63
 1244 00a0 43F04003 		orr	r3, r3, #64
 1245 00a4 8DF80530 		strb	r3, [sp, #5]
 336:BSP/Camera/ov7670.c **** 	if (ov_write_reg_result != OV7670_OK)
 1246              		.loc 1 336 2 is_stmt 1 view .LVU356
 336:BSP/Camera/ov7670.c **** 	if (ov_write_reg_result != OV7670_OK)
 1247              		.loc 1 336 24 is_stmt 0 view .LVU357
 1248 00a8 0DF10501 		add	r1, sp, #5
 1249 00ac 6B20     		movs	r0, #107
 1250              	.LVL82:
 336:BSP/Camera/ov7670.c **** 	if (ov_write_reg_result != OV7670_OK)
 1251              		.loc 1 336 24 view .LVU358
 1252 00ae FFF7FEFF 		bl	OV7670_WriteReg
 1253              	.LVL83:
 337:BSP/Camera/ov7670.c **** 	{
 1254              		.loc 1 337 2 is_stmt 1 view .LVU359
 337:BSP/Camera/ov7670.c **** 	{
 1255              		.loc 1 337 5 is_stmt 0 view .LVU360
 1256 00b2 0446     		mov	r4, r0
 1257              	.LVL84:
 337:BSP/Camera/ov7670.c **** 	{
 1258              		.loc 1 337 5 view .LVU361
 1259 00b4 0028     		cmp	r0, #0
 1260 00b6 A9D1     		bne	.L76
 342:BSP/Camera/ov7670.c **** 	
 1261              		.loc 1 342 2 is_stmt 1 view .LVU362
 1262 00b8 6420     		movs	r0, #100
 1263              	.LVL85:
 342:BSP/Camera/ov7670.c **** 	
 1264              		.loc 1 342 2 is_stmt 0 view .LVU363
 1265 00ba FFF7FEFF 		bl	HAL_Delay
 1266              	.LVL86:
 351:BSP/Camera/ov7670.c **** }
 1267              		.loc 1 351 2 is_stmt 1 view .LVU364
 351:BSP/Camera/ov7670.c **** }
 1268              		.loc 1 351 9 is_stmt 0 view .LVU365
ARM GAS  /var/folders/g1/j12m_ky910s3_sv7d4yrsdn00000gn/T//ccqHweuV.s 			page 32


 1269 00be A5E7     		b	.L76
 1270              	.L81:
 1271              		.align	2
 1272              	.L80:
 1273 00c0 00000000 		.word	ov7670_default_regs
 1274 00c4 00000000 		.word	qqvga_ov7670
 1275 00c8 00000000 		.word	rgb565_ov7670
 1276              		.cfi_endproc
 1277              	.LFE154:
 1279              		.text
 1280              	.Letext0:
 1281              		.file 2 "/Users/zhy/Tools/xpack-arm-none-eabi-gcc-14.2.1-1.1/arm-none-eabi/include/machine/_defaul
 1282              		.file 3 "/Users/zhy/Tools/xpack-arm-none-eabi-gcc-14.2.1-1.1/arm-none-eabi/include/sys/_stdint.h"
 1283              		.file 4 "Drivers/CMSIS/Device/ST/STM32H7xx/Include/stm32h743xx.h"
 1284              		.file 5 "Drivers/STM32H7xx_HAL_Driver/Inc/stm32h7xx_hal_def.h"
 1285              		.file 6 "Drivers/STM32H7xx_HAL_Driver/Inc/stm32h7xx_hal_dma.h"
 1286              		.file 7 "Drivers/STM32H7xx_HAL_Driver/Inc/stm32h7xx_hal_i2c.h"
 1287              		.file 8 "BSP/Camera/camera.h"
 1288              		.file 9 "BSP/Camera/ov7670_regs.h"
 1289              		.file 10 "Drivers/STM32H7xx_HAL_Driver/Inc/stm32h7xx_hal.h"
ARM GAS  /var/folders/g1/j12m_ky910s3_sv7d4yrsdn00000gn/T//ccqHweuV.s 			page 33

