ARM GAS  /var/folders/g1/j12m_ky910s3_sv7d4yrsdn00000gn/T//cccysuHP.s 			page 1


   1              		.cpu cortex-m7
   2              		.arch armv7e-m
   3              		.fpu fpv5-d16
   4              		.eabi_attribute 28, 1
   5              		.eabi_attribute 20, 1
   6              		.eabi_attribute 21, 1
   7              		.eabi_attribute 23, 3
   8              		.eabi_attribute 24, 1
   9              		.eabi_attribute 25, 1
  10              		.eabi_attribute 26, 1
  11              		.eabi_attribute 30, 1
  12              		.eabi_attribute 34, 1
  13              		.eabi_attribute 18, 4
  14              		.file	"ov7725.c"
  15              		.text
  16              	.Ltext0:
  17              		.cfi_sections	.debug_frame
  18              		.file 1 "BSP/Camera/ov7725.c"
  19              		.section	.text.ov7725_WR_Reg,"ax",%progbits
  20              		.align	1
  21              		.syntax unified
  22              		.thumb
  23              		.thumb_func
  25              	ov7725_WR_Reg:
  26              	.LVL0:
  27              	.LFB144:
   1:BSP/Camera/ov7725.c **** #include "ov7725.h"
   2:BSP/Camera/ov7725.c **** #include "ov7725_regs.h"
   3:BSP/Camera/ov7725.c **** #include <stdbool.h>
   4:BSP/Camera/ov7725.c **** 
   5:BSP/Camera/ov7725.c **** static uint8_t ov7725_WR_Reg(uint8_t reg, uint8_t data)
   6:BSP/Camera/ov7725.c **** {
  28              		.loc 1 6 1 view -0
  29              		.cfi_startproc
  30              		@ args = 0, pretend = 0, frame = 8
  31              		@ frame_needed = 0, uses_anonymous_args = 0
  32              		.loc 1 6 1 is_stmt 0 view .LVU1
  33 0000 00B5     		push	{lr}
  34              	.LCFI0:
  35              		.cfi_def_cfa_offset 4
  36              		.cfi_offset 14, -4
  37 0002 83B0     		sub	sp, sp, #12
  38              	.LCFI1:
  39              		.cfi_def_cfa_offset 16
  40 0004 8DF80710 		strb	r1, [sp, #7]
   7:BSP/Camera/ov7725.c ****     Camera_WriteReg(&hcamera, reg, &data);
  41              		.loc 1 7 5 is_stmt 1 view .LVU2
  42 0008 0DF10702 		add	r2, sp, #7
  43 000c 0146     		mov	r1, r0
  44              	.LVL1:
  45              		.loc 1 7 5 is_stmt 0 view .LVU3
  46 000e 0348     		ldr	r0, .L3
  47              	.LVL2:
  48              		.loc 1 7 5 view .LVU4
  49 0010 FFF7FEFF 		bl	Camera_WriteReg
  50              	.LVL3:
   8:BSP/Camera/ov7725.c ****     return 0;
ARM GAS  /var/folders/g1/j12m_ky910s3_sv7d4yrsdn00000gn/T//cccysuHP.s 			page 2


  51              		.loc 1 8 5 is_stmt 1 view .LVU5
   9:BSP/Camera/ov7725.c **** }
  52              		.loc 1 9 1 is_stmt 0 view .LVU6
  53 0014 0020     		movs	r0, #0
  54 0016 03B0     		add	sp, sp, #12
  55              	.LCFI2:
  56              		.cfi_def_cfa_offset 4
  57              		@ sp needed
  58 0018 5DF804FB 		ldr	pc, [sp], #4
  59              	.L4:
  60              		.align	2
  61              	.L3:
  62 001c 00000000 		.word	hcamera
  63              		.cfi_endproc
  64              	.LFE144:
  66              		.section	.text.ov7725_reset,"ax",%progbits
  67              		.align	1
  68              		.syntax unified
  69              		.thumb
  70              		.thumb_func
  72              	ov7725_reset:
  73              	.LFB146:
  10:BSP/Camera/ov7725.c **** 
  11:BSP/Camera/ov7725.c **** static uint8_t ov7725_RD_Reg(uint8_t reg,uint8_t *data)
  12:BSP/Camera/ov7725.c **** {
  13:BSP/Camera/ov7725.c ****     return Camera_ReadReg(&hcamera,reg,data);
  14:BSP/Camera/ov7725.c **** }
  15:BSP/Camera/ov7725.c **** 
  16:BSP/Camera/ov7725.c **** static int ov7725_reset(void)
  17:BSP/Camera/ov7725.c **** {
  74              		.loc 1 17 1 is_stmt 1 view -0
  75              		.cfi_startproc
  76              		@ args = 0, pretend = 0, frame = 0
  77              		@ frame_needed = 0, uses_anonymous_args = 0
  78 0000 38B5     		push	{r3, r4, r5, lr}
  79              	.LCFI3:
  80              		.cfi_def_cfa_offset 16
  81              		.cfi_offset 3, -16
  82              		.cfi_offset 4, -12
  83              		.cfi_offset 5, -8
  84              		.cfi_offset 14, -4
  18:BSP/Camera/ov7725.c ****     // Reset all registers
  19:BSP/Camera/ov7725.c ****     int ret = ov7725_WR_Reg( COM7, COM7_RESET);
  85              		.loc 1 19 5 view .LVU8
  86              		.loc 1 19 15 is_stmt 0 view .LVU9
  87 0002 8021     		movs	r1, #128
  88 0004 1220     		movs	r0, #18
  89 0006 FFF7FEFF 		bl	ov7725_WR_Reg
  90              	.LVL4:
  91              		.loc 1 19 9 discriminator 1 view .LVU10
  92 000a 0546     		mov	r5, r0
  93              	.LVL5:
  20:BSP/Camera/ov7725.c **** 
  21:BSP/Camera/ov7725.c ****     // Delay 2 ms
  22:BSP/Camera/ov7725.c ****     Camera_delay(2);
  94              		.loc 1 22 5 is_stmt 1 view .LVU11
  95 000c 0220     		movs	r0, #2
ARM GAS  /var/folders/g1/j12m_ky910s3_sv7d4yrsdn00000gn/T//cccysuHP.s 			page 3


  96              	.LVL6:
  97              		.loc 1 22 5 is_stmt 0 view .LVU12
  98 000e FFF7FEFF 		bl	HAL_Delay
  99              	.LVL7:
  23:BSP/Camera/ov7725.c **** 
  24:BSP/Camera/ov7725.c ****     // Write default regsiters
  25:BSP/Camera/ov7725.c ****     for (int i = 0; ov7725_default_regs[i][0]; i++) {
 100              		.loc 1 25 5 is_stmt 1 view .LVU13
 101              	.LBB2:
 102              		.loc 1 25 10 view .LVU14
 103              		.loc 1 25 14 is_stmt 0 view .LVU15
 104 0012 0024     		movs	r4, #0
 105              		.loc 1 25 5 view .LVU16
 106 0014 07E0     		b	.L6
 107              	.LVL8:
 108              	.L7:
  26:BSP/Camera/ov7725.c ****         ret |= ov7725_WR_Reg(ov7725_default_regs[i][0], ov7725_default_regs[i][1]);
 109              		.loc 1 26 9 is_stmt 1 view .LVU17
 110              		.loc 1 26 79 is_stmt 0 view .LVU18
 111 0016 094B     		ldr	r3, .L9
 112 0018 03EB4403 		add	r3, r3, r4, lsl #1
 113              		.loc 1 26 16 view .LVU19
 114 001c 5978     		ldrb	r1, [r3, #1]	@ zero_extendqisi2
 115 001e FFF7FEFF 		bl	ov7725_WR_Reg
 116              	.LVL9:
 117              		.loc 1 26 13 discriminator 1 view .LVU20
 118 0022 0543     		orrs	r5, r5, r0
 119              	.LVL10:
  25:BSP/Camera/ov7725.c ****         ret |= ov7725_WR_Reg(ov7725_default_regs[i][0], ov7725_default_regs[i][1]);
 120              		.loc 1 25 49 is_stmt 1 discriminator 3 view .LVU21
 121 0024 0134     		adds	r4, r4, #1
 122              	.LVL11:
 123              	.L6:
  25:BSP/Camera/ov7725.c ****         ret |= ov7725_WR_Reg(ov7725_default_regs[i][0], ov7725_default_regs[i][1]);
 124              		.loc 1 25 21 discriminator 1 view .LVU22
  25:BSP/Camera/ov7725.c ****         ret |= ov7725_WR_Reg(ov7725_default_regs[i][0], ov7725_default_regs[i][1]);
 125              		.loc 1 25 43 is_stmt 0 discriminator 1 view .LVU23
 126 0026 054B     		ldr	r3, .L9
 127 0028 13F81400 		ldrb	r0, [r3, r4, lsl #1]	@ zero_extendqisi2
  25:BSP/Camera/ov7725.c ****         ret |= ov7725_WR_Reg(ov7725_default_regs[i][0], ov7725_default_regs[i][1]);
 128              		.loc 1 25 21 discriminator 1 view .LVU24
 129 002c 0028     		cmp	r0, #0
 130 002e F2D1     		bne	.L7
 131              	.LBE2:
  27:BSP/Camera/ov7725.c ****     }
  28:BSP/Camera/ov7725.c **** 
  29:BSP/Camera/ov7725.c ****     // Delay 300 ms
  30:BSP/Camera/ov7725.c ****     Camera_delay(300);
 132              		.loc 1 30 5 is_stmt 1 view .LVU25
 133 0030 4FF49670 		mov	r0, #300
 134 0034 FFF7FEFF 		bl	HAL_Delay
 135              	.LVL12:
  31:BSP/Camera/ov7725.c **** 
  32:BSP/Camera/ov7725.c ****     return ret;
 136              		.loc 1 32 5 view .LVU26
  33:BSP/Camera/ov7725.c **** }
 137              		.loc 1 33 1 is_stmt 0 view .LVU27
ARM GAS  /var/folders/g1/j12m_ky910s3_sv7d4yrsdn00000gn/T//cccysuHP.s 			page 4


 138 0038 2846     		mov	r0, r5
 139 003a 38BD     		pop	{r3, r4, r5, pc}
 140              	.LVL13:
 141              	.L10:
 142              		.loc 1 33 1 view .LVU28
 143              		.align	2
 144              	.L9:
 145 003c 00000000 		.word	ov7725_default_regs
 146              		.cfi_endproc
 147              	.LFE146:
 149              		.section	.text.ov7725_RD_Reg,"ax",%progbits
 150              		.align	1
 151              		.syntax unified
 152              		.thumb
 153              		.thumb_func
 155              	ov7725_RD_Reg:
 156              	.LVL14:
 157              	.LFB145:
  12:BSP/Camera/ov7725.c ****     return Camera_ReadReg(&hcamera,reg,data);
 158              		.loc 1 12 1 is_stmt 1 view -0
 159              		.cfi_startproc
 160              		@ args = 0, pretend = 0, frame = 0
 161              		@ frame_needed = 0, uses_anonymous_args = 0
  12:BSP/Camera/ov7725.c ****     return Camera_ReadReg(&hcamera,reg,data);
 162              		.loc 1 12 1 is_stmt 0 view .LVU30
 163 0000 08B5     		push	{r3, lr}
 164              	.LCFI4:
 165              		.cfi_def_cfa_offset 8
 166              		.cfi_offset 3, -8
 167              		.cfi_offset 14, -4
 168 0002 0A46     		mov	r2, r1
  13:BSP/Camera/ov7725.c **** }
 169              		.loc 1 13 5 is_stmt 1 view .LVU31
  13:BSP/Camera/ov7725.c **** }
 170              		.loc 1 13 12 is_stmt 0 view .LVU32
 171 0004 0146     		mov	r1, r0
 172              	.LVL15:
  13:BSP/Camera/ov7725.c **** }
 173              		.loc 1 13 12 view .LVU33
 174 0006 0248     		ldr	r0, .L13
 175              	.LVL16:
  13:BSP/Camera/ov7725.c **** }
 176              		.loc 1 13 12 view .LVU34
 177 0008 FFF7FEFF 		bl	Camera_ReadReg
 178              	.LVL17:
  14:BSP/Camera/ov7725.c **** 
 179              		.loc 1 14 1 view .LVU35
 180 000c C0B2     		uxtb	r0, r0
 181 000e 08BD     		pop	{r3, pc}
 182              	.L14:
 183              		.align	2
 184              	.L13:
 185 0010 00000000 		.word	hcamera
 186              		.cfi_endproc
 187              	.LFE145:
 189              		.section	.text.ov7725_set_pixformat,"ax",%progbits
 190              		.align	1
ARM GAS  /var/folders/g1/j12m_ky910s3_sv7d4yrsdn00000gn/T//cccysuHP.s 			page 5


 191              		.syntax unified
 192              		.thumb
 193              		.thumb_func
 195              	ov7725_set_pixformat:
 196              	.LVL18:
 197              	.LFB147:
  34:BSP/Camera/ov7725.c **** 
  35:BSP/Camera/ov7725.c **** static int ov7725_set_pixformat(pixformat_t pixformat)
  36:BSP/Camera/ov7725.c **** {
 198              		.loc 1 36 1 is_stmt 1 view -0
 199              		.cfi_startproc
 200              		@ args = 0, pretend = 0, frame = 8
 201              		@ frame_needed = 0, uses_anonymous_args = 0
 202              		.loc 1 36 1 is_stmt 0 view .LVU37
 203 0000 30B5     		push	{r4, r5, lr}
 204              	.LCFI5:
 205              		.cfi_def_cfa_offset 12
 206              		.cfi_offset 4, -12
 207              		.cfi_offset 5, -8
 208              		.cfi_offset 14, -4
 209 0002 83B0     		sub	sp, sp, #12
 210              	.LCFI6:
 211              		.cfi_def_cfa_offset 24
 212 0004 0446     		mov	r4, r0
  37:BSP/Camera/ov7725.c ****     uint8_t reg;
 213              		.loc 1 37 5 is_stmt 1 view .LVU38
  38:BSP/Camera/ov7725.c ****     int ret = ov7725_RD_Reg( COM7, &reg);
 214              		.loc 1 38 5 view .LVU39
 215              		.loc 1 38 15 is_stmt 0 view .LVU40
 216 0006 0DF10701 		add	r1, sp, #7
 217 000a 1220     		movs	r0, #18
 218              	.LVL19:
 219              		.loc 1 38 15 view .LVU41
 220 000c FFF7FEFF 		bl	ov7725_RD_Reg
 221              	.LVL20:
 222 0010 0546     		mov	r5, r0
 223              	.LVL21:
  39:BSP/Camera/ov7725.c **** 
  40:BSP/Camera/ov7725.c ****     switch (pixformat) {
 224              		.loc 1 40 5 is_stmt 1 view .LVU42
 225 0012 042C     		cmp	r4, #4
 226 0014 1CD8     		bhi	.L16
 227 0016 032C     		cmp	r4, #3
 228 0018 2FD2     		bcs	.L17
 229 001a 012C     		cmp	r4, #1
 230 001c 15D1     		bne	.L23
  41:BSP/Camera/ov7725.c ****         case PIXFORMAT_RGB565:
  42:BSP/Camera/ov7725.c ****             reg = COM7_SET_FMT(reg, COM7_FMT_RGB);
 231              		.loc 1 42 13 view .LVU43
 232              		.loc 1 42 19 is_stmt 0 view .LVU44
 233 001e 9DF80730 		ldrb	r3, [sp, #7]	@ zero_extendqisi2
 234              		.loc 1 42 17 view .LVU45
 235 0022 23F00303 		bic	r3, r3, #3
 236 0026 43F00203 		orr	r3, r3, #2
 237 002a 8DF80730 		strb	r3, [sp, #7]
  43:BSP/Camera/ov7725.c ****             ret |= ov7725_WR_Reg( DSP_CTRL4, DSP_CTRL4_YUV_RGB);
 238              		.loc 1 43 13 is_stmt 1 view .LVU46
ARM GAS  /var/folders/g1/j12m_ky910s3_sv7d4yrsdn00000gn/T//cccysuHP.s 			page 6


 239              		.loc 1 43 20 is_stmt 0 view .LVU47
 240 002e 0021     		movs	r1, #0
 241 0030 6720     		movs	r0, #103
 242 0032 FFF7FEFF 		bl	ov7725_WR_Reg
 243              	.LVL22:
 244              		.loc 1 43 17 discriminator 1 view .LVU48
 245 0036 2843     		orrs	r0, r0, r5
 246 0038 C4B2     		uxtb	r4, r0
 247              	.LVL23:
  44:BSP/Camera/ov7725.c ****             break;
 248              		.loc 1 44 13 is_stmt 1 view .LVU49
 249              	.L21:
  45:BSP/Camera/ov7725.c ****         case PIXFORMAT_YUV422:
  46:BSP/Camera/ov7725.c ****         case PIXFORMAT_GRAYSCALE:
  47:BSP/Camera/ov7725.c ****             reg = COM7_SET_FMT(reg, COM7_FMT_YUV);
  48:BSP/Camera/ov7725.c ****             ret |= ov7725_WR_Reg(DSP_CTRL4, DSP_CTRL4_YUV_RGB);
  49:BSP/Camera/ov7725.c ****             break;
  50:BSP/Camera/ov7725.c ****         case PIXFORMAT_BAYER:
  51:BSP/Camera/ov7725.c ****             reg = COM7_SET_FMT(reg, COM7_FMT_P_BAYER);
  52:BSP/Camera/ov7725.c ****             ret |= ov7725_WR_Reg(DSP_CTRL4, DSP_CTRL4_RAW8);
  53:BSP/Camera/ov7725.c ****             break;
  54:BSP/Camera/ov7725.c ****         default:
  55:BSP/Camera/ov7725.c ****             return -1;
  56:BSP/Camera/ov7725.c ****     }
  57:BSP/Camera/ov7725.c **** 
  58:BSP/Camera/ov7725.c ****     // Write back register
  59:BSP/Camera/ov7725.c ****     return ov7725_WR_Reg(COM7, reg) | ret;
 250              		.loc 1 59 5 view .LVU50
 251              		.loc 1 59 12 is_stmt 0 view .LVU51
 252 003a 9DF80710 		ldrb	r1, [sp, #7]	@ zero_extendqisi2
 253 003e 1220     		movs	r0, #18
 254 0040 FFF7FEFF 		bl	ov7725_WR_Reg
 255              	.LVL24:
 256              		.loc 1 59 37 discriminator 1 view .LVU52
 257 0044 2043     		orrs	r0, r0, r4
 258              	.LVL25:
 259              	.L15:
  60:BSP/Camera/ov7725.c **** }
 260              		.loc 1 60 1 view .LVU53
 261 0046 03B0     		add	sp, sp, #12
 262              	.LCFI7:
 263              		.cfi_remember_state
 264              		.cfi_def_cfa_offset 12
 265              		@ sp needed
 266 0048 30BD     		pop	{r4, r5, pc}
 267              	.LVL26:
 268              	.L23:
 269              	.LCFI8:
 270              		.cfi_restore_state
  40:BSP/Camera/ov7725.c ****         case PIXFORMAT_RGB565:
 271              		.loc 1 40 5 view .LVU54
 272 004a 4FF0FF30 		mov	r0, #-1
 273 004e FAE7     		b	.L15
 274              	.L16:
 275 0050 052C     		cmp	r4, #5
 276 0052 0FD1     		bne	.L24
  51:BSP/Camera/ov7725.c ****             ret |= ov7725_WR_Reg(DSP_CTRL4, DSP_CTRL4_RAW8);
ARM GAS  /var/folders/g1/j12m_ky910s3_sv7d4yrsdn00000gn/T//cccysuHP.s 			page 7


 277              		.loc 1 51 13 is_stmt 1 view .LVU55
  51:BSP/Camera/ov7725.c ****             ret |= ov7725_WR_Reg(DSP_CTRL4, DSP_CTRL4_RAW8);
 278              		.loc 1 51 19 is_stmt 0 view .LVU56
 279 0054 9DF80730 		ldrb	r3, [sp, #7]	@ zero_extendqisi2
  51:BSP/Camera/ov7725.c ****             ret |= ov7725_WR_Reg(DSP_CTRL4, DSP_CTRL4_RAW8);
 280              		.loc 1 51 17 view .LVU57
 281 0058 23F00303 		bic	r3, r3, #3
 282 005c 43F00103 		orr	r3, r3, #1
 283 0060 8DF80730 		strb	r3, [sp, #7]
  52:BSP/Camera/ov7725.c ****             break;
 284              		.loc 1 52 13 is_stmt 1 view .LVU58
  52:BSP/Camera/ov7725.c ****             break;
 285              		.loc 1 52 20 is_stmt 0 view .LVU59
 286 0064 0221     		movs	r1, #2
 287 0066 6720     		movs	r0, #103
 288 0068 FFF7FEFF 		bl	ov7725_WR_Reg
 289              	.LVL27:
  52:BSP/Camera/ov7725.c ****             break;
 290              		.loc 1 52 17 discriminator 1 view .LVU60
 291 006c 45EA0004 		orr	r4, r5, r0
 292 0070 E4B2     		uxtb	r4, r4
 293              	.LVL28:
  53:BSP/Camera/ov7725.c ****         default:
 294              		.loc 1 53 13 is_stmt 1 view .LVU61
 295 0072 E2E7     		b	.L21
 296              	.LVL29:
 297              	.L24:
  40:BSP/Camera/ov7725.c ****         case PIXFORMAT_RGB565:
 298              		.loc 1 40 5 is_stmt 0 view .LVU62
 299 0074 4FF0FF30 		mov	r0, #-1
 300 0078 E5E7     		b	.L15
 301              	.L17:
  47:BSP/Camera/ov7725.c ****             ret |= ov7725_WR_Reg(DSP_CTRL4, DSP_CTRL4_YUV_RGB);
 302              		.loc 1 47 13 is_stmt 1 view .LVU63
  47:BSP/Camera/ov7725.c ****             ret |= ov7725_WR_Reg(DSP_CTRL4, DSP_CTRL4_YUV_RGB);
 303              		.loc 1 47 19 is_stmt 0 view .LVU64
 304 007a 9DF80730 		ldrb	r3, [sp, #7]	@ zero_extendqisi2
 305 007e 03F0FC03 		and	r3, r3, #252
  47:BSP/Camera/ov7725.c ****             ret |= ov7725_WR_Reg(DSP_CTRL4, DSP_CTRL4_YUV_RGB);
 306              		.loc 1 47 17 view .LVU65
 307 0082 8DF80730 		strb	r3, [sp, #7]
  48:BSP/Camera/ov7725.c ****             break;
 308              		.loc 1 48 13 is_stmt 1 view .LVU66
  48:BSP/Camera/ov7725.c ****             break;
 309              		.loc 1 48 20 is_stmt 0 view .LVU67
 310 0086 0021     		movs	r1, #0
 311 0088 6720     		movs	r0, #103
 312 008a FFF7FEFF 		bl	ov7725_WR_Reg
 313              	.LVL30:
  48:BSP/Camera/ov7725.c ****             break;
 314              		.loc 1 48 17 discriminator 1 view .LVU68
 315 008e 2843     		orrs	r0, r0, r5
 316 0090 C4B2     		uxtb	r4, r0
 317              	.LVL31:
  49:BSP/Camera/ov7725.c ****         case PIXFORMAT_BAYER:
 318              		.loc 1 49 13 is_stmt 1 view .LVU69
 319 0092 D2E7     		b	.L21
ARM GAS  /var/folders/g1/j12m_ky910s3_sv7d4yrsdn00000gn/T//cccysuHP.s 			page 8


 320              		.cfi_endproc
 321              	.LFE147:
 323              		.section	.text.ov7725_set_framesize,"ax",%progbits
 324              		.align	1
 325              		.syntax unified
 326              		.thumb
 327              		.thumb_func
 329              	ov7725_set_framesize:
 330              	.LVL32:
 331              	.LFB148:
  61:BSP/Camera/ov7725.c **** 
  62:BSP/Camera/ov7725.c **** static int ov7725_set_framesize(framesize_t framesize)
  63:BSP/Camera/ov7725.c **** {
 332              		.loc 1 63 1 view -0
 333              		.cfi_startproc
 334              		@ args = 0, pretend = 0, frame = 8
 335              		@ frame_needed = 0, uses_anonymous_args = 0
 336              		.loc 1 63 1 is_stmt 0 view .LVU71
 337 0000 2DE9F047 		push	{r4, r5, r6, r7, r8, r9, r10, lr}
 338              	.LCFI9:
 339              		.cfi_def_cfa_offset 32
 340              		.cfi_offset 4, -32
 341              		.cfi_offset 5, -28
 342              		.cfi_offset 6, -24
 343              		.cfi_offset 7, -20
 344              		.cfi_offset 8, -16
 345              		.cfi_offset 9, -12
 346              		.cfi_offset 10, -8
 347              		.cfi_offset 14, -4
 348 0004 82B0     		sub	sp, sp, #8
 349              	.LCFI10:
 350              		.cfi_def_cfa_offset 40
  64:BSP/Camera/ov7725.c ****     uint8_t reg;
 351              		.loc 1 64 5 is_stmt 1 view .LVU72
  65:BSP/Camera/ov7725.c ****     int ret=0;
 352              		.loc 1 65 5 view .LVU73
 353              	.LVL33:
  66:BSP/Camera/ov7725.c ****     uint16_t w = dvp_cam_resolution[framesize][0];
 354              		.loc 1 66 5 view .LVU74
 355              		.loc 1 66 14 is_stmt 0 view .LVU75
 356 0006 554B     		ldr	r3, .L33
 357 0008 33F82060 		ldrh	r6, [r3, r0, lsl #2]
 358              	.LVL34:
  67:BSP/Camera/ov7725.c ****     uint16_t h = dvp_cam_resolution[framesize][1];
 359              		.loc 1 67 5 is_stmt 1 view .LVU76
 360              		.loc 1 67 14 is_stmt 0 view .LVU77
 361 000c 03EB8003 		add	r3, r3, r0, lsl #2
 362 0010 5D88     		ldrh	r5, [r3, #2]
 363              	.LVL35:
  68:BSP/Camera/ov7725.c ****     bool vflip;
 364              		.loc 1 68 5 is_stmt 1 view .LVU78
  69:BSP/Camera/ov7725.c **** 
  70:BSP/Camera/ov7725.c ****     if ((w > 640) || (h > 480)) {
 365              		.loc 1 70 5 view .LVU79
 366              		.loc 1 70 8 is_stmt 0 view .LVU80
 367 0012 B5F5F07F 		cmp	r5, #480
 368 0016 98BF     		it	ls
ARM GAS  /var/folders/g1/j12m_ky910s3_sv7d4yrsdn00000gn/T//cccysuHP.s 			page 9


 369 0018 B6F5207F 		cmpls	r6, #640
 370 001c 00F29A80 		bhi	.L29
  71:BSP/Camera/ov7725.c ****         return -1;
  72:BSP/Camera/ov7725.c ****     }
  73:BSP/Camera/ov7725.c **** 
  74:BSP/Camera/ov7725.c ****     // Write MSBs
  75:BSP/Camera/ov7725.c ****     ret |= ov7725_WR_Reg(HOUTSIZE, w>>2);
 371              		.loc 1 75 5 is_stmt 1 view .LVU81
 372              		.loc 1 75 12 is_stmt 0 view .LVU82
 373 0020 C6F38701 		ubfx	r1, r6, #2, #8
 374 0024 2920     		movs	r0, #41
 375              	.LVL36:
 376              		.loc 1 75 12 view .LVU83
 377 0026 FFF7FEFF 		bl	ov7725_WR_Reg
 378              	.LVL37:
 379 002a 0446     		mov	r4, r0
 380              	.LVL38:
  76:BSP/Camera/ov7725.c ****     ret |= ov7725_WR_Reg(VOUTSIZE, h>>1);
 381              		.loc 1 76 5 is_stmt 1 view .LVU84
 382              		.loc 1 76 12 is_stmt 0 view .LVU85
 383 002c C5F34701 		ubfx	r1, r5, #1, #8
 384 0030 2C20     		movs	r0, #44
 385 0032 FFF7FEFF 		bl	ov7725_WR_Reg
 386              	.LVL39:
 387 0036 0443     		orrs	r4, r4, r0
 388              	.LVL40:
 389              		.loc 1 76 12 view .LVU86
 390 0038 E4B2     		uxtb	r4, r4
 391              	.LVL41:
  77:BSP/Camera/ov7725.c **** 
  78:BSP/Camera/ov7725.c ****     // Write LSBs
  79:BSP/Camera/ov7725.c ****     ret |= ov7725_WR_Reg(EXHCH, ((w&0x3) | ((h&0x1) << 2)));
 392              		.loc 1 79 5 is_stmt 1 view .LVU87
 393              		.loc 1 79 36 is_stmt 0 view .LVU88
 394 003a 06F00301 		and	r1, r6, #3
 395              		.loc 1 79 53 view .LVU89
 396 003e AB00     		lsls	r3, r5, #2
 397 0040 03F00403 		and	r3, r3, #4
 398              		.loc 1 79 12 view .LVU90
 399 0044 1943     		orrs	r1, r1, r3
 400 0046 2A20     		movs	r0, #42
 401 0048 FFF7FEFF 		bl	ov7725_WR_Reg
 402              	.LVL42:
 403 004c 0443     		orrs	r4, r4, r0
 404              	.LVL43:
 405              		.loc 1 79 12 view .LVU91
 406 004e E4B2     		uxtb	r4, r4
 407              	.LVL44:
  80:BSP/Camera/ov7725.c **** 
  81:BSP/Camera/ov7725.c ****     // Sample VFLIP
  82:BSP/Camera/ov7725.c ****     ret |= ov7725_RD_Reg(COM3, &reg);
 408              		.loc 1 82 5 is_stmt 1 view .LVU92
 409              		.loc 1 82 12 is_stmt 0 view .LVU93
 410 0050 0DF10709 		add	r9, sp, #7
 411 0054 4946     		mov	r1, r9
 412 0056 0C20     		movs	r0, #12
 413 0058 FFF7FEFF 		bl	ov7725_RD_Reg
ARM GAS  /var/folders/g1/j12m_ky910s3_sv7d4yrsdn00000gn/T//cccysuHP.s 			page 10


 414              	.LVL45:
 415 005c 40EA0407 		orr	r7, r0, r4
 416 0060 FFB2     		uxtb	r7, r7
 417              	.LVL46:
  83:BSP/Camera/ov7725.c ****     vflip = reg & COM3_VFLIP;
 418              		.loc 1 83 5 is_stmt 1 view .LVU94
 419 0062 9DF907A0 		ldrsb	r10, [sp, #7]
 420              		.loc 1 83 11 is_stmt 0 view .LVU95
 421 0066 4FEADA78 		lsr	r8, r10, #31
 422              	.LVL47:
  84:BSP/Camera/ov7725.c ****     ret |= ov7725_RD_Reg(HREF, &reg);
 423              		.loc 1 84 5 is_stmt 1 view .LVU96
 424              		.loc 1 84 12 is_stmt 0 view .LVU97
 425 006a 4946     		mov	r1, r9
 426 006c 3220     		movs	r0, #50
 427 006e FFF7FEFF 		bl	ov7725_RD_Reg
 428              	.LVL48:
 429 0072 40EA0704 		orr	r4, r0, r7
 430 0076 E4B2     		uxtb	r4, r4
 431              	.LVL49:
  85:BSP/Camera/ov7725.c ****     ret |= ov7725_WR_Reg(HREF, (reg & 0xBF) | (vflip ? 0x40 : 0x00));
 432              		.loc 1 85 5 is_stmt 1 view .LVU98
 433              		.loc 1 85 37 is_stmt 0 view .LVU99
 434 0078 9DF80730 		ldrb	r3, [sp, #7]	@ zero_extendqisi2
 435 007c 03F0BF03 		and	r3, r3, #191
 436              		.loc 1 85 45 view .LVU100
 437 0080 BAF1000F 		cmp	r10, #0
 438 0084 33DB     		blt	.L32
 439              		.loc 1 85 45 discriminator 2 view .LVU101
 440 0086 0021     		movs	r1, #0
 441              	.L27:
 442              		.loc 1 85 12 discriminator 4 view .LVU102
 443 0088 1943     		orrs	r1, r1, r3
 444 008a 3220     		movs	r0, #50
 445 008c FFF7FEFF 		bl	ov7725_WR_Reg
 446              	.LVL50:
 447              		.loc 1 85 9 discriminator 1 view .LVU103
 448 0090 0443     		orrs	r4, r4, r0
 449              	.LVL51:
 450              		.loc 1 85 9 discriminator 1 view .LVU104
 451 0092 E4B2     		uxtb	r4, r4
 452              	.LVL52:
  86:BSP/Camera/ov7725.c **** 
  87:BSP/Camera/ov7725.c ****     if ((w <= 320) && (h <= 240)) {
 453              		.loc 1 87 5 is_stmt 1 view .LVU105
 454              		.loc 1 87 8 is_stmt 0 view .LVU106
 455 0094 B6F5A07F 		cmp	r6, #320
 456 0098 98BF     		it	ls
 457 009a F02D     		cmpls	r5, #240
 458 009c 29D8     		bhi	.L28
 459              	.LBB3:
  88:BSP/Camera/ov7725.c ****         // Set QVGA Resolution
  89:BSP/Camera/ov7725.c ****         uint8_t reg;
 460              		.loc 1 89 9 is_stmt 1 view .LVU107
  90:BSP/Camera/ov7725.c ****         int ret = ov7725_RD_Reg(COM7, &reg);
 461              		.loc 1 90 9 view .LVU108
 462              		.loc 1 90 19 is_stmt 0 view .LVU109
ARM GAS  /var/folders/g1/j12m_ky910s3_sv7d4yrsdn00000gn/T//cccysuHP.s 			page 11


 463 009e 0DF10601 		add	r1, sp, #6
 464 00a2 1220     		movs	r0, #18
 465 00a4 FFF7FEFF 		bl	ov7725_RD_Reg
 466              	.LVL53:
  91:BSP/Camera/ov7725.c ****         reg = COM7_SET_RES(reg, COM7_RES_QVGA);
 467              		.loc 1 91 9 is_stmt 1 view .LVU110
 468              		.loc 1 91 15 is_stmt 0 view .LVU111
 469 00a8 9DF80610 		ldrb	r1, [sp, #6]	@ zero_extendqisi2
 470 00ac 41F04001 		orr	r1, r1, #64
 471              		.loc 1 91 13 view .LVU112
 472 00b0 8DF80610 		strb	r1, [sp, #6]
  92:BSP/Camera/ov7725.c ****         ret |= ov7725_WR_Reg(COM7, reg);
 473              		.loc 1 92 9 is_stmt 1 view .LVU113
 474              		.loc 1 92 16 is_stmt 0 view .LVU114
 475 00b4 1220     		movs	r0, #18
 476 00b6 FFF7FEFF 		bl	ov7725_WR_Reg
 477              	.LVL54:
  93:BSP/Camera/ov7725.c **** 
  94:BSP/Camera/ov7725.c ****         // Set QVGA Window Size
  95:BSP/Camera/ov7725.c ****         ret |= ov7725_WR_Reg(HSTART, 0x3F);
 478              		.loc 1 95 9 is_stmt 1 view .LVU115
 479              		.loc 1 95 16 is_stmt 0 view .LVU116
 480 00ba 3F21     		movs	r1, #63
 481 00bc 1720     		movs	r0, #23
 482 00be FFF7FEFF 		bl	ov7725_WR_Reg
 483              	.LVL55:
  96:BSP/Camera/ov7725.c ****         ret |= ov7725_WR_Reg(HSIZE,  0x50);
 484              		.loc 1 96 9 is_stmt 1 view .LVU117
 485              		.loc 1 96 16 is_stmt 0 view .LVU118
 486 00c2 5021     		movs	r1, #80
 487 00c4 1820     		movs	r0, #24
 488 00c6 FFF7FEFF 		bl	ov7725_WR_Reg
 489              	.LVL56:
  97:BSP/Camera/ov7725.c ****         ret |= ov7725_WR_Reg(VSTART, 0x03 - vflip);
 490              		.loc 1 97 9 is_stmt 1 view .LVU119
 491              		.loc 1 97 16 is_stmt 0 view .LVU120
 492 00ca C8F10301 		rsb	r1, r8, #3
 493 00ce C9B2     		uxtb	r1, r1
 494 00d0 1920     		movs	r0, #25
 495 00d2 FFF7FEFF 		bl	ov7725_WR_Reg
 496              	.LVL57:
  98:BSP/Camera/ov7725.c ****         ret |= ov7725_WR_Reg(VSIZE,  0x78);
 497              		.loc 1 98 9 is_stmt 1 view .LVU121
 498              		.loc 1 98 16 is_stmt 0 view .LVU122
 499 00d6 7821     		movs	r1, #120
 500 00d8 1A20     		movs	r0, #26
 501 00da FFF7FEFF 		bl	ov7725_WR_Reg
 502              	.LVL58:
  99:BSP/Camera/ov7725.c **** 
 100:BSP/Camera/ov7725.c ****         // Enable auto-scaling/zooming factors
 101:BSP/Camera/ov7725.c ****         ret |= ov7725_WR_Reg(DSPAUTO, 0xFF);
 503              		.loc 1 101 9 is_stmt 1 view .LVU123
 504              		.loc 1 101 16 is_stmt 0 view .LVU124
 505 00de FF21     		movs	r1, #255
 506 00e0 AC20     		movs	r0, #172
 507 00e2 FFF7FEFF 		bl	ov7725_WR_Reg
 508              	.LVL59:
ARM GAS  /var/folders/g1/j12m_ky910s3_sv7d4yrsdn00000gn/T//cccysuHP.s 			page 12


 509              	.L25:
 510              		.loc 1 101 16 view .LVU125
 511              	.LBE3:
 102:BSP/Camera/ov7725.c ****     } else {
 103:BSP/Camera/ov7725.c ****         // Set VGA Resolution
 104:BSP/Camera/ov7725.c ****         uint8_t reg;
 105:BSP/Camera/ov7725.c ****         int ret = ov7725_RD_Reg(COM7, &reg);
 106:BSP/Camera/ov7725.c ****         reg = COM7_SET_RES(reg, COM7_RES_VGA);
 107:BSP/Camera/ov7725.c ****         ret |= ov7725_WR_Reg(COM7, reg);
 108:BSP/Camera/ov7725.c **** 
 109:BSP/Camera/ov7725.c ****         // Set VGA Window Size
 110:BSP/Camera/ov7725.c ****         ret |= ov7725_WR_Reg(HSTART, 0x23);
 111:BSP/Camera/ov7725.c ****         ret |= ov7725_WR_Reg(HSIZE,  0xA0);
 112:BSP/Camera/ov7725.c ****         ret |= ov7725_WR_Reg(VSTART, 0x07 - vflip);
 113:BSP/Camera/ov7725.c ****         ret |= ov7725_WR_Reg(VSIZE,  0xF0);
 114:BSP/Camera/ov7725.c **** 
 115:BSP/Camera/ov7725.c ****         // Disable auto-scaling/zooming factors
 116:BSP/Camera/ov7725.c ****         ret |= ov7725_WR_Reg(DSPAUTO, 0xF3);
 117:BSP/Camera/ov7725.c **** 
 118:BSP/Camera/ov7725.c ****         // Clear auto-scaling/zooming factors
 119:BSP/Camera/ov7725.c ****         ret |= ov7725_WR_Reg(SCAL0, 0x00);
 120:BSP/Camera/ov7725.c ****         ret |= ov7725_WR_Reg(SCAL1, 0x40);
 121:BSP/Camera/ov7725.c ****         ret |= ov7725_WR_Reg(SCAL2, 0x40);
 122:BSP/Camera/ov7725.c ****     }
 123:BSP/Camera/ov7725.c **** 
 124:BSP/Camera/ov7725.c ****     return ret;
 125:BSP/Camera/ov7725.c **** }
 512              		.loc 1 125 1 view .LVU126
 513 00e6 2046     		mov	r0, r4
 514 00e8 02B0     		add	sp, sp, #8
 515              	.LCFI11:
 516              		.cfi_remember_state
 517              		.cfi_def_cfa_offset 32
 518              		@ sp needed
 519 00ea BDE8F087 		pop	{r4, r5, r6, r7, r8, r9, r10, pc}
 520              	.LVL60:
 521              	.L32:
 522              	.LCFI12:
 523              		.cfi_restore_state
  85:BSP/Camera/ov7725.c **** 
 524              		.loc 1 85 45 discriminator 1 view .LVU127
 525 00ee 4021     		movs	r1, #64
 526 00f0 CAE7     		b	.L27
 527              	.LVL61:
 528              	.L28:
 529              	.LBB4:
 104:BSP/Camera/ov7725.c ****         int ret = ov7725_RD_Reg(COM7, &reg);
 530              		.loc 1 104 9 is_stmt 1 view .LVU128
 105:BSP/Camera/ov7725.c ****         reg = COM7_SET_RES(reg, COM7_RES_VGA);
 531              		.loc 1 105 9 view .LVU129
 105:BSP/Camera/ov7725.c ****         reg = COM7_SET_RES(reg, COM7_RES_VGA);
 532              		.loc 1 105 19 is_stmt 0 view .LVU130
 533 00f2 0DF10601 		add	r1, sp, #6
 534 00f6 1220     		movs	r0, #18
 535 00f8 FFF7FEFF 		bl	ov7725_RD_Reg
 536              	.LVL62:
 106:BSP/Camera/ov7725.c ****         ret |= ov7725_WR_Reg(COM7, reg);
ARM GAS  /var/folders/g1/j12m_ky910s3_sv7d4yrsdn00000gn/T//cccysuHP.s 			page 13


 537              		.loc 1 106 9 is_stmt 1 view .LVU131
 106:BSP/Camera/ov7725.c ****         ret |= ov7725_WR_Reg(COM7, reg);
 538              		.loc 1 106 15 is_stmt 0 view .LVU132
 539 00fc 9DF80610 		ldrb	r1, [sp, #6]	@ zero_extendqisi2
 540 0100 01F0BF01 		and	r1, r1, #191
 106:BSP/Camera/ov7725.c ****         ret |= ov7725_WR_Reg(COM7, reg);
 541              		.loc 1 106 13 view .LVU133
 542 0104 8DF80610 		strb	r1, [sp, #6]
 107:BSP/Camera/ov7725.c **** 
 543              		.loc 1 107 9 is_stmt 1 view .LVU134
 107:BSP/Camera/ov7725.c **** 
 544              		.loc 1 107 16 is_stmt 0 view .LVU135
 545 0108 1220     		movs	r0, #18
 546 010a FFF7FEFF 		bl	ov7725_WR_Reg
 547              	.LVL63:
 110:BSP/Camera/ov7725.c ****         ret |= ov7725_WR_Reg(HSIZE,  0xA0);
 548              		.loc 1 110 9 is_stmt 1 view .LVU136
 110:BSP/Camera/ov7725.c ****         ret |= ov7725_WR_Reg(HSIZE,  0xA0);
 549              		.loc 1 110 16 is_stmt 0 view .LVU137
 550 010e 2321     		movs	r1, #35
 551 0110 1720     		movs	r0, #23
 552 0112 FFF7FEFF 		bl	ov7725_WR_Reg
 553              	.LVL64:
 111:BSP/Camera/ov7725.c ****         ret |= ov7725_WR_Reg(VSTART, 0x07 - vflip);
 554              		.loc 1 111 9 is_stmt 1 view .LVU138
 111:BSP/Camera/ov7725.c ****         ret |= ov7725_WR_Reg(VSTART, 0x07 - vflip);
 555              		.loc 1 111 16 is_stmt 0 view .LVU139
 556 0116 A021     		movs	r1, #160
 557 0118 1820     		movs	r0, #24
 558 011a FFF7FEFF 		bl	ov7725_WR_Reg
 559              	.LVL65:
 112:BSP/Camera/ov7725.c ****         ret |= ov7725_WR_Reg(VSIZE,  0xF0);
 560              		.loc 1 112 9 is_stmt 1 view .LVU140
 112:BSP/Camera/ov7725.c ****         ret |= ov7725_WR_Reg(VSIZE,  0xF0);
 561              		.loc 1 112 16 is_stmt 0 view .LVU141
 562 011e C8F10701 		rsb	r1, r8, #7
 563 0122 C9B2     		uxtb	r1, r1
 564 0124 1920     		movs	r0, #25
 565 0126 FFF7FEFF 		bl	ov7725_WR_Reg
 566              	.LVL66:
 113:BSP/Camera/ov7725.c **** 
 567              		.loc 1 113 9 is_stmt 1 view .LVU142
 113:BSP/Camera/ov7725.c **** 
 568              		.loc 1 113 16 is_stmt 0 view .LVU143
 569 012a F021     		movs	r1, #240
 570 012c 1A20     		movs	r0, #26
 571 012e FFF7FEFF 		bl	ov7725_WR_Reg
 572              	.LVL67:
 116:BSP/Camera/ov7725.c **** 
 573              		.loc 1 116 9 is_stmt 1 view .LVU144
 116:BSP/Camera/ov7725.c **** 
 574              		.loc 1 116 16 is_stmt 0 view .LVU145
 575 0132 F321     		movs	r1, #243
 576 0134 AC20     		movs	r0, #172
 577 0136 FFF7FEFF 		bl	ov7725_WR_Reg
 578              	.LVL68:
 119:BSP/Camera/ov7725.c ****         ret |= ov7725_WR_Reg(SCAL1, 0x40);
ARM GAS  /var/folders/g1/j12m_ky910s3_sv7d4yrsdn00000gn/T//cccysuHP.s 			page 14


 579              		.loc 1 119 9 is_stmt 1 view .LVU146
 119:BSP/Camera/ov7725.c ****         ret |= ov7725_WR_Reg(SCAL1, 0x40);
 580              		.loc 1 119 16 is_stmt 0 view .LVU147
 581 013a 0021     		movs	r1, #0
 582 013c A020     		movs	r0, #160
 583 013e FFF7FEFF 		bl	ov7725_WR_Reg
 584              	.LVL69:
 120:BSP/Camera/ov7725.c ****         ret |= ov7725_WR_Reg(SCAL2, 0x40);
 585              		.loc 1 120 9 is_stmt 1 view .LVU148
 120:BSP/Camera/ov7725.c ****         ret |= ov7725_WR_Reg(SCAL2, 0x40);
 586              		.loc 1 120 16 is_stmt 0 view .LVU149
 587 0142 4021     		movs	r1, #64
 588 0144 A120     		movs	r0, #161
 589 0146 FFF7FEFF 		bl	ov7725_WR_Reg
 590              	.LVL70:
 121:BSP/Camera/ov7725.c ****     }
 591              		.loc 1 121 9 is_stmt 1 view .LVU150
 121:BSP/Camera/ov7725.c ****     }
 592              		.loc 1 121 16 is_stmt 0 view .LVU151
 593 014a 4021     		movs	r1, #64
 594 014c A220     		movs	r0, #162
 595 014e FFF7FEFF 		bl	ov7725_WR_Reg
 596              	.LVL71:
 121:BSP/Camera/ov7725.c ****     }
 597              		.loc 1 121 16 view .LVU152
 598 0152 C8E7     		b	.L25
 599              	.LVL72:
 600              	.L29:
 121:BSP/Camera/ov7725.c ****     }
 601              		.loc 1 121 16 view .LVU153
 602              	.LBE4:
  71:BSP/Camera/ov7725.c ****     }
 603              		.loc 1 71 16 view .LVU154
 604 0154 4FF0FF34 		mov	r4, #-1
 605 0158 C5E7     		b	.L25
 606              	.L34:
 607 015a 00BF     		.align	2
 608              	.L33:
 609 015c 00000000 		.word	dvp_cam_resolution
 610              		.cfi_endproc
 611              	.LFE148:
 613              		.section	.text.ov7725_set_hmirror,"ax",%progbits
 614              		.align	1
 615              		.syntax unified
 616              		.thumb
 617              		.thumb_func
 619              	ov7725_set_hmirror:
 620              	.LVL73:
 621              	.LFB149:
 126:BSP/Camera/ov7725.c **** static int ov7725_set_hmirror(int enable)
 127:BSP/Camera/ov7725.c **** {
 622              		.loc 1 127 1 is_stmt 1 view -0
 623              		.cfi_startproc
 624              		@ args = 0, pretend = 0, frame = 8
 625              		@ frame_needed = 0, uses_anonymous_args = 0
 626              		.loc 1 127 1 is_stmt 0 view .LVU156
 627 0000 30B5     		push	{r4, r5, lr}
ARM GAS  /var/folders/g1/j12m_ky910s3_sv7d4yrsdn00000gn/T//cccysuHP.s 			page 15


 628              	.LCFI13:
 629              		.cfi_def_cfa_offset 12
 630              		.cfi_offset 4, -12
 631              		.cfi_offset 5, -8
 632              		.cfi_offset 14, -4
 633 0002 83B0     		sub	sp, sp, #12
 634              	.LCFI14:
 635              		.cfi_def_cfa_offset 24
 636 0004 0446     		mov	r4, r0
 128:BSP/Camera/ov7725.c ****     uint8_t reg;
 637              		.loc 1 128 5 is_stmt 1 view .LVU157
 129:BSP/Camera/ov7725.c ****     int ret = ov7725_RD_Reg(COM3, &reg);
 638              		.loc 1 129 5 view .LVU158
 639              		.loc 1 129 15 is_stmt 0 view .LVU159
 640 0006 0DF10701 		add	r1, sp, #7
 641 000a 0C20     		movs	r0, #12
 642              	.LVL74:
 643              		.loc 1 129 15 view .LVU160
 644 000c FFF7FEFF 		bl	ov7725_RD_Reg
 645              	.LVL75:
 646 0010 0546     		mov	r5, r0
 647              	.LVL76:
 130:BSP/Camera/ov7725.c ****     ret |= ov7725_WR_Reg(COM3, COM3_SET_MIRROR(reg, enable)) ;
 648              		.loc 1 130 5 is_stmt 1 view .LVU161
 649              		.loc 1 130 32 is_stmt 0 view .LVU162
 650 0012 9DF80710 		ldrb	r1, [sp, #7]	@ zero_extendqisi2
 651 0016 A401     		lsls	r4, r4, #6
 652              	.LVL77:
 653              		.loc 1 130 32 view .LVU163
 654 0018 04F04004 		and	r4, r4, #64
 655              		.loc 1 130 12 view .LVU164
 656 001c 21F04001 		bic	r1, r1, #64
 657 0020 2143     		orrs	r1, r1, r4
 658 0022 0C20     		movs	r0, #12
 659 0024 FFF7FEFF 		bl	ov7725_WR_Reg
 660              	.LVL78:
 661              		.loc 1 130 9 discriminator 1 view .LVU165
 662 0028 2843     		orrs	r0, r0, r5
 663              	.LVL79:
 131:BSP/Camera/ov7725.c **** 
 132:BSP/Camera/ov7725.c ****     return ret;
 664              		.loc 1 132 5 is_stmt 1 view .LVU166
 133:BSP/Camera/ov7725.c **** }
 665              		.loc 1 133 1 is_stmt 0 view .LVU167
 666 002a C0B2     		uxtb	r0, r0
 667              	.LVL80:
 668              		.loc 1 133 1 view .LVU168
 669 002c 03B0     		add	sp, sp, #12
 670              	.LCFI15:
 671              		.cfi_def_cfa_offset 12
 672              		@ sp needed
 673 002e 30BD     		pop	{r4, r5, pc}
 674              		.cfi_endproc
 675              	.LFE149:
 677              		.section	.text.ov7725_set_vflip,"ax",%progbits
 678              		.align	1
 679              		.syntax unified
ARM GAS  /var/folders/g1/j12m_ky910s3_sv7d4yrsdn00000gn/T//cccysuHP.s 			page 16


 680              		.thumb
 681              		.thumb_func
 683              	ov7725_set_vflip:
 684              	.LVL81:
 685              	.LFB150:
 134:BSP/Camera/ov7725.c **** 
 135:BSP/Camera/ov7725.c **** static int ov7725_set_vflip(int enable)
 136:BSP/Camera/ov7725.c **** {
 686              		.loc 1 136 1 is_stmt 1 view -0
 687              		.cfi_startproc
 688              		@ args = 0, pretend = 0, frame = 8
 689              		@ frame_needed = 0, uses_anonymous_args = 0
 690              		.loc 1 136 1 is_stmt 0 view .LVU170
 691 0000 30B5     		push	{r4, r5, lr}
 692              	.LCFI16:
 693              		.cfi_def_cfa_offset 12
 694              		.cfi_offset 4, -12
 695              		.cfi_offset 5, -8
 696              		.cfi_offset 14, -4
 697 0002 83B0     		sub	sp, sp, #12
 698              	.LCFI17:
 699              		.cfi_def_cfa_offset 24
 700 0004 0546     		mov	r5, r0
 137:BSP/Camera/ov7725.c ****     uint8_t reg;
 701              		.loc 1 137 5 is_stmt 1 view .LVU171
 138:BSP/Camera/ov7725.c ****     int ret = ov7725_RD_Reg(COM3, &reg);
 702              		.loc 1 138 5 view .LVU172
 703              		.loc 1 138 15 is_stmt 0 view .LVU173
 704 0006 0DF10701 		add	r1, sp, #7
 705 000a 0C20     		movs	r0, #12
 706              	.LVL82:
 707              		.loc 1 138 15 view .LVU174
 708 000c FFF7FEFF 		bl	ov7725_RD_Reg
 709              	.LVL83:
 710 0010 0446     		mov	r4, r0
 711              	.LVL84:
 139:BSP/Camera/ov7725.c ****     ret |= ov7725_WR_Reg(COM3, COM3_SET_FLIP(reg, enable));
 712              		.loc 1 139 5 is_stmt 1 view .LVU175
 713              		.loc 1 139 32 is_stmt 0 view .LVU176
 714 0012 9DF80710 		ldrb	r1, [sp, #7]	@ zero_extendqisi2
 715              		.loc 1 139 12 view .LVU177
 716 0016 01F07F01 		and	r1, r1, #127
 717 001a 41EAC511 		orr	r1, r1, r5, lsl #7
 718 001e C9B2     		uxtb	r1, r1
 719 0020 0C20     		movs	r0, #12
 720 0022 FFF7FEFF 		bl	ov7725_WR_Reg
 721              	.LVL85:
 722              		.loc 1 139 9 discriminator 1 view .LVU178
 723 0026 0443     		orrs	r4, r4, r0
 724              	.LVL86:
 725              		.loc 1 139 9 discriminator 1 view .LVU179
 726 0028 E4B2     		uxtb	r4, r4
 727              	.LVL87:
 140:BSP/Camera/ov7725.c ****     // Apply new vertical flip setting.
 141:BSP/Camera/ov7725.c ****     ret |= ov7725_set_framesize(hcamera.framesize);
 728              		.loc 1 141 5 is_stmt 1 view .LVU180
 729              		.loc 1 141 12 is_stmt 0 view .LVU181
ARM GAS  /var/folders/g1/j12m_ky910s3_sv7d4yrsdn00000gn/T//cccysuHP.s 			page 17


 730 002a 034B     		ldr	r3, .L39
 731 002c 187C     		ldrb	r0, [r3, #16]	@ zero_extendqisi2
 732 002e FFF7FEFF 		bl	ov7725_set_framesize
 733              	.LVL88:
 142:BSP/Camera/ov7725.c **** 
 143:BSP/Camera/ov7725.c ****     return ret;
 734              		.loc 1 143 5 is_stmt 1 view .LVU182
 144:BSP/Camera/ov7725.c **** }
 735              		.loc 1 144 1 is_stmt 0 view .LVU183
 736 0032 2043     		orrs	r0, r0, r4
 737              	.LVL89:
 738              		.loc 1 144 1 view .LVU184
 739 0034 03B0     		add	sp, sp, #12
 740              	.LCFI18:
 741              		.cfi_def_cfa_offset 12
 742              		@ sp needed
 743 0036 30BD     		pop	{r4, r5, pc}
 744              	.LVL90:
 745              	.L40:
 746              		.loc 1 144 1 view .LVU185
 747              		.align	2
 748              	.L39:
 749 0038 00000000 		.word	hcamera
 750              		.cfi_endproc
 751              	.LFE150:
 753              		.section	.text.ov7725_init,"ax",%progbits
 754              		.align	1
 755              		.global	ov7725_init
 756              		.syntax unified
 757              		.thumb
 758              		.thumb_func
 760              	ov7725_init:
 761              	.LVL91:
 762              	.LFB151:
 145:BSP/Camera/ov7725.c **** 
 146:BSP/Camera/ov7725.c **** int ov7725_init(framesize_t framesize)
 147:BSP/Camera/ov7725.c **** {
 763              		.loc 1 147 1 is_stmt 1 view -0
 764              		.cfi_startproc
 765              		@ args = 0, pretend = 0, frame = 0
 766              		@ frame_needed = 0, uses_anonymous_args = 0
 767              		.loc 1 147 1 is_stmt 0 view .LVU187
 768 0000 38B5     		push	{r3, r4, r5, lr}
 769              	.LCFI19:
 770              		.cfi_def_cfa_offset 16
 771              		.cfi_offset 3, -16
 772              		.cfi_offset 4, -12
 773              		.cfi_offset 5, -8
 774              		.cfi_offset 14, -4
 775 0002 0446     		mov	r4, r0
 148:BSP/Camera/ov7725.c **** 	ov7725_reset();
 776              		.loc 1 148 2 is_stmt 1 view .LVU188
 777 0004 FFF7FEFF 		bl	ov7725_reset
 778              	.LVL92:
 149:BSP/Camera/ov7725.c **** 	hcamera.framesize = framesize;
 779              		.loc 1 149 2 view .LVU189
 780              		.loc 1 149 20 is_stmt 0 view .LVU190
ARM GAS  /var/folders/g1/j12m_ky910s3_sv7d4yrsdn00000gn/T//cccysuHP.s 			page 18


 781 0008 084D     		ldr	r5, .L43
 782 000a 2C74     		strb	r4, [r5, #16]
 150:BSP/Camera/ov7725.c **** 	hcamera.pixformat = PIXFORMAT_RGB565;
 783              		.loc 1 150 2 is_stmt 1 view .LVU191
 784              		.loc 1 150 20 is_stmt 0 view .LVU192
 785 000c 0124     		movs	r4, #1
 786              	.LVL93:
 787              		.loc 1 150 20 view .LVU193
 788 000e 6C74     		strb	r4, [r5, #17]
 151:BSP/Camera/ov7725.c **** 	ov7725_set_pixformat(hcamera.pixformat);
 789              		.loc 1 151 2 is_stmt 1 view .LVU194
 790 0010 2046     		mov	r0, r4
 791 0012 FFF7FEFF 		bl	ov7725_set_pixformat
 792              	.LVL94:
 152:BSP/Camera/ov7725.c **** 	ov7725_set_framesize(hcamera.framesize);
 793              		.loc 1 152 2 view .LVU195
 794 0016 287C     		ldrb	r0, [r5, #16]	@ zero_extendqisi2
 795 0018 FFF7FEFF 		bl	ov7725_set_framesize
 796              	.LVL95:
 153:BSP/Camera/ov7725.c **** 	ov7725_set_hmirror(1);
 797              		.loc 1 153 2 view .LVU196
 798 001c 2046     		mov	r0, r4
 799 001e FFF7FEFF 		bl	ov7725_set_hmirror
 800              	.LVL96:
 154:BSP/Camera/ov7725.c **** 	ov7725_set_vflip(1);
 801              		.loc 1 154 2 view .LVU197
 802 0022 2046     		mov	r0, r4
 803 0024 FFF7FEFF 		bl	ov7725_set_vflip
 804              	.LVL97:
 155:BSP/Camera/ov7725.c **** 	
 156:BSP/Camera/ov7725.c **** 	return 1;
 805              		.loc 1 156 2 view .LVU198
 157:BSP/Camera/ov7725.c **** }
 806              		.loc 1 157 1 is_stmt 0 view .LVU199
 807 0028 2046     		mov	r0, r4
 808 002a 38BD     		pop	{r3, r4, r5, pc}
 809              	.L44:
 810              		.align	2
 811              	.L43:
 812 002c 00000000 		.word	hcamera
 813              		.cfi_endproc
 814              	.LFE151:
 816              		.text
 817              	.Letext0:
 818              		.file 2 "/Users/zhy/Tools/xpack-arm-none-eabi-gcc-14.2.1-1.1/arm-none-eabi/include/machine/_defaul
 819              		.file 3 "/Users/zhy/Tools/xpack-arm-none-eabi-gcc-14.2.1-1.1/arm-none-eabi/include/sys/_stdint.h"
 820              		.file 4 "Drivers/CMSIS/Device/ST/STM32H7xx/Include/stm32h743xx.h"
 821              		.file 5 "Drivers/STM32H7xx_HAL_Driver/Inc/stm32h7xx_hal_def.h"
 822              		.file 6 "Drivers/STM32H7xx_HAL_Driver/Inc/stm32h7xx_hal_dma.h"
 823              		.file 7 "Drivers/STM32H7xx_HAL_Driver/Inc/stm32h7xx_hal_i2c.h"
 824              		.file 8 "BSP/Camera/camera.h"
 825              		.file 9 "BSP/Camera/ov7725_regs.h"
 826              		.file 10 "Drivers/STM32H7xx_HAL_Driver/Inc/stm32h7xx_hal.h"
ARM GAS  /var/folders/g1/j12m_ky910s3_sv7d4yrsdn00000gn/T//cccysuHP.s 			page 19

