ARM GAS  /var/folders/g1/j12m_ky910s3_sv7d4yrsdn00000gn/T//ccmnBD4l.s 			page 1


   1              		.cpu cortex-m7
   2              		.arch armv7e-m
   3              		.fpu fpv5-d16
   4              		.eabi_attribute 28, 1
   5              		.eabi_attribute 20, 1
   6              		.eabi_attribute 21, 1
   7              		.eabi_attribute 23, 3
   8              		.eabi_attribute 24, 1
   9              		.eabi_attribute 25, 1
  10              		.eabi_attribute 26, 1
  11              		.eabi_attribute 30, 1
  12              		.eabi_attribute 34, 1
  13              		.eabi_attribute 18, 4
  14              		.file	"stm32h7xx_hal_rcc.c"
  15              		.text
  16              	.Ltext0:
  17              		.cfi_sections	.debug_frame
  18              		.file 1 "Drivers/STM32H7xx_HAL_Driver/Src/stm32h7xx_hal_rcc.c"
  19              		.section	.text.HAL_RCC_DeInit,"ax",%progbits
  20              		.align	1
  21              		.global	HAL_RCC_DeInit
  22              		.syntax unified
  23              		.thumb
  24              		.thumb_func
  26              	HAL_RCC_DeInit:
  27              	.LFB144:
   1:Drivers/STM32H7xx_HAL_Driver/Src/stm32h7xx_hal_rcc.c **** /**
   2:Drivers/STM32H7xx_HAL_Driver/Src/stm32h7xx_hal_rcc.c ****   ******************************************************************************
   3:Drivers/STM32H7xx_HAL_Driver/Src/stm32h7xx_hal_rcc.c ****   * @file    stm32h7xx_hal_rcc.c
   4:Drivers/STM32H7xx_HAL_Driver/Src/stm32h7xx_hal_rcc.c ****   * @author  MCD Application Team
   5:Drivers/STM32H7xx_HAL_Driver/Src/stm32h7xx_hal_rcc.c ****   * @brief   RCC HAL module driver.
   6:Drivers/STM32H7xx_HAL_Driver/Src/stm32h7xx_hal_rcc.c ****   *          This file provides firmware functions to manage the following
   7:Drivers/STM32H7xx_HAL_Driver/Src/stm32h7xx_hal_rcc.c ****   *          functionalities of the Reset and Clock Control (RCC) peripheral:
   8:Drivers/STM32H7xx_HAL_Driver/Src/stm32h7xx_hal_rcc.c ****   *           + Initialization and de-initialization functions
   9:Drivers/STM32H7xx_HAL_Driver/Src/stm32h7xx_hal_rcc.c ****   *           + Peripheral Control functions
  10:Drivers/STM32H7xx_HAL_Driver/Src/stm32h7xx_hal_rcc.c ****   *
  11:Drivers/STM32H7xx_HAL_Driver/Src/stm32h7xx_hal_rcc.c ****   @verbatim
  12:Drivers/STM32H7xx_HAL_Driver/Src/stm32h7xx_hal_rcc.c ****   ==============================================================================
  13:Drivers/STM32H7xx_HAL_Driver/Src/stm32h7xx_hal_rcc.c ****                       ##### RCC specific features #####
  14:Drivers/STM32H7xx_HAL_Driver/Src/stm32h7xx_hal_rcc.c ****   ==============================================================================
  15:Drivers/STM32H7xx_HAL_Driver/Src/stm32h7xx_hal_rcc.c ****     [..]
  16:Drivers/STM32H7xx_HAL_Driver/Src/stm32h7xx_hal_rcc.c ****       After reset the device is running from Internal High Speed oscillator
  17:Drivers/STM32H7xx_HAL_Driver/Src/stm32h7xx_hal_rcc.c ****       (HSI 64MHz) with Flash 0 wait state,and all peripherals are off except
  18:Drivers/STM32H7xx_HAL_Driver/Src/stm32h7xx_hal_rcc.c ****       internal SRAM, Flash, JTAG and PWR
  19:Drivers/STM32H7xx_HAL_Driver/Src/stm32h7xx_hal_rcc.c ****       (+) There is no pre-scaler on High speed (AHB) and Low speed (APB) buses;
  20:Drivers/STM32H7xx_HAL_Driver/Src/stm32h7xx_hal_rcc.c ****           all peripherals mapped on these buses are running at HSI speed.
  21:Drivers/STM32H7xx_HAL_Driver/Src/stm32h7xx_hal_rcc.c ****       (+) The clock for all peripherals is switched off, except the SRAM and FLASH.
  22:Drivers/STM32H7xx_HAL_Driver/Src/stm32h7xx_hal_rcc.c ****       (+) All GPIOs are in analogue mode , except the JTAG pins which
  23:Drivers/STM32H7xx_HAL_Driver/Src/stm32h7xx_hal_rcc.c ****           are assigned to be used for debug purpose.
  24:Drivers/STM32H7xx_HAL_Driver/Src/stm32h7xx_hal_rcc.c **** 
  25:Drivers/STM32H7xx_HAL_Driver/Src/stm32h7xx_hal_rcc.c ****     [..]
  26:Drivers/STM32H7xx_HAL_Driver/Src/stm32h7xx_hal_rcc.c ****       Once the device started from reset, the user application has to:
  27:Drivers/STM32H7xx_HAL_Driver/Src/stm32h7xx_hal_rcc.c ****       (+) Configure the clock source to be used to drive the System clock
  28:Drivers/STM32H7xx_HAL_Driver/Src/stm32h7xx_hal_rcc.c ****           (if the application needs higher frequency/performance)
  29:Drivers/STM32H7xx_HAL_Driver/Src/stm32h7xx_hal_rcc.c ****       (+) Configure the System clock frequency and Flash settings
  30:Drivers/STM32H7xx_HAL_Driver/Src/stm32h7xx_hal_rcc.c ****       (+) Configure the AHB and APB buses pre-scalers
  31:Drivers/STM32H7xx_HAL_Driver/Src/stm32h7xx_hal_rcc.c ****       (+) Enable the clock for the peripheral(s) to be used
ARM GAS  /var/folders/g1/j12m_ky910s3_sv7d4yrsdn00000gn/T//ccmnBD4l.s 			page 2


  32:Drivers/STM32H7xx_HAL_Driver/Src/stm32h7xx_hal_rcc.c ****       (+) Configure the clock kernel source(s) for peripherals which clocks are not
  33:Drivers/STM32H7xx_HAL_Driver/Src/stm32h7xx_hal_rcc.c ****           derived from the System clock through :RCC_D1CCIPR,RCC_D2CCIP1R,RCC_D2CCIP2R
  34:Drivers/STM32H7xx_HAL_Driver/Src/stm32h7xx_hal_rcc.c ****           and RCC_D3CCIPR registers
  35:Drivers/STM32H7xx_HAL_Driver/Src/stm32h7xx_hal_rcc.c **** 
  36:Drivers/STM32H7xx_HAL_Driver/Src/stm32h7xx_hal_rcc.c ****                       ##### RCC Limitations #####
  37:Drivers/STM32H7xx_HAL_Driver/Src/stm32h7xx_hal_rcc.c ****   ==============================================================================
  38:Drivers/STM32H7xx_HAL_Driver/Src/stm32h7xx_hal_rcc.c ****     [..]
  39:Drivers/STM32H7xx_HAL_Driver/Src/stm32h7xx_hal_rcc.c ****       A delay between an RCC peripheral clock enable and the effective peripheral
  40:Drivers/STM32H7xx_HAL_Driver/Src/stm32h7xx_hal_rcc.c ****       enabling should be taken into account in order to manage the peripheral read/write
  41:Drivers/STM32H7xx_HAL_Driver/Src/stm32h7xx_hal_rcc.c ****       from/to registers.
  42:Drivers/STM32H7xx_HAL_Driver/Src/stm32h7xx_hal_rcc.c ****       (+) This delay depends on the peripheral mapping.
  43:Drivers/STM32H7xx_HAL_Driver/Src/stm32h7xx_hal_rcc.c ****       (+) If peripheral is mapped on AHB: the delay is 2 AHB clock cycle
  44:Drivers/STM32H7xx_HAL_Driver/Src/stm32h7xx_hal_rcc.c ****           after the clock enable bit is set on the hardware register
  45:Drivers/STM32H7xx_HAL_Driver/Src/stm32h7xx_hal_rcc.c ****       (+) If peripheral is mapped on APB: the delay is 2 APB clock cycle
  46:Drivers/STM32H7xx_HAL_Driver/Src/stm32h7xx_hal_rcc.c ****           after the clock enable bit is set on the hardware register
  47:Drivers/STM32H7xx_HAL_Driver/Src/stm32h7xx_hal_rcc.c **** 
  48:Drivers/STM32H7xx_HAL_Driver/Src/stm32h7xx_hal_rcc.c ****     [..]
  49:Drivers/STM32H7xx_HAL_Driver/Src/stm32h7xx_hal_rcc.c ****       Implemented Workaround:
  50:Drivers/STM32H7xx_HAL_Driver/Src/stm32h7xx_hal_rcc.c ****       (+) For AHB & APB peripherals, a dummy read to the peripheral register has been
  51:Drivers/STM32H7xx_HAL_Driver/Src/stm32h7xx_hal_rcc.c ****           inserted in each __HAL_RCC_PPP_CLK_ENABLE() macro.
  52:Drivers/STM32H7xx_HAL_Driver/Src/stm32h7xx_hal_rcc.c **** 
  53:Drivers/STM32H7xx_HAL_Driver/Src/stm32h7xx_hal_rcc.c ****   @endverbatim
  54:Drivers/STM32H7xx_HAL_Driver/Src/stm32h7xx_hal_rcc.c ****  ******************************************************************************
  55:Drivers/STM32H7xx_HAL_Driver/Src/stm32h7xx_hal_rcc.c ****   * @attention
  56:Drivers/STM32H7xx_HAL_Driver/Src/stm32h7xx_hal_rcc.c ****   *
  57:Drivers/STM32H7xx_HAL_Driver/Src/stm32h7xx_hal_rcc.c ****   * Copyright (c) 2017 STMicroelectronics.
  58:Drivers/STM32H7xx_HAL_Driver/Src/stm32h7xx_hal_rcc.c ****   * All rights reserved.
  59:Drivers/STM32H7xx_HAL_Driver/Src/stm32h7xx_hal_rcc.c ****   *
  60:Drivers/STM32H7xx_HAL_Driver/Src/stm32h7xx_hal_rcc.c ****   * This software is licensed under terms that can be found in the LICENSE file in
  61:Drivers/STM32H7xx_HAL_Driver/Src/stm32h7xx_hal_rcc.c ****   * the root directory of this software component.
  62:Drivers/STM32H7xx_HAL_Driver/Src/stm32h7xx_hal_rcc.c ****   * If no LICENSE file comes with this software, it is provided AS-IS.
  63:Drivers/STM32H7xx_HAL_Driver/Src/stm32h7xx_hal_rcc.c ****   ******************************************************************************
  64:Drivers/STM32H7xx_HAL_Driver/Src/stm32h7xx_hal_rcc.c ****   */
  65:Drivers/STM32H7xx_HAL_Driver/Src/stm32h7xx_hal_rcc.c **** 
  66:Drivers/STM32H7xx_HAL_Driver/Src/stm32h7xx_hal_rcc.c **** /* Includes ------------------------------------------------------------------*/
  67:Drivers/STM32H7xx_HAL_Driver/Src/stm32h7xx_hal_rcc.c **** #include "stm32h7xx_hal.h"
  68:Drivers/STM32H7xx_HAL_Driver/Src/stm32h7xx_hal_rcc.c **** 
  69:Drivers/STM32H7xx_HAL_Driver/Src/stm32h7xx_hal_rcc.c **** /** @addtogroup STM32H7xx_HAL_Driver
  70:Drivers/STM32H7xx_HAL_Driver/Src/stm32h7xx_hal_rcc.c ****   * @{
  71:Drivers/STM32H7xx_HAL_Driver/Src/stm32h7xx_hal_rcc.c ****   */
  72:Drivers/STM32H7xx_HAL_Driver/Src/stm32h7xx_hal_rcc.c **** 
  73:Drivers/STM32H7xx_HAL_Driver/Src/stm32h7xx_hal_rcc.c **** /** @defgroup RCC  RCC
  74:Drivers/STM32H7xx_HAL_Driver/Src/stm32h7xx_hal_rcc.c ****   * @brief RCC HAL module driver
  75:Drivers/STM32H7xx_HAL_Driver/Src/stm32h7xx_hal_rcc.c ****   * @{
  76:Drivers/STM32H7xx_HAL_Driver/Src/stm32h7xx_hal_rcc.c ****   */
  77:Drivers/STM32H7xx_HAL_Driver/Src/stm32h7xx_hal_rcc.c **** 
  78:Drivers/STM32H7xx_HAL_Driver/Src/stm32h7xx_hal_rcc.c **** #ifdef HAL_RCC_MODULE_ENABLED
  79:Drivers/STM32H7xx_HAL_Driver/Src/stm32h7xx_hal_rcc.c **** 
  80:Drivers/STM32H7xx_HAL_Driver/Src/stm32h7xx_hal_rcc.c **** /* Private typedef -----------------------------------------------------------*/
  81:Drivers/STM32H7xx_HAL_Driver/Src/stm32h7xx_hal_rcc.c **** /* Private define ------------------------------------------------------------*/
  82:Drivers/STM32H7xx_HAL_Driver/Src/stm32h7xx_hal_rcc.c **** /* Private macro -------------------------------------------------------------*/
  83:Drivers/STM32H7xx_HAL_Driver/Src/stm32h7xx_hal_rcc.c **** /** @defgroup RCC_Private_Macros RCC Private Macros
  84:Drivers/STM32H7xx_HAL_Driver/Src/stm32h7xx_hal_rcc.c ****   * @{
  85:Drivers/STM32H7xx_HAL_Driver/Src/stm32h7xx_hal_rcc.c ****   */
  86:Drivers/STM32H7xx_HAL_Driver/Src/stm32h7xx_hal_rcc.c **** #define MCO1_CLK_ENABLE()     __HAL_RCC_GPIOA_CLK_ENABLE()
  87:Drivers/STM32H7xx_HAL_Driver/Src/stm32h7xx_hal_rcc.c **** #define MCO1_GPIO_PORT        GPIOA
  88:Drivers/STM32H7xx_HAL_Driver/Src/stm32h7xx_hal_rcc.c **** #define MCO1_PIN              GPIO_PIN_8
ARM GAS  /var/folders/g1/j12m_ky910s3_sv7d4yrsdn00000gn/T//ccmnBD4l.s 			page 3


  89:Drivers/STM32H7xx_HAL_Driver/Src/stm32h7xx_hal_rcc.c **** 
  90:Drivers/STM32H7xx_HAL_Driver/Src/stm32h7xx_hal_rcc.c **** #define MCO2_CLK_ENABLE()      __HAL_RCC_GPIOC_CLK_ENABLE()
  91:Drivers/STM32H7xx_HAL_Driver/Src/stm32h7xx_hal_rcc.c **** #define MCO2_GPIO_PORT         GPIOC
  92:Drivers/STM32H7xx_HAL_Driver/Src/stm32h7xx_hal_rcc.c **** #define MCO2_PIN               GPIO_PIN_9
  93:Drivers/STM32H7xx_HAL_Driver/Src/stm32h7xx_hal_rcc.c **** 
  94:Drivers/STM32H7xx_HAL_Driver/Src/stm32h7xx_hal_rcc.c **** /**
  95:Drivers/STM32H7xx_HAL_Driver/Src/stm32h7xx_hal_rcc.c ****   * @}
  96:Drivers/STM32H7xx_HAL_Driver/Src/stm32h7xx_hal_rcc.c ****   */
  97:Drivers/STM32H7xx_HAL_Driver/Src/stm32h7xx_hal_rcc.c **** /* Private variables ---------------------------------------------------------*/
  98:Drivers/STM32H7xx_HAL_Driver/Src/stm32h7xx_hal_rcc.c **** /** @defgroup RCC_Private_Variables RCC Private Variables
  99:Drivers/STM32H7xx_HAL_Driver/Src/stm32h7xx_hal_rcc.c ****   * @{
 100:Drivers/STM32H7xx_HAL_Driver/Src/stm32h7xx_hal_rcc.c ****   */
 101:Drivers/STM32H7xx_HAL_Driver/Src/stm32h7xx_hal_rcc.c **** 
 102:Drivers/STM32H7xx_HAL_Driver/Src/stm32h7xx_hal_rcc.c **** /**
 103:Drivers/STM32H7xx_HAL_Driver/Src/stm32h7xx_hal_rcc.c ****   * @}
 104:Drivers/STM32H7xx_HAL_Driver/Src/stm32h7xx_hal_rcc.c ****   */
 105:Drivers/STM32H7xx_HAL_Driver/Src/stm32h7xx_hal_rcc.c **** /* Private function prototypes -----------------------------------------------*/
 106:Drivers/STM32H7xx_HAL_Driver/Src/stm32h7xx_hal_rcc.c **** /* Exported functions --------------------------------------------------------*/
 107:Drivers/STM32H7xx_HAL_Driver/Src/stm32h7xx_hal_rcc.c **** 
 108:Drivers/STM32H7xx_HAL_Driver/Src/stm32h7xx_hal_rcc.c **** /** @defgroup RCC_Exported_Functions RCC Exported Functions
 109:Drivers/STM32H7xx_HAL_Driver/Src/stm32h7xx_hal_rcc.c ****   * @{
 110:Drivers/STM32H7xx_HAL_Driver/Src/stm32h7xx_hal_rcc.c ****   */
 111:Drivers/STM32H7xx_HAL_Driver/Src/stm32h7xx_hal_rcc.c **** 
 112:Drivers/STM32H7xx_HAL_Driver/Src/stm32h7xx_hal_rcc.c **** /** @defgroup RCC_Exported_Functions_Group1 Initialization and de-initialization functions
 113:Drivers/STM32H7xx_HAL_Driver/Src/stm32h7xx_hal_rcc.c ****  *  @brief    Initialization and Configuration functions
 114:Drivers/STM32H7xx_HAL_Driver/Src/stm32h7xx_hal_rcc.c ****  *
 115:Drivers/STM32H7xx_HAL_Driver/Src/stm32h7xx_hal_rcc.c **** @verbatim
 116:Drivers/STM32H7xx_HAL_Driver/Src/stm32h7xx_hal_rcc.c ****  ===============================================================================
 117:Drivers/STM32H7xx_HAL_Driver/Src/stm32h7xx_hal_rcc.c ****            ##### Initialization and de-initialization functions #####
 118:Drivers/STM32H7xx_HAL_Driver/Src/stm32h7xx_hal_rcc.c ****  ===============================================================================
 119:Drivers/STM32H7xx_HAL_Driver/Src/stm32h7xx_hal_rcc.c ****     [..]
 120:Drivers/STM32H7xx_HAL_Driver/Src/stm32h7xx_hal_rcc.c ****       This section provides functions allowing to configure the internal/external oscillators
 121:Drivers/STM32H7xx_HAL_Driver/Src/stm32h7xx_hal_rcc.c ****       (HSE, HSI, LSE,CSI, LSI,HSI48, PLL, CSS and MCO) and the System buses clocks (SYSCLK, AHB3, A
 122:Drivers/STM32H7xx_HAL_Driver/Src/stm32h7xx_hal_rcc.c ****        AHB2,AHB4,APB3, APB1L, APB1H, APB2, and APB4).
 123:Drivers/STM32H7xx_HAL_Driver/Src/stm32h7xx_hal_rcc.c **** 
 124:Drivers/STM32H7xx_HAL_Driver/Src/stm32h7xx_hal_rcc.c ****     [..] Internal/external clock and PLL configuration
 125:Drivers/STM32H7xx_HAL_Driver/Src/stm32h7xx_hal_rcc.c ****          (#) HSI (high-speed internal), 64 MHz factory-trimmed RC used directly or through
 126:Drivers/STM32H7xx_HAL_Driver/Src/stm32h7xx_hal_rcc.c ****              the PLL as System clock source.
 127:Drivers/STM32H7xx_HAL_Driver/Src/stm32h7xx_hal_rcc.c ****          (#) CSI is a low-power RC oscillator which can be used directly as system clock, periphera
 128:Drivers/STM32H7xx_HAL_Driver/Src/stm32h7xx_hal_rcc.c ****              clock, or PLL input.But even with frequency calibration, is less accurate than an
 129:Drivers/STM32H7xx_HAL_Driver/Src/stm32h7xx_hal_rcc.c ****              external crystal oscillator or ceramic resonator.
 130:Drivers/STM32H7xx_HAL_Driver/Src/stm32h7xx_hal_rcc.c ****          (#) LSI (low-speed internal), 32 KHz low consumption RC used as IWDG and/or RTC
 131:Drivers/STM32H7xx_HAL_Driver/Src/stm32h7xx_hal_rcc.c ****              clock source.
 132:Drivers/STM32H7xx_HAL_Driver/Src/stm32h7xx_hal_rcc.c **** 
 133:Drivers/STM32H7xx_HAL_Driver/Src/stm32h7xx_hal_rcc.c ****          (#) HSE (high-speed external), 4 to 48 MHz crystal oscillator used directly or
 134:Drivers/STM32H7xx_HAL_Driver/Src/stm32h7xx_hal_rcc.c ****              through the PLL as System clock source. Can be used also as RTC clock source.
 135:Drivers/STM32H7xx_HAL_Driver/Src/stm32h7xx_hal_rcc.c **** 
 136:Drivers/STM32H7xx_HAL_Driver/Src/stm32h7xx_hal_rcc.c ****          (#) LSE (low-speed external), 32 KHz oscillator used as RTC clock source.
 137:Drivers/STM32H7xx_HAL_Driver/Src/stm32h7xx_hal_rcc.c **** 
 138:Drivers/STM32H7xx_HAL_Driver/Src/stm32h7xx_hal_rcc.c ****          (#) PLL , The RCC features three independent PLLs (clocked by HSI , HSE or CSI),
 139:Drivers/STM32H7xx_HAL_Driver/Src/stm32h7xx_hal_rcc.c ****              featuring three different output clocks and able  to work either in integer or Fractio
 140:Drivers/STM32H7xx_HAL_Driver/Src/stm32h7xx_hal_rcc.c ****            (++) A main PLL, PLL1, which is generally used to provide clocks to the CPU
 141:Drivers/STM32H7xx_HAL_Driver/Src/stm32h7xx_hal_rcc.c ****                 and to some peripherals.
 142:Drivers/STM32H7xx_HAL_Driver/Src/stm32h7xx_hal_rcc.c ****            (++) Two dedicated PLLs, PLL2 and PLL3, which are used to generate the kernel clock for 
 143:Drivers/STM32H7xx_HAL_Driver/Src/stm32h7xx_hal_rcc.c **** 
 144:Drivers/STM32H7xx_HAL_Driver/Src/stm32h7xx_hal_rcc.c **** 
 145:Drivers/STM32H7xx_HAL_Driver/Src/stm32h7xx_hal_rcc.c ****          (#) CSS (Clock security system), once enabled and if a HSE clock failure occurs
ARM GAS  /var/folders/g1/j12m_ky910s3_sv7d4yrsdn00000gn/T//ccmnBD4l.s 			page 4


 146:Drivers/STM32H7xx_HAL_Driver/Src/stm32h7xx_hal_rcc.c ****             (HSE used directly or through PLL as System clock source), the System clock
 147:Drivers/STM32H7xx_HAL_Driver/Src/stm32h7xx_hal_rcc.c ****              is automatically switched to HSI and an interrupt is generated if enabled.
 148:Drivers/STM32H7xx_HAL_Driver/Src/stm32h7xx_hal_rcc.c ****              The interrupt is linked to the Cortex-M NMI (Non-Mask-able Interrupt)
 149:Drivers/STM32H7xx_HAL_Driver/Src/stm32h7xx_hal_rcc.c ****              exception vector.
 150:Drivers/STM32H7xx_HAL_Driver/Src/stm32h7xx_hal_rcc.c **** 
 151:Drivers/STM32H7xx_HAL_Driver/Src/stm32h7xx_hal_rcc.c ****          (#) MCO1 (micro controller clock output), used to output HSI, LSE, HSE, PLL1(PLL1_Q)
 152:Drivers/STM32H7xx_HAL_Driver/Src/stm32h7xx_hal_rcc.c ****              or HSI48 clock (through a configurable pre-scaler) on PA8 pin.
 153:Drivers/STM32H7xx_HAL_Driver/Src/stm32h7xx_hal_rcc.c **** 
 154:Drivers/STM32H7xx_HAL_Driver/Src/stm32h7xx_hal_rcc.c ****          (#) MCO2 (micro controller clock output), used to output HSE, PLL2(PLL2_P), SYSCLK,
 155:Drivers/STM32H7xx_HAL_Driver/Src/stm32h7xx_hal_rcc.c ****              LSI, CSI, or PLL1(PLL1_P) clock (through a configurable pre-scaler) on PC9 pin.
 156:Drivers/STM32H7xx_HAL_Driver/Src/stm32h7xx_hal_rcc.c **** 
 157:Drivers/STM32H7xx_HAL_Driver/Src/stm32h7xx_hal_rcc.c ****     [..] System, AHB and APB buses clocks configuration
 158:Drivers/STM32H7xx_HAL_Driver/Src/stm32h7xx_hal_rcc.c ****          (#) Several clock sources can be used to drive the System clock (SYSCLK): CSI,HSI,
 159:Drivers/STM32H7xx_HAL_Driver/Src/stm32h7xx_hal_rcc.c ****              HSE and PLL.
 160:Drivers/STM32H7xx_HAL_Driver/Src/stm32h7xx_hal_rcc.c ****              The AHB clock (HCLK) is derived from System core clock through configurable
 161:Drivers/STM32H7xx_HAL_Driver/Src/stm32h7xx_hal_rcc.c ****              pre-scaler and used to clock the CPU, memory and peripherals mapped
 162:Drivers/STM32H7xx_HAL_Driver/Src/stm32h7xx_hal_rcc.c ****              on AHB and APB bus of the 3 Domains (D1, D2, D3)* through configurable pre-scalers
 163:Drivers/STM32H7xx_HAL_Driver/Src/stm32h7xx_hal_rcc.c ****              and used to clock the peripherals mapped on these buses. You can use
 164:Drivers/STM32H7xx_HAL_Driver/Src/stm32h7xx_hal_rcc.c ****              "HAL_RCC_GetSysClockFreq()" function to retrieve system clock frequency.
 165:Drivers/STM32H7xx_HAL_Driver/Src/stm32h7xx_hal_rcc.c **** 
 166:Drivers/STM32H7xx_HAL_Driver/Src/stm32h7xx_hal_rcc.c ****          -@- All the peripheral clocks are derived from the System clock (SYSCLK) except those
 167:Drivers/STM32H7xx_HAL_Driver/Src/stm32h7xx_hal_rcc.c ****              with dual clock domain where kernel source clock could be selected through
 168:Drivers/STM32H7xx_HAL_Driver/Src/stm32h7xx_hal_rcc.c ****              RCC_D1CCIPR,RCC_D2CCIP1R,RCC_D2CCIP2R and RCC_D3CCIPR registers.
 169:Drivers/STM32H7xx_HAL_Driver/Src/stm32h7xx_hal_rcc.c **** 
 170:Drivers/STM32H7xx_HAL_Driver/Src/stm32h7xx_hal_rcc.c ****      (*) : 2 Domains (CD and SRD) for stm32h7a3xx and stm32h7b3xx family lines.
 171:Drivers/STM32H7xx_HAL_Driver/Src/stm32h7xx_hal_rcc.c **** @endverbatim
 172:Drivers/STM32H7xx_HAL_Driver/Src/stm32h7xx_hal_rcc.c ****   * @{
 173:Drivers/STM32H7xx_HAL_Driver/Src/stm32h7xx_hal_rcc.c ****   */
 174:Drivers/STM32H7xx_HAL_Driver/Src/stm32h7xx_hal_rcc.c **** 
 175:Drivers/STM32H7xx_HAL_Driver/Src/stm32h7xx_hal_rcc.c **** /**
 176:Drivers/STM32H7xx_HAL_Driver/Src/stm32h7xx_hal_rcc.c ****   * @brief  Resets the RCC clock configuration to the default reset state.
 177:Drivers/STM32H7xx_HAL_Driver/Src/stm32h7xx_hal_rcc.c ****   * @note   The default reset state of the clock configuration is given below:
 178:Drivers/STM32H7xx_HAL_Driver/Src/stm32h7xx_hal_rcc.c ****   *            - HSI ON and used as system clock source
 179:Drivers/STM32H7xx_HAL_Driver/Src/stm32h7xx_hal_rcc.c ****   *            - HSE, PLL1, PLL2 and PLL3 OFF
 180:Drivers/STM32H7xx_HAL_Driver/Src/stm32h7xx_hal_rcc.c ****   *            - AHB, APB Bus pre-scaler set to 1.
 181:Drivers/STM32H7xx_HAL_Driver/Src/stm32h7xx_hal_rcc.c ****   *            - CSS, MCO1 and MCO2 OFF
 182:Drivers/STM32H7xx_HAL_Driver/Src/stm32h7xx_hal_rcc.c ****   *            - All interrupts disabled
 183:Drivers/STM32H7xx_HAL_Driver/Src/stm32h7xx_hal_rcc.c ****   * @note   This function doesn't modify the configuration of the
 184:Drivers/STM32H7xx_HAL_Driver/Src/stm32h7xx_hal_rcc.c ****   *            - Peripheral clocks
 185:Drivers/STM32H7xx_HAL_Driver/Src/stm32h7xx_hal_rcc.c ****   *            - LSI, LSE and RTC clocks
 186:Drivers/STM32H7xx_HAL_Driver/Src/stm32h7xx_hal_rcc.c ****   * @retval HAL status
 187:Drivers/STM32H7xx_HAL_Driver/Src/stm32h7xx_hal_rcc.c ****   */
 188:Drivers/STM32H7xx_HAL_Driver/Src/stm32h7xx_hal_rcc.c **** HAL_StatusTypeDef HAL_RCC_DeInit(void)
 189:Drivers/STM32H7xx_HAL_Driver/Src/stm32h7xx_hal_rcc.c **** {
  28              		.loc 1 189 1 view -0
  29              		.cfi_startproc
  30              		@ args = 0, pretend = 0, frame = 0
  31              		@ frame_needed = 0, uses_anonymous_args = 0
  32 0000 38B5     		push	{r3, r4, r5, lr}
  33              	.LCFI0:
  34              		.cfi_def_cfa_offset 16
  35              		.cfi_offset 3, -16
  36              		.cfi_offset 4, -12
  37              		.cfi_offset 5, -8
  38              		.cfi_offset 14, -4
 190:Drivers/STM32H7xx_HAL_Driver/Src/stm32h7xx_hal_rcc.c ****   uint32_t tickstart;
  39              		.loc 1 190 3 view .LVU1
ARM GAS  /var/folders/g1/j12m_ky910s3_sv7d4yrsdn00000gn/T//ccmnBD4l.s 			page 5


 191:Drivers/STM32H7xx_HAL_Driver/Src/stm32h7xx_hal_rcc.c **** 
 192:Drivers/STM32H7xx_HAL_Driver/Src/stm32h7xx_hal_rcc.c ****   /* Increasing the CPU frequency */
 193:Drivers/STM32H7xx_HAL_Driver/Src/stm32h7xx_hal_rcc.c ****   if (FLASH_LATENCY_DEFAULT  > __HAL_FLASH_GET_LATENCY())
  40              		.loc 1 193 3 view .LVU2
  41              		.loc 1 193 32 is_stmt 0 view .LVU3
  42 0002 684B     		ldr	r3, .L33
  43 0004 1B68     		ldr	r3, [r3]
  44 0006 03F00F03 		and	r3, r3, #15
  45              		.loc 1 193 6 view .LVU4
  46 000a 062B     		cmp	r3, #6
  47 000c 0CD8     		bhi	.L2
 194:Drivers/STM32H7xx_HAL_Driver/Src/stm32h7xx_hal_rcc.c ****   {
 195:Drivers/STM32H7xx_HAL_Driver/Src/stm32h7xx_hal_rcc.c ****     /* Program the new number of wait states to the LATENCY bits in the FLASH_ACR register */
 196:Drivers/STM32H7xx_HAL_Driver/Src/stm32h7xx_hal_rcc.c ****     __HAL_FLASH_SET_LATENCY(FLASH_LATENCY_DEFAULT);
  48              		.loc 1 196 5 is_stmt 1 view .LVU5
  49 000e 654A     		ldr	r2, .L33
  50 0010 1368     		ldr	r3, [r2]
  51 0012 23F00F03 		bic	r3, r3, #15
  52 0016 43F00703 		orr	r3, r3, #7
  53 001a 1360     		str	r3, [r2]
 197:Drivers/STM32H7xx_HAL_Driver/Src/stm32h7xx_hal_rcc.c **** 
 198:Drivers/STM32H7xx_HAL_Driver/Src/stm32h7xx_hal_rcc.c ****     /* Check that the new number of wait states is taken into account to access the Flash
 199:Drivers/STM32H7xx_HAL_Driver/Src/stm32h7xx_hal_rcc.c ****     memory by reading the FLASH_ACR register */
 200:Drivers/STM32H7xx_HAL_Driver/Src/stm32h7xx_hal_rcc.c ****     if (__HAL_FLASH_GET_LATENCY() != FLASH_LATENCY_DEFAULT)
  54              		.loc 1 200 5 view .LVU6
  55              		.loc 1 200 9 is_stmt 0 view .LVU7
  56 001c 1368     		ldr	r3, [r2]
  57 001e 03F00F03 		and	r3, r3, #15
  58              		.loc 1 200 8 view .LVU8
  59 0022 072B     		cmp	r3, #7
  60 0024 40F0BA80 		bne	.L16
  61              	.L2:
 201:Drivers/STM32H7xx_HAL_Driver/Src/stm32h7xx_hal_rcc.c ****     {
 202:Drivers/STM32H7xx_HAL_Driver/Src/stm32h7xx_hal_rcc.c ****       return HAL_ERROR;
 203:Drivers/STM32H7xx_HAL_Driver/Src/stm32h7xx_hal_rcc.c ****     }
 204:Drivers/STM32H7xx_HAL_Driver/Src/stm32h7xx_hal_rcc.c **** 
 205:Drivers/STM32H7xx_HAL_Driver/Src/stm32h7xx_hal_rcc.c ****   }
 206:Drivers/STM32H7xx_HAL_Driver/Src/stm32h7xx_hal_rcc.c **** 
 207:Drivers/STM32H7xx_HAL_Driver/Src/stm32h7xx_hal_rcc.c **** 
 208:Drivers/STM32H7xx_HAL_Driver/Src/stm32h7xx_hal_rcc.c ****   /* Get Start Tick */
 209:Drivers/STM32H7xx_HAL_Driver/Src/stm32h7xx_hal_rcc.c ****   tickstart = HAL_GetTick();
  62              		.loc 1 209 3 is_stmt 1 view .LVU9
  63              		.loc 1 209 15 is_stmt 0 view .LVU10
  64 0028 FFF7FEFF 		bl	HAL_GetTick
  65              	.LVL0:
  66 002c 0446     		mov	r4, r0
  67              	.LVL1:
 210:Drivers/STM32H7xx_HAL_Driver/Src/stm32h7xx_hal_rcc.c **** 
 211:Drivers/STM32H7xx_HAL_Driver/Src/stm32h7xx_hal_rcc.c ****   /* Set HSION bit */
 212:Drivers/STM32H7xx_HAL_Driver/Src/stm32h7xx_hal_rcc.c ****   SET_BIT(RCC->CR, RCC_CR_HSION);
  68              		.loc 1 212 3 is_stmt 1 view .LVU11
  69 002e 5E4A     		ldr	r2, .L33+4
  70 0030 1368     		ldr	r3, [r2]
  71 0032 43F00103 		orr	r3, r3, #1
  72 0036 1360     		str	r3, [r2]
 213:Drivers/STM32H7xx_HAL_Driver/Src/stm32h7xx_hal_rcc.c **** 
 214:Drivers/STM32H7xx_HAL_Driver/Src/stm32h7xx_hal_rcc.c ****   /* Wait till HSI is ready */
ARM GAS  /var/folders/g1/j12m_ky910s3_sv7d4yrsdn00000gn/T//ccmnBD4l.s 			page 6


 215:Drivers/STM32H7xx_HAL_Driver/Src/stm32h7xx_hal_rcc.c ****   while (READ_BIT(RCC->CR, RCC_CR_HSIRDY) == 0U)
  73              		.loc 1 215 3 view .LVU12
  74              	.LVL2:
  75              	.L4:
  76              		.loc 1 215 43 view .LVU13
  77              		.loc 1 215 10 is_stmt 0 view .LVU14
  78 0038 5B4B     		ldr	r3, .L33+4
  79 003a 1B68     		ldr	r3, [r3]
  80              		.loc 1 215 43 view .LVU15
  81 003c 13F0040F 		tst	r3, #4
  82 0040 06D1     		bne	.L26
 216:Drivers/STM32H7xx_HAL_Driver/Src/stm32h7xx_hal_rcc.c ****   {
 217:Drivers/STM32H7xx_HAL_Driver/Src/stm32h7xx_hal_rcc.c ****     if ((HAL_GetTick() - tickstart) > HSI_TIMEOUT_VALUE)
  83              		.loc 1 217 5 is_stmt 1 view .LVU16
  84              		.loc 1 217 10 is_stmt 0 view .LVU17
  85 0042 FFF7FEFF 		bl	HAL_GetTick
  86              	.LVL3:
  87              		.loc 1 217 24 discriminator 1 view .LVU18
  88 0046 001B     		subs	r0, r0, r4
  89              		.loc 1 217 8 discriminator 1 view .LVU19
  90 0048 0228     		cmp	r0, #2
  91 004a F5D9     		bls	.L4
 218:Drivers/STM32H7xx_HAL_Driver/Src/stm32h7xx_hal_rcc.c ****     {
 219:Drivers/STM32H7xx_HAL_Driver/Src/stm32h7xx_hal_rcc.c ****       return HAL_TIMEOUT;
  92              		.loc 1 219 14 view .LVU20
  93 004c 0324     		movs	r4, #3
  94              	.LVL4:
  95              		.loc 1 219 14 view .LVU21
  96 004e A6E0     		b	.L3
  97              	.LVL5:
  98              	.L26:
 220:Drivers/STM32H7xx_HAL_Driver/Src/stm32h7xx_hal_rcc.c ****     }
 221:Drivers/STM32H7xx_HAL_Driver/Src/stm32h7xx_hal_rcc.c ****   }
 222:Drivers/STM32H7xx_HAL_Driver/Src/stm32h7xx_hal_rcc.c **** 
 223:Drivers/STM32H7xx_HAL_Driver/Src/stm32h7xx_hal_rcc.c ****   /* Set HSITRIM[6:0] bits to the reset value */
 224:Drivers/STM32H7xx_HAL_Driver/Src/stm32h7xx_hal_rcc.c ****   SET_BIT(RCC->HSICFGR, RCC_HSICFGR_HSITRIM_6);
  99              		.loc 1 224 3 is_stmt 1 view .LVU22
 100 0050 554B     		ldr	r3, .L33+4
 101 0052 5A68     		ldr	r2, [r3, #4]
 102 0054 42F08042 		orr	r2, r2, #1073741824
 103 0058 5A60     		str	r2, [r3, #4]
 225:Drivers/STM32H7xx_HAL_Driver/Src/stm32h7xx_hal_rcc.c **** 
 226:Drivers/STM32H7xx_HAL_Driver/Src/stm32h7xx_hal_rcc.c ****   /* Reset CFGR register */
 227:Drivers/STM32H7xx_HAL_Driver/Src/stm32h7xx_hal_rcc.c ****   CLEAR_REG(RCC->CFGR);
 104              		.loc 1 227 3 view .LVU23
 105 005a 0022     		movs	r2, #0
 106 005c 1A61     		str	r2, [r3, #16]
 228:Drivers/STM32H7xx_HAL_Driver/Src/stm32h7xx_hal_rcc.c **** 
 229:Drivers/STM32H7xx_HAL_Driver/Src/stm32h7xx_hal_rcc.c ****   /* Update the SystemCoreClock and SystemD2Clock global variables */
 230:Drivers/STM32H7xx_HAL_Driver/Src/stm32h7xx_hal_rcc.c ****   SystemCoreClock = HSI_VALUE;
 107              		.loc 1 230 3 view .LVU24
 108              		.loc 1 230 19 is_stmt 0 view .LVU25
 109 005e 534B     		ldr	r3, .L33+8
 110 0060 534A     		ldr	r2, .L33+12
 111 0062 1360     		str	r3, [r2]
 231:Drivers/STM32H7xx_HAL_Driver/Src/stm32h7xx_hal_rcc.c ****   SystemD2Clock = HSI_VALUE;
 112              		.loc 1 231 3 is_stmt 1 view .LVU26
ARM GAS  /var/folders/g1/j12m_ky910s3_sv7d4yrsdn00000gn/T//ccmnBD4l.s 			page 7


 113              		.loc 1 231 17 is_stmt 0 view .LVU27
 114 0064 534A     		ldr	r2, .L33+16
 115 0066 1360     		str	r3, [r2]
 232:Drivers/STM32H7xx_HAL_Driver/Src/stm32h7xx_hal_rcc.c **** 
 233:Drivers/STM32H7xx_HAL_Driver/Src/stm32h7xx_hal_rcc.c ****   /* Adapt Systick interrupt period */
 234:Drivers/STM32H7xx_HAL_Driver/Src/stm32h7xx_hal_rcc.c ****   if (HAL_InitTick(uwTickPrio) != HAL_OK)
 116              		.loc 1 234 3 is_stmt 1 view .LVU28
 117              		.loc 1 234 7 is_stmt 0 view .LVU29
 118 0068 534B     		ldr	r3, .L33+20
 119 006a 1868     		ldr	r0, [r3]
 120 006c FFF7FEFF 		bl	HAL_InitTick
 121              	.LVL6:
 122              		.loc 1 234 6 discriminator 1 view .LVU30
 123 0070 0446     		mov	r4, r0
 124              	.LVL7:
 125              		.loc 1 234 6 discriminator 1 view .LVU31
 126 0072 08B1     		cbz	r0, .L27
 235:Drivers/STM32H7xx_HAL_Driver/Src/stm32h7xx_hal_rcc.c ****   {
 236:Drivers/STM32H7xx_HAL_Driver/Src/stm32h7xx_hal_rcc.c ****     return HAL_ERROR;
 127              		.loc 1 236 12 view .LVU32
 128 0074 0124     		movs	r4, #1
 129 0076 92E0     		b	.L3
 130              	.L27:
 237:Drivers/STM32H7xx_HAL_Driver/Src/stm32h7xx_hal_rcc.c ****   }
 238:Drivers/STM32H7xx_HAL_Driver/Src/stm32h7xx_hal_rcc.c **** 
 239:Drivers/STM32H7xx_HAL_Driver/Src/stm32h7xx_hal_rcc.c ****   /* Get Start Tick */
 240:Drivers/STM32H7xx_HAL_Driver/Src/stm32h7xx_hal_rcc.c ****   tickstart = HAL_GetTick();
 131              		.loc 1 240 3 is_stmt 1 view .LVU33
 132              		.loc 1 240 15 is_stmt 0 view .LVU34
 133 0078 FFF7FEFF 		bl	HAL_GetTick
 134              	.LVL8:
 135 007c 0546     		mov	r5, r0
 136              	.LVL9:
 241:Drivers/STM32H7xx_HAL_Driver/Src/stm32h7xx_hal_rcc.c **** 
 242:Drivers/STM32H7xx_HAL_Driver/Src/stm32h7xx_hal_rcc.c ****   /* Wait till clock switch is ready */
 243:Drivers/STM32H7xx_HAL_Driver/Src/stm32h7xx_hal_rcc.c ****   while (READ_BIT(RCC->CFGR, RCC_CFGR_SWS) != 0U)
 137              		.loc 1 243 3 is_stmt 1 view .LVU35
 138              	.L6:
 139              		.loc 1 243 44 view .LVU36
 140              		.loc 1 243 10 is_stmt 0 view .LVU37
 141 007e 4A4B     		ldr	r3, .L33+4
 142 0080 1B69     		ldr	r3, [r3, #16]
 143              		.loc 1 243 44 view .LVU38
 144 0082 13F0380F 		tst	r3, #56
 145 0086 08D0     		beq	.L28
 244:Drivers/STM32H7xx_HAL_Driver/Src/stm32h7xx_hal_rcc.c ****   {
 245:Drivers/STM32H7xx_HAL_Driver/Src/stm32h7xx_hal_rcc.c ****     if ((HAL_GetTick() - tickstart) > CLOCKSWITCH_TIMEOUT_VALUE)
 146              		.loc 1 245 5 is_stmt 1 view .LVU39
 147              		.loc 1 245 10 is_stmt 0 view .LVU40
 148 0088 FFF7FEFF 		bl	HAL_GetTick
 149              	.LVL10:
 150              		.loc 1 245 24 discriminator 1 view .LVU41
 151 008c 401B     		subs	r0, r0, r5
 152              		.loc 1 245 8 discriminator 1 view .LVU42
 153 008e 41F28833 		movw	r3, #5000
 154 0092 9842     		cmp	r0, r3
 155 0094 F3D9     		bls	.L6
ARM GAS  /var/folders/g1/j12m_ky910s3_sv7d4yrsdn00000gn/T//ccmnBD4l.s 			page 8


 246:Drivers/STM32H7xx_HAL_Driver/Src/stm32h7xx_hal_rcc.c ****     {
 247:Drivers/STM32H7xx_HAL_Driver/Src/stm32h7xx_hal_rcc.c ****       return HAL_TIMEOUT;
 156              		.loc 1 247 14 view .LVU43
 157 0096 0324     		movs	r4, #3
 158 0098 81E0     		b	.L3
 159              	.L28:
 248:Drivers/STM32H7xx_HAL_Driver/Src/stm32h7xx_hal_rcc.c ****     }
 249:Drivers/STM32H7xx_HAL_Driver/Src/stm32h7xx_hal_rcc.c ****   }
 250:Drivers/STM32H7xx_HAL_Driver/Src/stm32h7xx_hal_rcc.c **** 
 251:Drivers/STM32H7xx_HAL_Driver/Src/stm32h7xx_hal_rcc.c ****   /* Get Start Tick */
 252:Drivers/STM32H7xx_HAL_Driver/Src/stm32h7xx_hal_rcc.c ****   tickstart = HAL_GetTick();
 160              		.loc 1 252 3 is_stmt 1 view .LVU44
 161              		.loc 1 252 15 is_stmt 0 view .LVU45
 162 009a FFF7FEFF 		bl	HAL_GetTick
 163              	.LVL11:
 164 009e 0546     		mov	r5, r0
 165              	.LVL12:
 253:Drivers/STM32H7xx_HAL_Driver/Src/stm32h7xx_hal_rcc.c **** 
 254:Drivers/STM32H7xx_HAL_Driver/Src/stm32h7xx_hal_rcc.c ****   /* Reset CSION, CSIKERON, HSEON, HSI48ON, HSECSSON, HSIDIV bits */
 255:Drivers/STM32H7xx_HAL_Driver/Src/stm32h7xx_hal_rcc.c ****   CLEAR_BIT(RCC->CR, RCC_CR_HSEON | RCC_CR_HSIKERON | RCC_CR_HSIDIV | RCC_CR_HSIDIVF | RCC_CR_CSION
 166              		.loc 1 255 3 is_stmt 1 view .LVU46
 167 00a0 414A     		ldr	r2, .L33+4
 168 00a2 1168     		ldr	r1, [r2]
 169 00a4 454B     		ldr	r3, .L33+24
 170 00a6 0B40     		ands	r3, r3, r1
 171 00a8 1360     		str	r3, [r2]
 256:Drivers/STM32H7xx_HAL_Driver/Src/stm32h7xx_hal_rcc.c ****             | RCC_CR_HSI48ON | RCC_CR_CSSHSEON);
 257:Drivers/STM32H7xx_HAL_Driver/Src/stm32h7xx_hal_rcc.c **** 
 258:Drivers/STM32H7xx_HAL_Driver/Src/stm32h7xx_hal_rcc.c ****   /* Wait till HSE is disabled */
 259:Drivers/STM32H7xx_HAL_Driver/Src/stm32h7xx_hal_rcc.c ****   while (READ_BIT(RCC->CR, RCC_CR_HSERDY) != 0U)
 172              		.loc 1 259 3 view .LVU47
 173              	.LVL13:
 174              	.L8:
 175              		.loc 1 259 43 view .LVU48
 176              		.loc 1 259 10 is_stmt 0 view .LVU49
 177 00aa 3F4B     		ldr	r3, .L33+4
 178 00ac 1B68     		ldr	r3, [r3]
 179              		.loc 1 259 43 view .LVU50
 180 00ae 13F4003F 		tst	r3, #131072
 181 00b2 06D0     		beq	.L29
 260:Drivers/STM32H7xx_HAL_Driver/Src/stm32h7xx_hal_rcc.c ****   {
 261:Drivers/STM32H7xx_HAL_Driver/Src/stm32h7xx_hal_rcc.c ****     if ((HAL_GetTick() - tickstart) > HSE_TIMEOUT_VALUE)
 182              		.loc 1 261 5 is_stmt 1 view .LVU51
 183              		.loc 1 261 10 is_stmt 0 view .LVU52
 184 00b4 FFF7FEFF 		bl	HAL_GetTick
 185              	.LVL14:
 186              		.loc 1 261 24 discriminator 1 view .LVU53
 187 00b8 401B     		subs	r0, r0, r5
 188              		.loc 1 261 8 discriminator 1 view .LVU54
 189 00ba 6428     		cmp	r0, #100
 190 00bc F5D9     		bls	.L8
 262:Drivers/STM32H7xx_HAL_Driver/Src/stm32h7xx_hal_rcc.c ****     {
 263:Drivers/STM32H7xx_HAL_Driver/Src/stm32h7xx_hal_rcc.c ****       return HAL_TIMEOUT;
 191              		.loc 1 263 14 view .LVU55
 192 00be 0324     		movs	r4, #3
 193 00c0 6DE0     		b	.L3
 194              	.L29:
ARM GAS  /var/folders/g1/j12m_ky910s3_sv7d4yrsdn00000gn/T//ccmnBD4l.s 			page 9


 264:Drivers/STM32H7xx_HAL_Driver/Src/stm32h7xx_hal_rcc.c ****     }
 265:Drivers/STM32H7xx_HAL_Driver/Src/stm32h7xx_hal_rcc.c ****   }
 266:Drivers/STM32H7xx_HAL_Driver/Src/stm32h7xx_hal_rcc.c **** 
 267:Drivers/STM32H7xx_HAL_Driver/Src/stm32h7xx_hal_rcc.c ****   /* Get Start Tick */
 268:Drivers/STM32H7xx_HAL_Driver/Src/stm32h7xx_hal_rcc.c ****   tickstart = HAL_GetTick();
 195              		.loc 1 268 3 is_stmt 1 view .LVU56
 196              		.loc 1 268 15 is_stmt 0 view .LVU57
 197 00c2 FFF7FEFF 		bl	HAL_GetTick
 198              	.LVL15:
 199 00c6 0546     		mov	r5, r0
 200              	.LVL16:
 269:Drivers/STM32H7xx_HAL_Driver/Src/stm32h7xx_hal_rcc.c **** 
 270:Drivers/STM32H7xx_HAL_Driver/Src/stm32h7xx_hal_rcc.c ****   /* Clear PLLON bit */
 271:Drivers/STM32H7xx_HAL_Driver/Src/stm32h7xx_hal_rcc.c ****   CLEAR_BIT(RCC->CR, RCC_CR_PLL1ON);
 201              		.loc 1 271 3 is_stmt 1 view .LVU58
 202 00c8 374A     		ldr	r2, .L33+4
 203 00ca 1368     		ldr	r3, [r2]
 204 00cc 23F08073 		bic	r3, r3, #16777216
 205 00d0 1360     		str	r3, [r2]
 272:Drivers/STM32H7xx_HAL_Driver/Src/stm32h7xx_hal_rcc.c **** 
 273:Drivers/STM32H7xx_HAL_Driver/Src/stm32h7xx_hal_rcc.c ****   /* Wait till PLL is disabled */
 274:Drivers/STM32H7xx_HAL_Driver/Src/stm32h7xx_hal_rcc.c ****   while (READ_BIT(RCC->CR, RCC_CR_PLL1RDY) != 0U)
 206              		.loc 1 274 3 view .LVU59
 207              	.LVL17:
 208              	.L10:
 209              		.loc 1 274 44 view .LVU60
 210              		.loc 1 274 10 is_stmt 0 view .LVU61
 211 00d2 354B     		ldr	r3, .L33+4
 212 00d4 1B68     		ldr	r3, [r3]
 213              		.loc 1 274 44 view .LVU62
 214 00d6 13F0007F 		tst	r3, #33554432
 215 00da 06D0     		beq	.L30
 275:Drivers/STM32H7xx_HAL_Driver/Src/stm32h7xx_hal_rcc.c ****   {
 276:Drivers/STM32H7xx_HAL_Driver/Src/stm32h7xx_hal_rcc.c ****     if ((HAL_GetTick() - tickstart) > PLL_TIMEOUT_VALUE)
 216              		.loc 1 276 5 is_stmt 1 view .LVU63
 217              		.loc 1 276 10 is_stmt 0 view .LVU64
 218 00dc FFF7FEFF 		bl	HAL_GetTick
 219              	.LVL18:
 220              		.loc 1 276 24 discriminator 1 view .LVU65
 221 00e0 401B     		subs	r0, r0, r5
 222              		.loc 1 276 8 discriminator 1 view .LVU66
 223 00e2 0228     		cmp	r0, #2
 224 00e4 F5D9     		bls	.L10
 277:Drivers/STM32H7xx_HAL_Driver/Src/stm32h7xx_hal_rcc.c ****     {
 278:Drivers/STM32H7xx_HAL_Driver/Src/stm32h7xx_hal_rcc.c ****       return HAL_TIMEOUT;
 225              		.loc 1 278 14 view .LVU67
 226 00e6 0324     		movs	r4, #3
 227 00e8 59E0     		b	.L3
 228              	.L30:
 279:Drivers/STM32H7xx_HAL_Driver/Src/stm32h7xx_hal_rcc.c ****     }
 280:Drivers/STM32H7xx_HAL_Driver/Src/stm32h7xx_hal_rcc.c ****   }
 281:Drivers/STM32H7xx_HAL_Driver/Src/stm32h7xx_hal_rcc.c **** 
 282:Drivers/STM32H7xx_HAL_Driver/Src/stm32h7xx_hal_rcc.c ****   /* Get Start Tick */
 283:Drivers/STM32H7xx_HAL_Driver/Src/stm32h7xx_hal_rcc.c ****   tickstart = HAL_GetTick();
 229              		.loc 1 283 3 is_stmt 1 view .LVU68
 230              		.loc 1 283 15 is_stmt 0 view .LVU69
 231 00ea FFF7FEFF 		bl	HAL_GetTick
ARM GAS  /var/folders/g1/j12m_ky910s3_sv7d4yrsdn00000gn/T//ccmnBD4l.s 			page 10


 232              	.LVL19:
 233 00ee 0546     		mov	r5, r0
 234              	.LVL20:
 284:Drivers/STM32H7xx_HAL_Driver/Src/stm32h7xx_hal_rcc.c **** 
 285:Drivers/STM32H7xx_HAL_Driver/Src/stm32h7xx_hal_rcc.c ****   /* Reset PLL2ON bit */
 286:Drivers/STM32H7xx_HAL_Driver/Src/stm32h7xx_hal_rcc.c ****   CLEAR_BIT(RCC->CR, RCC_CR_PLL2ON);
 235              		.loc 1 286 3 is_stmt 1 view .LVU70
 236 00f0 2D4A     		ldr	r2, .L33+4
 237 00f2 1368     		ldr	r3, [r2]
 238 00f4 23F08063 		bic	r3, r3, #67108864
 239 00f8 1360     		str	r3, [r2]
 287:Drivers/STM32H7xx_HAL_Driver/Src/stm32h7xx_hal_rcc.c **** 
 288:Drivers/STM32H7xx_HAL_Driver/Src/stm32h7xx_hal_rcc.c ****   /* Wait till PLL2 is disabled */
 289:Drivers/STM32H7xx_HAL_Driver/Src/stm32h7xx_hal_rcc.c ****   while (READ_BIT(RCC->CR, RCC_CR_PLL2RDY) != 0U)
 240              		.loc 1 289 3 view .LVU71
 241              	.LVL21:
 242              	.L12:
 243              		.loc 1 289 44 view .LVU72
 244              		.loc 1 289 10 is_stmt 0 view .LVU73
 245 00fa 2B4B     		ldr	r3, .L33+4
 246 00fc 1B68     		ldr	r3, [r3]
 247              		.loc 1 289 44 view .LVU74
 248 00fe 13F0006F 		tst	r3, #134217728
 249 0102 06D0     		beq	.L31
 290:Drivers/STM32H7xx_HAL_Driver/Src/stm32h7xx_hal_rcc.c ****   {
 291:Drivers/STM32H7xx_HAL_Driver/Src/stm32h7xx_hal_rcc.c ****     if ((HAL_GetTick() - tickstart) > PLL_TIMEOUT_VALUE)
 250              		.loc 1 291 5 is_stmt 1 view .LVU75
 251              		.loc 1 291 10 is_stmt 0 view .LVU76
 252 0104 FFF7FEFF 		bl	HAL_GetTick
 253              	.LVL22:
 254              		.loc 1 291 24 discriminator 1 view .LVU77
 255 0108 401B     		subs	r0, r0, r5
 256              		.loc 1 291 8 discriminator 1 view .LVU78
 257 010a 0228     		cmp	r0, #2
 258 010c F5D9     		bls	.L12
 292:Drivers/STM32H7xx_HAL_Driver/Src/stm32h7xx_hal_rcc.c ****     {
 293:Drivers/STM32H7xx_HAL_Driver/Src/stm32h7xx_hal_rcc.c ****       return HAL_TIMEOUT;
 259              		.loc 1 293 14 view .LVU79
 260 010e 0324     		movs	r4, #3
 261 0110 45E0     		b	.L3
 262              	.L31:
 294:Drivers/STM32H7xx_HAL_Driver/Src/stm32h7xx_hal_rcc.c ****     }
 295:Drivers/STM32H7xx_HAL_Driver/Src/stm32h7xx_hal_rcc.c ****   }
 296:Drivers/STM32H7xx_HAL_Driver/Src/stm32h7xx_hal_rcc.c **** 
 297:Drivers/STM32H7xx_HAL_Driver/Src/stm32h7xx_hal_rcc.c ****   /* Get Start Tick */
 298:Drivers/STM32H7xx_HAL_Driver/Src/stm32h7xx_hal_rcc.c ****   tickstart = HAL_GetTick();
 263              		.loc 1 298 3 is_stmt 1 view .LVU80
 264              		.loc 1 298 15 is_stmt 0 view .LVU81
 265 0112 FFF7FEFF 		bl	HAL_GetTick
 266              	.LVL23:
 267 0116 0546     		mov	r5, r0
 268              	.LVL24:
 299:Drivers/STM32H7xx_HAL_Driver/Src/stm32h7xx_hal_rcc.c **** 
 300:Drivers/STM32H7xx_HAL_Driver/Src/stm32h7xx_hal_rcc.c ****   /* Reset PLL3 bit */
 301:Drivers/STM32H7xx_HAL_Driver/Src/stm32h7xx_hal_rcc.c ****   CLEAR_BIT(RCC->CR, RCC_CR_PLL3ON);
 269              		.loc 1 301 3 is_stmt 1 view .LVU82
 270 0118 234A     		ldr	r2, .L33+4
ARM GAS  /var/folders/g1/j12m_ky910s3_sv7d4yrsdn00000gn/T//ccmnBD4l.s 			page 11


 271 011a 1368     		ldr	r3, [r2]
 272 011c 23F08053 		bic	r3, r3, #268435456
 273 0120 1360     		str	r3, [r2]
 302:Drivers/STM32H7xx_HAL_Driver/Src/stm32h7xx_hal_rcc.c **** 
 303:Drivers/STM32H7xx_HAL_Driver/Src/stm32h7xx_hal_rcc.c ****   /* Wait till PLL3 is disabled */
 304:Drivers/STM32H7xx_HAL_Driver/Src/stm32h7xx_hal_rcc.c ****   while (READ_BIT(RCC->CR, RCC_CR_PLL3RDY) != 0U)
 274              		.loc 1 304 3 view .LVU83
 275              	.LVL25:
 276              	.L14:
 277              		.loc 1 304 44 view .LVU84
 278              		.loc 1 304 10 is_stmt 0 view .LVU85
 279 0122 214B     		ldr	r3, .L33+4
 280 0124 1B68     		ldr	r3, [r3]
 281              		.loc 1 304 44 view .LVU86
 282 0126 13F0005F 		tst	r3, #536870912
 283 012a 06D0     		beq	.L32
 305:Drivers/STM32H7xx_HAL_Driver/Src/stm32h7xx_hal_rcc.c ****   {
 306:Drivers/STM32H7xx_HAL_Driver/Src/stm32h7xx_hal_rcc.c ****     if ((HAL_GetTick() - tickstart) > PLL_TIMEOUT_VALUE)
 284              		.loc 1 306 5 is_stmt 1 view .LVU87
 285              		.loc 1 306 10 is_stmt 0 view .LVU88
 286 012c FFF7FEFF 		bl	HAL_GetTick
 287              	.LVL26:
 288              		.loc 1 306 24 discriminator 1 view .LVU89
 289 0130 401B     		subs	r0, r0, r5
 290              		.loc 1 306 8 discriminator 1 view .LVU90
 291 0132 0228     		cmp	r0, #2
 292 0134 F5D9     		bls	.L14
 307:Drivers/STM32H7xx_HAL_Driver/Src/stm32h7xx_hal_rcc.c ****     {
 308:Drivers/STM32H7xx_HAL_Driver/Src/stm32h7xx_hal_rcc.c ****       return HAL_TIMEOUT;
 293              		.loc 1 308 14 view .LVU91
 294 0136 0324     		movs	r4, #3
 295 0138 31E0     		b	.L3
 296              	.L32:
 309:Drivers/STM32H7xx_HAL_Driver/Src/stm32h7xx_hal_rcc.c ****     }
 310:Drivers/STM32H7xx_HAL_Driver/Src/stm32h7xx_hal_rcc.c ****   }
 311:Drivers/STM32H7xx_HAL_Driver/Src/stm32h7xx_hal_rcc.c **** 
 312:Drivers/STM32H7xx_HAL_Driver/Src/stm32h7xx_hal_rcc.c **** #if defined(RCC_D1CFGR_HPRE)
 313:Drivers/STM32H7xx_HAL_Driver/Src/stm32h7xx_hal_rcc.c ****   /* Reset D1CFGR register */
 314:Drivers/STM32H7xx_HAL_Driver/Src/stm32h7xx_hal_rcc.c ****   CLEAR_REG(RCC->D1CFGR);
 297              		.loc 1 314 3 is_stmt 1 view .LVU92
 298 013a 1B4B     		ldr	r3, .L33+4
 299 013c 0022     		movs	r2, #0
 300 013e 9A61     		str	r2, [r3, #24]
 315:Drivers/STM32H7xx_HAL_Driver/Src/stm32h7xx_hal_rcc.c **** 
 316:Drivers/STM32H7xx_HAL_Driver/Src/stm32h7xx_hal_rcc.c ****   /* Reset D2CFGR register */
 317:Drivers/STM32H7xx_HAL_Driver/Src/stm32h7xx_hal_rcc.c ****   CLEAR_REG(RCC->D2CFGR);
 301              		.loc 1 317 3 view .LVU93
 302 0140 DA61     		str	r2, [r3, #28]
 318:Drivers/STM32H7xx_HAL_Driver/Src/stm32h7xx_hal_rcc.c **** 
 319:Drivers/STM32H7xx_HAL_Driver/Src/stm32h7xx_hal_rcc.c ****   /* Reset D3CFGR register */
 320:Drivers/STM32H7xx_HAL_Driver/Src/stm32h7xx_hal_rcc.c ****   CLEAR_REG(RCC->D3CFGR);
 303              		.loc 1 320 3 view .LVU94
 304 0142 1A62     		str	r2, [r3, #32]
 321:Drivers/STM32H7xx_HAL_Driver/Src/stm32h7xx_hal_rcc.c **** #else
 322:Drivers/STM32H7xx_HAL_Driver/Src/stm32h7xx_hal_rcc.c ****   /* Reset CDCFGR1 register */
 323:Drivers/STM32H7xx_HAL_Driver/Src/stm32h7xx_hal_rcc.c ****   CLEAR_REG(RCC->CDCFGR1);
 324:Drivers/STM32H7xx_HAL_Driver/Src/stm32h7xx_hal_rcc.c **** 
ARM GAS  /var/folders/g1/j12m_ky910s3_sv7d4yrsdn00000gn/T//ccmnBD4l.s 			page 12


 325:Drivers/STM32H7xx_HAL_Driver/Src/stm32h7xx_hal_rcc.c ****   /* Reset CDCFGR2 register */
 326:Drivers/STM32H7xx_HAL_Driver/Src/stm32h7xx_hal_rcc.c ****   CLEAR_REG(RCC->CDCFGR2);
 327:Drivers/STM32H7xx_HAL_Driver/Src/stm32h7xx_hal_rcc.c **** 
 328:Drivers/STM32H7xx_HAL_Driver/Src/stm32h7xx_hal_rcc.c ****   /* Reset SRDCFGR register */
 329:Drivers/STM32H7xx_HAL_Driver/Src/stm32h7xx_hal_rcc.c ****   CLEAR_REG(RCC->SRDCFGR);
 330:Drivers/STM32H7xx_HAL_Driver/Src/stm32h7xx_hal_rcc.c **** #endif
 331:Drivers/STM32H7xx_HAL_Driver/Src/stm32h7xx_hal_rcc.c **** 
 332:Drivers/STM32H7xx_HAL_Driver/Src/stm32h7xx_hal_rcc.c ****   /* Reset PLLCKSELR register to default value */
 333:Drivers/STM32H7xx_HAL_Driver/Src/stm32h7xx_hal_rcc.c ****   RCC->PLLCKSELR = RCC_PLLCKSELR_DIVM1_5 | RCC_PLLCKSELR_DIVM2_5 | RCC_PLLCKSELR_DIVM3_5;
 305              		.loc 1 333 3 view .LVU95
 306              		.loc 1 333 18 is_stmt 0 view .LVU96
 307 0144 1E49     		ldr	r1, .L33+28
 308 0146 9962     		str	r1, [r3, #40]
 334:Drivers/STM32H7xx_HAL_Driver/Src/stm32h7xx_hal_rcc.c **** 
 335:Drivers/STM32H7xx_HAL_Driver/Src/stm32h7xx_hal_rcc.c ****   /* Reset PLLCFGR register to default value */
 336:Drivers/STM32H7xx_HAL_Driver/Src/stm32h7xx_hal_rcc.c ****   WRITE_REG(RCC->PLLCFGR, 0x01FF0000U);
 309              		.loc 1 336 3 is_stmt 1 view .LVU97
 310 0148 1E49     		ldr	r1, .L33+32
 311 014a D962     		str	r1, [r3, #44]
 337:Drivers/STM32H7xx_HAL_Driver/Src/stm32h7xx_hal_rcc.c **** 
 338:Drivers/STM32H7xx_HAL_Driver/Src/stm32h7xx_hal_rcc.c ****   /* Reset PLL1DIVR register to default value */
 339:Drivers/STM32H7xx_HAL_Driver/Src/stm32h7xx_hal_rcc.c ****   WRITE_REG(RCC->PLL1DIVR, 0x01010280U);
 312              		.loc 1 339 3 view .LVU98
 313 014c 1E49     		ldr	r1, .L33+36
 314 014e 1963     		str	r1, [r3, #48]
 340:Drivers/STM32H7xx_HAL_Driver/Src/stm32h7xx_hal_rcc.c **** 
 341:Drivers/STM32H7xx_HAL_Driver/Src/stm32h7xx_hal_rcc.c ****   /* Reset PLL1FRACR register */
 342:Drivers/STM32H7xx_HAL_Driver/Src/stm32h7xx_hal_rcc.c ****   CLEAR_REG(RCC->PLL1FRACR);
 315              		.loc 1 342 3 view .LVU99
 316 0150 5A63     		str	r2, [r3, #52]
 343:Drivers/STM32H7xx_HAL_Driver/Src/stm32h7xx_hal_rcc.c **** 
 344:Drivers/STM32H7xx_HAL_Driver/Src/stm32h7xx_hal_rcc.c ****   /* Reset PLL2DIVR register to default value */
 345:Drivers/STM32H7xx_HAL_Driver/Src/stm32h7xx_hal_rcc.c ****   WRITE_REG(RCC->PLL2DIVR, 0x01010280U);
 317              		.loc 1 345 3 view .LVU100
 318 0152 9963     		str	r1, [r3, #56]
 346:Drivers/STM32H7xx_HAL_Driver/Src/stm32h7xx_hal_rcc.c **** 
 347:Drivers/STM32H7xx_HAL_Driver/Src/stm32h7xx_hal_rcc.c ****   /* Reset PLL2FRACR register */
 348:Drivers/STM32H7xx_HAL_Driver/Src/stm32h7xx_hal_rcc.c ****   CLEAR_REG(RCC->PLL2FRACR);
 319              		.loc 1 348 3 view .LVU101
 320 0154 DA63     		str	r2, [r3, #60]
 349:Drivers/STM32H7xx_HAL_Driver/Src/stm32h7xx_hal_rcc.c **** 
 350:Drivers/STM32H7xx_HAL_Driver/Src/stm32h7xx_hal_rcc.c ****   /* Reset PLL3DIVR register to default value */
 351:Drivers/STM32H7xx_HAL_Driver/Src/stm32h7xx_hal_rcc.c ****   WRITE_REG(RCC->PLL3DIVR, 0x01010280U);
 321              		.loc 1 351 3 view .LVU102
 322 0156 1964     		str	r1, [r3, #64]
 352:Drivers/STM32H7xx_HAL_Driver/Src/stm32h7xx_hal_rcc.c **** 
 353:Drivers/STM32H7xx_HAL_Driver/Src/stm32h7xx_hal_rcc.c ****   /* Reset PLL3FRACR register */
 354:Drivers/STM32H7xx_HAL_Driver/Src/stm32h7xx_hal_rcc.c ****   CLEAR_REG(RCC->PLL3FRACR);
 323              		.loc 1 354 3 view .LVU103
 324 0158 5A64     		str	r2, [r3, #68]
 355:Drivers/STM32H7xx_HAL_Driver/Src/stm32h7xx_hal_rcc.c **** 
 356:Drivers/STM32H7xx_HAL_Driver/Src/stm32h7xx_hal_rcc.c **** #if defined(RCC_CR_HSEEXT)
 357:Drivers/STM32H7xx_HAL_Driver/Src/stm32h7xx_hal_rcc.c ****   /* Reset HSEEXT  */
 358:Drivers/STM32H7xx_HAL_Driver/Src/stm32h7xx_hal_rcc.c ****   CLEAR_BIT(RCC->CR, RCC_CR_HSEEXT);
 359:Drivers/STM32H7xx_HAL_Driver/Src/stm32h7xx_hal_rcc.c **** #endif /* RCC_CR_HSEEXT */
 360:Drivers/STM32H7xx_HAL_Driver/Src/stm32h7xx_hal_rcc.c **** 
 361:Drivers/STM32H7xx_HAL_Driver/Src/stm32h7xx_hal_rcc.c ****   /* Reset HSEBYP bit */
ARM GAS  /var/folders/g1/j12m_ky910s3_sv7d4yrsdn00000gn/T//ccmnBD4l.s 			page 13


 362:Drivers/STM32H7xx_HAL_Driver/Src/stm32h7xx_hal_rcc.c ****   CLEAR_BIT(RCC->CR, RCC_CR_HSEBYP);
 325              		.loc 1 362 3 view .LVU104
 326 015a 1968     		ldr	r1, [r3]
 327 015c 21F48021 		bic	r1, r1, #262144
 328 0160 1960     		str	r1, [r3]
 363:Drivers/STM32H7xx_HAL_Driver/Src/stm32h7xx_hal_rcc.c **** 
 364:Drivers/STM32H7xx_HAL_Driver/Src/stm32h7xx_hal_rcc.c ****   /* Disable all interrupts */
 365:Drivers/STM32H7xx_HAL_Driver/Src/stm32h7xx_hal_rcc.c ****   CLEAR_REG(RCC->CIER);
 329              		.loc 1 365 3 view .LVU105
 330 0162 1A66     		str	r2, [r3, #96]
 366:Drivers/STM32H7xx_HAL_Driver/Src/stm32h7xx_hal_rcc.c **** 
 367:Drivers/STM32H7xx_HAL_Driver/Src/stm32h7xx_hal_rcc.c ****   /* Clear all interrupts flags */
 368:Drivers/STM32H7xx_HAL_Driver/Src/stm32h7xx_hal_rcc.c ****   WRITE_REG(RCC->CICR, 0xFFFFFFFFU);
 331              		.loc 1 368 3 view .LVU106
 332 0164 4FF0FF32 		mov	r2, #-1
 333 0168 9A66     		str	r2, [r3, #104]
 369:Drivers/STM32H7xx_HAL_Driver/Src/stm32h7xx_hal_rcc.c **** 
 370:Drivers/STM32H7xx_HAL_Driver/Src/stm32h7xx_hal_rcc.c ****   /* Reset all RSR flags */
 371:Drivers/STM32H7xx_HAL_Driver/Src/stm32h7xx_hal_rcc.c ****   SET_BIT(RCC->RSR, RCC_RSR_RMVF);
 334              		.loc 1 371 3 view .LVU107
 335 016a D3F8D020 		ldr	r2, [r3, #208]
 336 016e 42F48032 		orr	r2, r2, #65536
 337 0172 C3F8D020 		str	r2, [r3, #208]
 372:Drivers/STM32H7xx_HAL_Driver/Src/stm32h7xx_hal_rcc.c **** 
 373:Drivers/STM32H7xx_HAL_Driver/Src/stm32h7xx_hal_rcc.c ****   /* Decreasing the number of wait states because of lower CPU frequency */
 374:Drivers/STM32H7xx_HAL_Driver/Src/stm32h7xx_hal_rcc.c ****   if (FLASH_LATENCY_DEFAULT  < __HAL_FLASH_GET_LATENCY())
 338              		.loc 1 374 3 view .LVU108
 339              		.loc 1 374 32 is_stmt 0 view .LVU109
 340 0176 0B4B     		ldr	r3, .L33
 341 0178 1B68     		ldr	r3, [r3]
 342              		.loc 1 374 6 view .LVU110
 343 017a 13F0080F 		tst	r3, #8
 344 017e 0ED0     		beq	.L3
 375:Drivers/STM32H7xx_HAL_Driver/Src/stm32h7xx_hal_rcc.c ****   {
 376:Drivers/STM32H7xx_HAL_Driver/Src/stm32h7xx_hal_rcc.c ****     /* Program the new number of wait states to the LATENCY bits in the FLASH_ACR register */
 377:Drivers/STM32H7xx_HAL_Driver/Src/stm32h7xx_hal_rcc.c ****     __HAL_FLASH_SET_LATENCY(FLASH_LATENCY_DEFAULT);
 345              		.loc 1 377 5 is_stmt 1 view .LVU111
 346 0180 084A     		ldr	r2, .L33
 347 0182 1368     		ldr	r3, [r2]
 348 0184 23F00F03 		bic	r3, r3, #15
 349 0188 43F00703 		orr	r3, r3, #7
 350 018c 1360     		str	r3, [r2]
 378:Drivers/STM32H7xx_HAL_Driver/Src/stm32h7xx_hal_rcc.c **** 
 379:Drivers/STM32H7xx_HAL_Driver/Src/stm32h7xx_hal_rcc.c ****     /* Check that the new number of wait states is taken into account to access the Flash
 380:Drivers/STM32H7xx_HAL_Driver/Src/stm32h7xx_hal_rcc.c ****     memory by reading the FLASH_ACR register */
 381:Drivers/STM32H7xx_HAL_Driver/Src/stm32h7xx_hal_rcc.c ****     if (__HAL_FLASH_GET_LATENCY() != FLASH_LATENCY_DEFAULT)
 351              		.loc 1 381 5 view .LVU112
 352              		.loc 1 381 9 is_stmt 0 view .LVU113
 353 018e 1368     		ldr	r3, [r2]
 354 0190 03F00F03 		and	r3, r3, #15
 355              		.loc 1 381 8 view .LVU114
 356 0194 072B     		cmp	r3, #7
 357 0196 02D0     		beq	.L3
 382:Drivers/STM32H7xx_HAL_Driver/Src/stm32h7xx_hal_rcc.c ****     {
 383:Drivers/STM32H7xx_HAL_Driver/Src/stm32h7xx_hal_rcc.c ****       return HAL_ERROR;
 358              		.loc 1 383 14 view .LVU115
 359 0198 0124     		movs	r4, #1
ARM GAS  /var/folders/g1/j12m_ky910s3_sv7d4yrsdn00000gn/T//ccmnBD4l.s 			page 14


 360 019a 00E0     		b	.L3
 361              	.LVL27:
 362              	.L16:
 202:Drivers/STM32H7xx_HAL_Driver/Src/stm32h7xx_hal_rcc.c ****     }
 363              		.loc 1 202 14 view .LVU116
 364 019c 0124     		movs	r4, #1
 365              	.L3:
 384:Drivers/STM32H7xx_HAL_Driver/Src/stm32h7xx_hal_rcc.c ****     }
 385:Drivers/STM32H7xx_HAL_Driver/Src/stm32h7xx_hal_rcc.c **** 
 386:Drivers/STM32H7xx_HAL_Driver/Src/stm32h7xx_hal_rcc.c ****   }
 387:Drivers/STM32H7xx_HAL_Driver/Src/stm32h7xx_hal_rcc.c **** 
 388:Drivers/STM32H7xx_HAL_Driver/Src/stm32h7xx_hal_rcc.c ****   return HAL_OK;
 389:Drivers/STM32H7xx_HAL_Driver/Src/stm32h7xx_hal_rcc.c **** }
 366              		.loc 1 389 1 view .LVU117
 367 019e 2046     		mov	r0, r4
 368 01a0 38BD     		pop	{r3, r4, r5, pc}
 369              	.L34:
 370 01a2 00BF     		.align	2
 371              	.L33:
 372 01a4 00200052 		.word	1375739904
 373 01a8 00440258 		.word	1476543488
 374 01ac 0090D003 		.word	64000000
 375 01b0 00000000 		.word	SystemCoreClock
 376 01b4 00000000 		.word	SystemD2Clock
 377 01b8 00000000 		.word	uwTickPrio
 378 01bc 45EDF6FF 		.word	-594619
 379 01c0 00020202 		.word	33686016
 380 01c4 0000FF01 		.word	33488896
 381 01c8 80020101 		.word	16843392
 382              		.cfi_endproc
 383              	.LFE144:
 385              		.section	.rodata.HAL_RCC_OscConfig.str1.4,"aMS",%progbits,1
 386              		.align	2
 387              	.LC0:
 388 0000 44726976 		.ascii	"Drivers/STM32H7xx_HAL_Driver/Src/stm32h7xx_hal_rcc."
 388      6572732F 
 388      53544D33 
 388      32483778 
 388      785F4841 
 389 0033 6300     		.ascii	"c\000"
 390              		.section	.text.HAL_RCC_OscConfig,"ax",%progbits
 391              		.align	1
 392              		.weak	HAL_RCC_OscConfig
 393              		.syntax unified
 394              		.thumb
 395              		.thumb_func
 397              	HAL_RCC_OscConfig:
 398              	.LVL28:
 399              	.LFB145:
 390:Drivers/STM32H7xx_HAL_Driver/Src/stm32h7xx_hal_rcc.c **** 
 391:Drivers/STM32H7xx_HAL_Driver/Src/stm32h7xx_hal_rcc.c **** /**
 392:Drivers/STM32H7xx_HAL_Driver/Src/stm32h7xx_hal_rcc.c ****   * @brief  Initializes the RCC Oscillators according to the specified parameters in the
 393:Drivers/STM32H7xx_HAL_Driver/Src/stm32h7xx_hal_rcc.c ****   *         RCC_OscInitTypeDef.
 394:Drivers/STM32H7xx_HAL_Driver/Src/stm32h7xx_hal_rcc.c ****   * @param  RCC_OscInitStruct: pointer to an RCC_OscInitTypeDef structure that
 395:Drivers/STM32H7xx_HAL_Driver/Src/stm32h7xx_hal_rcc.c ****   *         contains the configuration information for the RCC Oscillators.
 396:Drivers/STM32H7xx_HAL_Driver/Src/stm32h7xx_hal_rcc.c ****   * @note   The PLL is not disabled when used as system clock.
 397:Drivers/STM32H7xx_HAL_Driver/Src/stm32h7xx_hal_rcc.c ****   * @note   Transitions LSE Bypass to LSE On and LSE On to LSE Bypass are not
ARM GAS  /var/folders/g1/j12m_ky910s3_sv7d4yrsdn00000gn/T//ccmnBD4l.s 			page 15


 398:Drivers/STM32H7xx_HAL_Driver/Src/stm32h7xx_hal_rcc.c ****   *         supported by this function. User should request a transition to LSE Off
 399:Drivers/STM32H7xx_HAL_Driver/Src/stm32h7xx_hal_rcc.c ****   *         first and then LSE On or LSE Bypass.
 400:Drivers/STM32H7xx_HAL_Driver/Src/stm32h7xx_hal_rcc.c ****   * @note   Transition HSE Bypass to HSE On and HSE On to HSE Bypass are not
 401:Drivers/STM32H7xx_HAL_Driver/Src/stm32h7xx_hal_rcc.c ****   *         supported by this function. User should request a transition to HSE Off
 402:Drivers/STM32H7xx_HAL_Driver/Src/stm32h7xx_hal_rcc.c ****   *         first and then HSE On or HSE Bypass.
 403:Drivers/STM32H7xx_HAL_Driver/Src/stm32h7xx_hal_rcc.c ****   * @retval HAL status
 404:Drivers/STM32H7xx_HAL_Driver/Src/stm32h7xx_hal_rcc.c ****   */
 405:Drivers/STM32H7xx_HAL_Driver/Src/stm32h7xx_hal_rcc.c **** __weak HAL_StatusTypeDef HAL_RCC_OscConfig(RCC_OscInitTypeDef  *RCC_OscInitStruct)
 406:Drivers/STM32H7xx_HAL_Driver/Src/stm32h7xx_hal_rcc.c **** {
 400              		.loc 1 406 1 is_stmt 1 view -0
 401              		.cfi_startproc
 402              		@ args = 0, pretend = 0, frame = 0
 403              		@ frame_needed = 0, uses_anonymous_args = 0
 407:Drivers/STM32H7xx_HAL_Driver/Src/stm32h7xx_hal_rcc.c ****   uint32_t tickstart;
 404              		.loc 1 407 3 view .LVU119
 408:Drivers/STM32H7xx_HAL_Driver/Src/stm32h7xx_hal_rcc.c ****   uint32_t temp1_pllckcfg, temp2_pllckcfg;
 405              		.loc 1 408 3 view .LVU120
 409:Drivers/STM32H7xx_HAL_Driver/Src/stm32h7xx_hal_rcc.c **** 
 410:Drivers/STM32H7xx_HAL_Driver/Src/stm32h7xx_hal_rcc.c ****   /* Check Null pointer */
 411:Drivers/STM32H7xx_HAL_Driver/Src/stm32h7xx_hal_rcc.c ****   if (RCC_OscInitStruct == NULL)
 406              		.loc 1 411 3 view .LVU121
 407              		.loc 1 411 6 is_stmt 0 view .LVU122
 408 0000 0028     		cmp	r0, #0
 409 0002 00F01A84 		beq	.L130
 406:Drivers/STM32H7xx_HAL_Driver/Src/stm32h7xx_hal_rcc.c ****   uint32_t tickstart;
 410              		.loc 1 406 1 view .LVU123
 411 0006 38B5     		push	{r3, r4, r5, lr}
 412              	.LCFI1:
 413              		.cfi_def_cfa_offset 16
 414              		.cfi_offset 3, -16
 415              		.cfi_offset 4, -12
 416              		.cfi_offset 5, -8
 417              		.cfi_offset 14, -4
 418 0008 0446     		mov	r4, r0
 412:Drivers/STM32H7xx_HAL_Driver/Src/stm32h7xx_hal_rcc.c ****   {
 413:Drivers/STM32H7xx_HAL_Driver/Src/stm32h7xx_hal_rcc.c ****     return HAL_ERROR;
 414:Drivers/STM32H7xx_HAL_Driver/Src/stm32h7xx_hal_rcc.c ****   }
 415:Drivers/STM32H7xx_HAL_Driver/Src/stm32h7xx_hal_rcc.c **** 
 416:Drivers/STM32H7xx_HAL_Driver/Src/stm32h7xx_hal_rcc.c ****   /* Check the parameters */
 417:Drivers/STM32H7xx_HAL_Driver/Src/stm32h7xx_hal_rcc.c ****   assert_param(IS_RCC_OSCILLATORTYPE(RCC_OscInitStruct->OscillatorType));
 419              		.loc 1 417 3 is_stmt 1 view .LVU124
 420 000a 0368     		ldr	r3, [r0]
 421 000c 13B1     		cbz	r3, .L37
 422              		.loc 1 417 3 is_stmt 0 discriminator 1 view .LVU125
 423 000e 13F03F0F 		tst	r3, #63
 424 0012 25D0     		beq	.L164
 425              	.LVL29:
 426              	.L37:
 418:Drivers/STM32H7xx_HAL_Driver/Src/stm32h7xx_hal_rcc.c ****   /*------------------------------- HSE Configuration ------------------------*/
 419:Drivers/STM32H7xx_HAL_Driver/Src/stm32h7xx_hal_rcc.c ****   if (((RCC_OscInitStruct->OscillatorType) & RCC_OSCILLATORTYPE_HSE) == RCC_OSCILLATORTYPE_HSE)
 427              		.loc 1 419 3 is_stmt 1 view .LVU126
 428              		.loc 1 419 26 is_stmt 0 view .LVU127
 429 0014 2368     		ldr	r3, [r4]
 430              		.loc 1 419 6 view .LVU128
 431 0016 13F0010F 		tst	r3, #1
 432 001a 3AD0     		beq	.L38
 433              	.LBB2:
ARM GAS  /var/folders/g1/j12m_ky910s3_sv7d4yrsdn00000gn/T//ccmnBD4l.s 			page 16


 420:Drivers/STM32H7xx_HAL_Driver/Src/stm32h7xx_hal_rcc.c ****   {
 421:Drivers/STM32H7xx_HAL_Driver/Src/stm32h7xx_hal_rcc.c ****     /* Check the parameters */
 422:Drivers/STM32H7xx_HAL_Driver/Src/stm32h7xx_hal_rcc.c ****     assert_param(IS_RCC_HSE(RCC_OscInitStruct->HSEState));
 434              		.loc 1 422 5 is_stmt 1 view .LVU129
 435 001c 6368     		ldr	r3, [r4, #4]
 436 001e 002B     		cmp	r3, #0
 437 0020 18BF     		it	ne
 438 0022 B3F5803F 		cmpne	r3, #65536
 439 0026 02D0     		beq	.L39
 440              		.loc 1 422 5 is_stmt 0 discriminator 1 view .LVU130
 441 0028 B3F5A02F 		cmp	r3, #327680
 442 002c 1ED1     		bne	.L165
 443              	.L39:
 423:Drivers/STM32H7xx_HAL_Driver/Src/stm32h7xx_hal_rcc.c **** 
 424:Drivers/STM32H7xx_HAL_Driver/Src/stm32h7xx_hal_rcc.c ****     const uint32_t temp_sysclksrc = __HAL_RCC_GET_SYSCLK_SOURCE();
 444              		.loc 1 424 5 is_stmt 1 view .LVU131
 445              		.loc 1 424 37 is_stmt 0 view .LVU132
 446 002e A04A     		ldr	r2, .L203
 447 0030 1369     		ldr	r3, [r2, #16]
 448              		.loc 1 424 20 view .LVU133
 449 0032 03F03803 		and	r3, r3, #56
 450              	.LVL30:
 425:Drivers/STM32H7xx_HAL_Driver/Src/stm32h7xx_hal_rcc.c ****     const uint32_t temp_pllckselr = RCC->PLLCKSELR;
 451              		.loc 1 425 5 is_stmt 1 view .LVU134
 452              		.loc 1 425 20 is_stmt 0 view .LVU135
 453 0036 926A     		ldr	r2, [r2, #40]
 454              	.LVL31:
 426:Drivers/STM32H7xx_HAL_Driver/Src/stm32h7xx_hal_rcc.c ****     /* When the HSE is used as system clock or clock source for PLL in these cases HSE will not dis
 427:Drivers/STM32H7xx_HAL_Driver/Src/stm32h7xx_hal_rcc.c ****     if ((temp_sysclksrc == RCC_CFGR_SWS_HSE) || ((temp_sysclksrc == RCC_CFGR_SWS_PLL1) && ((temp_pl
 455              		.loc 1 427 5 is_stmt 1 view .LVU136
 456              		.loc 1 427 8 is_stmt 0 view .LVU137
 457 0038 102B     		cmp	r3, #16
 458 003a 21D0     		beq	.L40
 459              		.loc 1 427 46 discriminator 1 view .LVU138
 460 003c 182B     		cmp	r3, #24
 461 003e 1BD0     		beq	.L166
 462              	.LVL32:
 463              	.L41:
 428:Drivers/STM32H7xx_HAL_Driver/Src/stm32h7xx_hal_rcc.c ****     {
 429:Drivers/STM32H7xx_HAL_Driver/Src/stm32h7xx_hal_rcc.c ****       if ((__HAL_RCC_GET_FLAG(RCC_FLAG_HSERDY) != 0U) && (RCC_OscInitStruct->HSEState == RCC_HSE_OF
 430:Drivers/STM32H7xx_HAL_Driver/Src/stm32h7xx_hal_rcc.c ****       {
 431:Drivers/STM32H7xx_HAL_Driver/Src/stm32h7xx_hal_rcc.c ****         return HAL_ERROR;
 432:Drivers/STM32H7xx_HAL_Driver/Src/stm32h7xx_hal_rcc.c ****       }
 433:Drivers/STM32H7xx_HAL_Driver/Src/stm32h7xx_hal_rcc.c ****     }
 434:Drivers/STM32H7xx_HAL_Driver/Src/stm32h7xx_hal_rcc.c ****     else
 435:Drivers/STM32H7xx_HAL_Driver/Src/stm32h7xx_hal_rcc.c ****     {
 436:Drivers/STM32H7xx_HAL_Driver/Src/stm32h7xx_hal_rcc.c ****       /* Set the new HSE configuration ---------------------------------------*/
 437:Drivers/STM32H7xx_HAL_Driver/Src/stm32h7xx_hal_rcc.c ****       __HAL_RCC_HSE_CONFIG(RCC_OscInitStruct->HSEState);
 464              		.loc 1 437 7 is_stmt 1 view .LVU139
 465              		.loc 1 437 7 view .LVU140
 466 0040 6368     		ldr	r3, [r4, #4]
 467              	.LVL33:
 468              		.loc 1 437 7 is_stmt 0 view .LVU141
 469 0042 B3F5803F 		cmp	r3, #65536
 470 0046 57D0     		beq	.L167
 471              		.loc 1 437 7 is_stmt 1 discriminator 2 view .LVU142
 472 0048 002B     		cmp	r3, #0
ARM GAS  /var/folders/g1/j12m_ky910s3_sv7d4yrsdn00000gn/T//ccmnBD4l.s 			page 17


 473 004a 6BD1     		bne	.L44
 474              		.loc 1 437 7 discriminator 4 view .LVU143
 475 004c 984B     		ldr	r3, .L203
 476 004e 1A68     		ldr	r2, [r3]
 477 0050 22F48032 		bic	r2, r2, #65536
 478 0054 1A60     		str	r2, [r3]
 479              		.loc 1 437 7 view .LVU144
 480              		.loc 1 437 7 is_stmt 0 discriminator 4 view .LVU145
 481 0056 1A68     		ldr	r2, [r3]
 482 0058 22F48022 		bic	r2, r2, #262144
 483 005c 1A60     		str	r2, [r3]
 484 005e 50E0     		b	.L43
 485              	.LVL34:
 486              	.L164:
 487              		.loc 1 437 7 discriminator 4 view .LVU146
 488              	.LBE2:
 417:Drivers/STM32H7xx_HAL_Driver/Src/stm32h7xx_hal_rcc.c ****   /*------------------------------- HSE Configuration ------------------------*/
 489              		.loc 1 417 3 discriminator 2 view .LVU147
 490 0060 40F2A111 		movw	r1, #417
 491 0064 9348     		ldr	r0, .L203+4
 492              	.LVL35:
 417:Drivers/STM32H7xx_HAL_Driver/Src/stm32h7xx_hal_rcc.c ****   /*------------------------------- HSE Configuration ------------------------*/
 493              		.loc 1 417 3 discriminator 2 view .LVU148
 494 0066 FFF7FEFF 		bl	assert_failed
 495              	.LVL36:
 496 006a D3E7     		b	.L37
 497              	.L165:
 498              	.LBB3:
 422:Drivers/STM32H7xx_HAL_Driver/Src/stm32h7xx_hal_rcc.c **** 
 499              		.loc 1 422 5 discriminator 2 view .LVU149
 500 006c 4FF4D371 		mov	r1, #422
 501 0070 9048     		ldr	r0, .L203+4
 502 0072 FFF7FEFF 		bl	assert_failed
 503              	.LVL37:
 504 0076 DAE7     		b	.L39
 505              	.LVL38:
 506              	.L166:
 427:Drivers/STM32H7xx_HAL_Driver/Src/stm32h7xx_hal_rcc.c ****     {
 507              		.loc 1 427 108 discriminator 2 view .LVU150
 508 0078 02F00302 		and	r2, r2, #3
 509              	.LVL39:
 427:Drivers/STM32H7xx_HAL_Driver/Src/stm32h7xx_hal_rcc.c ****     {
 510              		.loc 1 427 88 discriminator 2 view .LVU151
 511 007c 022A     		cmp	r2, #2
 512 007e DFD1     		bne	.L41
 513              	.L40:
 429:Drivers/STM32H7xx_HAL_Driver/Src/stm32h7xx_hal_rcc.c ****       {
 514              		.loc 1 429 7 is_stmt 1 view .LVU152
 429:Drivers/STM32H7xx_HAL_Driver/Src/stm32h7xx_hal_rcc.c ****       {
 515              		.loc 1 429 12 is_stmt 0 view .LVU153
 516 0080 8B4B     		ldr	r3, .L203
 517              	.LVL40:
 429:Drivers/STM32H7xx_HAL_Driver/Src/stm32h7xx_hal_rcc.c ****       {
 518              		.loc 1 429 12 view .LVU154
 519 0082 1B68     		ldr	r3, [r3]
 429:Drivers/STM32H7xx_HAL_Driver/Src/stm32h7xx_hal_rcc.c ****       {
 520              		.loc 1 429 10 view .LVU155
ARM GAS  /var/folders/g1/j12m_ky910s3_sv7d4yrsdn00000gn/T//ccmnBD4l.s 			page 18


 521 0084 13F4003F 		tst	r3, #131072
 522 0088 03D0     		beq	.L38
 429:Drivers/STM32H7xx_HAL_Driver/Src/stm32h7xx_hal_rcc.c ****       {
 523              		.loc 1 429 76 discriminator 1 view .LVU156
 524 008a 6368     		ldr	r3, [r4, #4]
 429:Drivers/STM32H7xx_HAL_Driver/Src/stm32h7xx_hal_rcc.c ****       {
 525              		.loc 1 429 55 discriminator 1 view .LVU157
 526 008c 002B     		cmp	r3, #0
 527 008e 00F0D683 		beq	.L168
 528              	.LVL41:
 529              	.L38:
 429:Drivers/STM32H7xx_HAL_Driver/Src/stm32h7xx_hal_rcc.c ****       {
 530              		.loc 1 429 55 discriminator 1 view .LVU158
 531              	.LBE3:
 438:Drivers/STM32H7xx_HAL_Driver/Src/stm32h7xx_hal_rcc.c **** 
 439:Drivers/STM32H7xx_HAL_Driver/Src/stm32h7xx_hal_rcc.c ****       /* Check the HSE State */
 440:Drivers/STM32H7xx_HAL_Driver/Src/stm32h7xx_hal_rcc.c ****       if (RCC_OscInitStruct->HSEState != RCC_HSE_OFF)
 441:Drivers/STM32H7xx_HAL_Driver/Src/stm32h7xx_hal_rcc.c ****       {
 442:Drivers/STM32H7xx_HAL_Driver/Src/stm32h7xx_hal_rcc.c ****         /* Get Start Tick*/
 443:Drivers/STM32H7xx_HAL_Driver/Src/stm32h7xx_hal_rcc.c ****         tickstart = HAL_GetTick();
 444:Drivers/STM32H7xx_HAL_Driver/Src/stm32h7xx_hal_rcc.c **** 
 445:Drivers/STM32H7xx_HAL_Driver/Src/stm32h7xx_hal_rcc.c ****         /* Wait till HSE is ready */
 446:Drivers/STM32H7xx_HAL_Driver/Src/stm32h7xx_hal_rcc.c ****         while (__HAL_RCC_GET_FLAG(RCC_FLAG_HSERDY) == 0U)
 447:Drivers/STM32H7xx_HAL_Driver/Src/stm32h7xx_hal_rcc.c ****         {
 448:Drivers/STM32H7xx_HAL_Driver/Src/stm32h7xx_hal_rcc.c ****           if ((uint32_t)(HAL_GetTick() - tickstart) > HSE_TIMEOUT_VALUE)
 449:Drivers/STM32H7xx_HAL_Driver/Src/stm32h7xx_hal_rcc.c ****           {
 450:Drivers/STM32H7xx_HAL_Driver/Src/stm32h7xx_hal_rcc.c ****             return HAL_TIMEOUT;
 451:Drivers/STM32H7xx_HAL_Driver/Src/stm32h7xx_hal_rcc.c ****           }
 452:Drivers/STM32H7xx_HAL_Driver/Src/stm32h7xx_hal_rcc.c ****         }
 453:Drivers/STM32H7xx_HAL_Driver/Src/stm32h7xx_hal_rcc.c ****       }
 454:Drivers/STM32H7xx_HAL_Driver/Src/stm32h7xx_hal_rcc.c ****       else
 455:Drivers/STM32H7xx_HAL_Driver/Src/stm32h7xx_hal_rcc.c ****       {
 456:Drivers/STM32H7xx_HAL_Driver/Src/stm32h7xx_hal_rcc.c ****         /* Get Start Tick*/
 457:Drivers/STM32H7xx_HAL_Driver/Src/stm32h7xx_hal_rcc.c ****         tickstart = HAL_GetTick();
 458:Drivers/STM32H7xx_HAL_Driver/Src/stm32h7xx_hal_rcc.c **** 
 459:Drivers/STM32H7xx_HAL_Driver/Src/stm32h7xx_hal_rcc.c ****         /* Wait till HSE is disabled */
 460:Drivers/STM32H7xx_HAL_Driver/Src/stm32h7xx_hal_rcc.c ****         while (__HAL_RCC_GET_FLAG(RCC_FLAG_HSERDY) != 0U)
 461:Drivers/STM32H7xx_HAL_Driver/Src/stm32h7xx_hal_rcc.c ****         {
 462:Drivers/STM32H7xx_HAL_Driver/Src/stm32h7xx_hal_rcc.c ****           if ((uint32_t)(HAL_GetTick() - tickstart) > HSE_TIMEOUT_VALUE)
 463:Drivers/STM32H7xx_HAL_Driver/Src/stm32h7xx_hal_rcc.c ****           {
 464:Drivers/STM32H7xx_HAL_Driver/Src/stm32h7xx_hal_rcc.c ****             return HAL_TIMEOUT;
 465:Drivers/STM32H7xx_HAL_Driver/Src/stm32h7xx_hal_rcc.c ****           }
 466:Drivers/STM32H7xx_HAL_Driver/Src/stm32h7xx_hal_rcc.c ****         }
 467:Drivers/STM32H7xx_HAL_Driver/Src/stm32h7xx_hal_rcc.c ****       }
 468:Drivers/STM32H7xx_HAL_Driver/Src/stm32h7xx_hal_rcc.c ****     }
 469:Drivers/STM32H7xx_HAL_Driver/Src/stm32h7xx_hal_rcc.c ****   }
 470:Drivers/STM32H7xx_HAL_Driver/Src/stm32h7xx_hal_rcc.c ****   /*----------------------------- HSI Configuration --------------------------*/
 471:Drivers/STM32H7xx_HAL_Driver/Src/stm32h7xx_hal_rcc.c ****   if (((RCC_OscInitStruct->OscillatorType) & RCC_OSCILLATORTYPE_HSI) == RCC_OSCILLATORTYPE_HSI)
 532              		.loc 1 471 3 is_stmt 1 view .LVU159
 533              		.loc 1 471 26 is_stmt 0 view .LVU160
 534 0092 2368     		ldr	r3, [r4]
 535              		.loc 1 471 6 view .LVU161
 536 0094 13F0020F 		tst	r3, #2
 537 0098 00F0B980 		beq	.L51
 538              	.LBB4:
 472:Drivers/STM32H7xx_HAL_Driver/Src/stm32h7xx_hal_rcc.c ****   {
 473:Drivers/STM32H7xx_HAL_Driver/Src/stm32h7xx_hal_rcc.c ****     /* Check the parameters */
ARM GAS  /var/folders/g1/j12m_ky910s3_sv7d4yrsdn00000gn/T//ccmnBD4l.s 			page 19


 474:Drivers/STM32H7xx_HAL_Driver/Src/stm32h7xx_hal_rcc.c ****     assert_param(IS_RCC_HSI(RCC_OscInitStruct->HSIState));
 539              		.loc 1 474 5 is_stmt 1 view .LVU162
 540 009c E368     		ldr	r3, [r4, #12]
 541 009e 092B     		cmp	r3, #9
 542 00a0 18BF     		it	ne
 543 00a2 012B     		cmpne	r3, #1
 544 00a4 03D9     		bls	.L52
 545              		.loc 1 474 5 is_stmt 0 discriminator 1 view .LVU163
 546 00a6 112B     		cmp	r3, #17
 547 00a8 01D0     		beq	.L52
 548              		.loc 1 474 5 discriminator 2 view .LVU164
 549 00aa 192B     		cmp	r3, #25
 550 00ac 60D1     		bne	.L169
 551              	.L52:
 475:Drivers/STM32H7xx_HAL_Driver/Src/stm32h7xx_hal_rcc.c ****     assert_param(IS_RCC_HSICALIBRATION_VALUE(RCC_OscInitStruct->HSICalibrationValue));
 552              		.loc 1 475 5 is_stmt 1 view .LVU165
 553 00ae 2369     		ldr	r3, [r4, #16]
 554 00b0 7F2B     		cmp	r3, #127
 555 00b2 63D8     		bhi	.L170
 556              	.L53:
 476:Drivers/STM32H7xx_HAL_Driver/Src/stm32h7xx_hal_rcc.c **** 
 477:Drivers/STM32H7xx_HAL_Driver/Src/stm32h7xx_hal_rcc.c ****     /* When the HSI is used as system clock it will not be disabled */
 478:Drivers/STM32H7xx_HAL_Driver/Src/stm32h7xx_hal_rcc.c ****     const uint32_t temp_sysclksrc = __HAL_RCC_GET_SYSCLK_SOURCE();
 557              		.loc 1 478 5 view .LVU166
 558              		.loc 1 478 37 is_stmt 0 view .LVU167
 559 00b4 7E4A     		ldr	r2, .L203
 560 00b6 1369     		ldr	r3, [r2, #16]
 561              	.LVL42:
 479:Drivers/STM32H7xx_HAL_Driver/Src/stm32h7xx_hal_rcc.c ****     const uint32_t temp_pllckselr = RCC->PLLCKSELR;
 562              		.loc 1 479 5 is_stmt 1 view .LVU168
 563              		.loc 1 479 20 is_stmt 0 view .LVU169
 564 00b8 926A     		ldr	r2, [r2, #40]
 565              	.LVL43:
 480:Drivers/STM32H7xx_HAL_Driver/Src/stm32h7xx_hal_rcc.c ****     if ((temp_sysclksrc == RCC_CFGR_SWS_HSI) || ((temp_sysclksrc == RCC_CFGR_SWS_PLL1) && ((temp_pl
 566              		.loc 1 480 5 is_stmt 1 view .LVU170
 567              		.loc 1 480 8 is_stmt 0 view .LVU171
 568 00ba 13F03803 		ands	r3, r3, #56
 569              	.LVL44:
 570              		.loc 1 480 8 view .LVU172
 571 00be 66D0     		beq	.L54
 572              		.loc 1 480 46 discriminator 1 view .LVU173
 573 00c0 182B     		cmp	r3, #24
 574 00c2 61D0     		beq	.L171
 575              	.L55:
 481:Drivers/STM32H7xx_HAL_Driver/Src/stm32h7xx_hal_rcc.c ****     {
 482:Drivers/STM32H7xx_HAL_Driver/Src/stm32h7xx_hal_rcc.c ****       /* When HSI is used as system clock it will not be disabled */
 483:Drivers/STM32H7xx_HAL_Driver/Src/stm32h7xx_hal_rcc.c ****       if ((__HAL_RCC_GET_FLAG(RCC_FLAG_HSIRDY) != 0U) && (RCC_OscInitStruct->HSIState == RCC_HSI_OF
 484:Drivers/STM32H7xx_HAL_Driver/Src/stm32h7xx_hal_rcc.c ****       {
 485:Drivers/STM32H7xx_HAL_Driver/Src/stm32h7xx_hal_rcc.c ****         return HAL_ERROR;
 486:Drivers/STM32H7xx_HAL_Driver/Src/stm32h7xx_hal_rcc.c ****       }
 487:Drivers/STM32H7xx_HAL_Driver/Src/stm32h7xx_hal_rcc.c ****       /* Otherwise, only HSI division and calibration are allowed */
 488:Drivers/STM32H7xx_HAL_Driver/Src/stm32h7xx_hal_rcc.c ****       else
 489:Drivers/STM32H7xx_HAL_Driver/Src/stm32h7xx_hal_rcc.c ****       {
 490:Drivers/STM32H7xx_HAL_Driver/Src/stm32h7xx_hal_rcc.c ****         /* Enable the Internal High Speed oscillator (HSI, HSIDIV2, HSIDIV4, or HSIDIV8) */
 491:Drivers/STM32H7xx_HAL_Driver/Src/stm32h7xx_hal_rcc.c ****         __HAL_RCC_HSI_CONFIG(RCC_OscInitStruct->HSIState);
 492:Drivers/STM32H7xx_HAL_Driver/Src/stm32h7xx_hal_rcc.c **** 
 493:Drivers/STM32H7xx_HAL_Driver/Src/stm32h7xx_hal_rcc.c ****         /* Get Start Tick*/
ARM GAS  /var/folders/g1/j12m_ky910s3_sv7d4yrsdn00000gn/T//ccmnBD4l.s 			page 20


 494:Drivers/STM32H7xx_HAL_Driver/Src/stm32h7xx_hal_rcc.c ****         tickstart = HAL_GetTick();
 495:Drivers/STM32H7xx_HAL_Driver/Src/stm32h7xx_hal_rcc.c **** 
 496:Drivers/STM32H7xx_HAL_Driver/Src/stm32h7xx_hal_rcc.c ****         /* Wait till HSI is ready */
 497:Drivers/STM32H7xx_HAL_Driver/Src/stm32h7xx_hal_rcc.c ****         while (__HAL_RCC_GET_FLAG(RCC_FLAG_HSIRDY) == 0U)
 498:Drivers/STM32H7xx_HAL_Driver/Src/stm32h7xx_hal_rcc.c ****         {
 499:Drivers/STM32H7xx_HAL_Driver/Src/stm32h7xx_hal_rcc.c ****           if ((uint32_t)(HAL_GetTick() - tickstart) > HSI_TIMEOUT_VALUE)
 500:Drivers/STM32H7xx_HAL_Driver/Src/stm32h7xx_hal_rcc.c ****           {
 501:Drivers/STM32H7xx_HAL_Driver/Src/stm32h7xx_hal_rcc.c ****             return HAL_TIMEOUT;
 502:Drivers/STM32H7xx_HAL_Driver/Src/stm32h7xx_hal_rcc.c ****           }
 503:Drivers/STM32H7xx_HAL_Driver/Src/stm32h7xx_hal_rcc.c ****         }
 504:Drivers/STM32H7xx_HAL_Driver/Src/stm32h7xx_hal_rcc.c ****         /* Adjusts the Internal High Speed oscillator (HSI) calibration value.*/
 505:Drivers/STM32H7xx_HAL_Driver/Src/stm32h7xx_hal_rcc.c ****         __HAL_RCC_HSI_CALIBRATIONVALUE_ADJUST(RCC_OscInitStruct->HSICalibrationValue);
 506:Drivers/STM32H7xx_HAL_Driver/Src/stm32h7xx_hal_rcc.c ****       }
 507:Drivers/STM32H7xx_HAL_Driver/Src/stm32h7xx_hal_rcc.c ****     }
 508:Drivers/STM32H7xx_HAL_Driver/Src/stm32h7xx_hal_rcc.c **** 
 509:Drivers/STM32H7xx_HAL_Driver/Src/stm32h7xx_hal_rcc.c ****     else
 510:Drivers/STM32H7xx_HAL_Driver/Src/stm32h7xx_hal_rcc.c ****     {
 511:Drivers/STM32H7xx_HAL_Driver/Src/stm32h7xx_hal_rcc.c ****       /* Check the HSI State */
 512:Drivers/STM32H7xx_HAL_Driver/Src/stm32h7xx_hal_rcc.c ****       if ((RCC_OscInitStruct->HSIState) != RCC_HSI_OFF)
 576              		.loc 1 512 7 is_stmt 1 view .LVU174
 577              		.loc 1 512 29 is_stmt 0 view .LVU175
 578 00c4 E368     		ldr	r3, [r4, #12]
 579              	.LVL45:
 580              		.loc 1 512 10 view .LVU176
 581 00c6 002B     		cmp	r3, #0
 582 00c8 00F0F680 		beq	.L61
 513:Drivers/STM32H7xx_HAL_Driver/Src/stm32h7xx_hal_rcc.c ****       {
 514:Drivers/STM32H7xx_HAL_Driver/Src/stm32h7xx_hal_rcc.c ****         /* Enable the Internal High Speed oscillator (HSI, HSIDIV2,HSIDIV4, or HSIDIV8) */
 515:Drivers/STM32H7xx_HAL_Driver/Src/stm32h7xx_hal_rcc.c ****         __HAL_RCC_HSI_CONFIG(RCC_OscInitStruct->HSIState);
 583              		.loc 1 515 9 is_stmt 1 view .LVU177
 584 00cc 7849     		ldr	r1, .L203
 585 00ce 0A68     		ldr	r2, [r1]
 586              	.LVL46:
 587              		.loc 1 515 9 is_stmt 0 view .LVU178
 588 00d0 22F01902 		bic	r2, r2, #25
 589 00d4 1343     		orrs	r3, r3, r2
 590 00d6 0B60     		str	r3, [r1]
 516:Drivers/STM32H7xx_HAL_Driver/Src/stm32h7xx_hal_rcc.c **** 
 517:Drivers/STM32H7xx_HAL_Driver/Src/stm32h7xx_hal_rcc.c ****         /* Get Start Tick*/
 518:Drivers/STM32H7xx_HAL_Driver/Src/stm32h7xx_hal_rcc.c ****         tickstart = HAL_GetTick();
 591              		.loc 1 518 9 is_stmt 1 view .LVU179
 592              		.loc 1 518 21 is_stmt 0 view .LVU180
 593 00d8 FFF7FEFF 		bl	HAL_GetTick
 594              	.LVL47:
 595 00dc 0546     		mov	r5, r0
 596              	.LVL48:
 519:Drivers/STM32H7xx_HAL_Driver/Src/stm32h7xx_hal_rcc.c **** 
 520:Drivers/STM32H7xx_HAL_Driver/Src/stm32h7xx_hal_rcc.c ****         /* Wait till HSI is ready */
 521:Drivers/STM32H7xx_HAL_Driver/Src/stm32h7xx_hal_rcc.c ****         while (__HAL_RCC_GET_FLAG(RCC_FLAG_HSIRDY) == 0U)
 597              		.loc 1 521 9 is_stmt 1 view .LVU181
 598              	.L62:
 599              		.loc 1 521 52 view .LVU182
 600              		.loc 1 521 16 is_stmt 0 view .LVU183
 601 00de 744B     		ldr	r3, .L203
 602 00e0 1B68     		ldr	r3, [r3]
 603              		.loc 1 521 52 view .LVU184
 604 00e2 13F0040F 		tst	r3, #4
ARM GAS  /var/folders/g1/j12m_ky910s3_sv7d4yrsdn00000gn/T//ccmnBD4l.s 			page 21


 605 00e6 40F0C180 		bne	.L172
 522:Drivers/STM32H7xx_HAL_Driver/Src/stm32h7xx_hal_rcc.c ****         {
 523:Drivers/STM32H7xx_HAL_Driver/Src/stm32h7xx_hal_rcc.c ****           if ((HAL_GetTick() - tickstart) > HSI_TIMEOUT_VALUE)
 606              		.loc 1 523 11 is_stmt 1 view .LVU185
 607              		.loc 1 523 16 is_stmt 0 view .LVU186
 608 00ea FFF7FEFF 		bl	HAL_GetTick
 609              	.LVL49:
 610              		.loc 1 523 30 discriminator 1 view .LVU187
 611 00ee 401B     		subs	r0, r0, r5
 612              		.loc 1 523 14 discriminator 1 view .LVU188
 613 00f0 0228     		cmp	r0, #2
 614 00f2 F4D9     		bls	.L62
 524:Drivers/STM32H7xx_HAL_Driver/Src/stm32h7xx_hal_rcc.c ****           {
 525:Drivers/STM32H7xx_HAL_Driver/Src/stm32h7xx_hal_rcc.c ****             return HAL_TIMEOUT;
 615              		.loc 1 525 20 view .LVU189
 616 00f4 0320     		movs	r0, #3
 617 00f6 68E0     		b	.L36
 618              	.LVL50:
 619              	.L167:
 620              		.loc 1 525 20 view .LVU190
 621              	.LBE4:
 622              	.LBB5:
 437:Drivers/STM32H7xx_HAL_Driver/Src/stm32h7xx_hal_rcc.c **** 
 623              		.loc 1 437 7 is_stmt 1 discriminator 1 view .LVU191
 624 00f8 6D4A     		ldr	r2, .L203
 625 00fa 1368     		ldr	r3, [r2]
 626 00fc 43F48033 		orr	r3, r3, #65536
 627 0100 1360     		str	r3, [r2]
 628              	.L43:
 437:Drivers/STM32H7xx_HAL_Driver/Src/stm32h7xx_hal_rcc.c **** 
 629              		.loc 1 437 7 discriminator 10 view .LVU192
 440:Drivers/STM32H7xx_HAL_Driver/Src/stm32h7xx_hal_rcc.c ****       {
 630              		.loc 1 440 7 view .LVU193
 440:Drivers/STM32H7xx_HAL_Driver/Src/stm32h7xx_hal_rcc.c ****       {
 631              		.loc 1 440 28 is_stmt 0 view .LVU194
 632 0102 6368     		ldr	r3, [r4, #4]
 440:Drivers/STM32H7xx_HAL_Driver/Src/stm32h7xx_hal_rcc.c ****       {
 633              		.loc 1 440 10 view .LVU195
 634 0104 2BB3     		cbz	r3, .L46
 443:Drivers/STM32H7xx_HAL_Driver/Src/stm32h7xx_hal_rcc.c **** 
 635              		.loc 1 443 9 is_stmt 1 view .LVU196
 443:Drivers/STM32H7xx_HAL_Driver/Src/stm32h7xx_hal_rcc.c **** 
 636              		.loc 1 443 21 is_stmt 0 view .LVU197
 637 0106 FFF7FEFF 		bl	HAL_GetTick
 638              	.LVL51:
 639 010a 0546     		mov	r5, r0
 640              	.LVL52:
 446:Drivers/STM32H7xx_HAL_Driver/Src/stm32h7xx_hal_rcc.c ****         {
 641              		.loc 1 446 9 is_stmt 1 view .LVU198
 642              	.L47:
 446:Drivers/STM32H7xx_HAL_Driver/Src/stm32h7xx_hal_rcc.c ****         {
 643              		.loc 1 446 52 view .LVU199
 446:Drivers/STM32H7xx_HAL_Driver/Src/stm32h7xx_hal_rcc.c ****         {
 644              		.loc 1 446 16 is_stmt 0 view .LVU200
 645 010c 684B     		ldr	r3, .L203
 646 010e 1B68     		ldr	r3, [r3]
 446:Drivers/STM32H7xx_HAL_Driver/Src/stm32h7xx_hal_rcc.c ****         {
ARM GAS  /var/folders/g1/j12m_ky910s3_sv7d4yrsdn00000gn/T//ccmnBD4l.s 			page 22


 647              		.loc 1 446 52 view .LVU201
 648 0110 13F4003F 		tst	r3, #131072
 649 0114 BDD1     		bne	.L38
 448:Drivers/STM32H7xx_HAL_Driver/Src/stm32h7xx_hal_rcc.c ****           {
 650              		.loc 1 448 11 is_stmt 1 view .LVU202
 448:Drivers/STM32H7xx_HAL_Driver/Src/stm32h7xx_hal_rcc.c ****           {
 651              		.loc 1 448 26 is_stmt 0 view .LVU203
 652 0116 FFF7FEFF 		bl	HAL_GetTick
 653              	.LVL53:
 448:Drivers/STM32H7xx_HAL_Driver/Src/stm32h7xx_hal_rcc.c ****           {
 654              		.loc 1 448 40 discriminator 1 view .LVU204
 655 011a 401B     		subs	r0, r0, r5
 448:Drivers/STM32H7xx_HAL_Driver/Src/stm32h7xx_hal_rcc.c ****           {
 656              		.loc 1 448 14 discriminator 1 view .LVU205
 657 011c 6428     		cmp	r0, #100
 658 011e F5D9     		bls	.L47
 450:Drivers/STM32H7xx_HAL_Driver/Src/stm32h7xx_hal_rcc.c ****           }
 659              		.loc 1 450 20 view .LVU206
 660 0120 0320     		movs	r0, #3
 661 0122 52E0     		b	.L36
 662              	.LVL54:
 663              	.L44:
 437:Drivers/STM32H7xx_HAL_Driver/Src/stm32h7xx_hal_rcc.c **** 
 664              		.loc 1 437 7 is_stmt 1 discriminator 5 view .LVU207
 665 0124 B3F5A02F 		cmp	r3, #327680
 666 0128 09D0     		beq	.L173
 437:Drivers/STM32H7xx_HAL_Driver/Src/stm32h7xx_hal_rcc.c **** 
 667              		.loc 1 437 7 discriminator 8 view .LVU208
 668 012a 614B     		ldr	r3, .L203
 669 012c 1A68     		ldr	r2, [r3]
 670 012e 22F48032 		bic	r2, r2, #65536
 671 0132 1A60     		str	r2, [r3]
 437:Drivers/STM32H7xx_HAL_Driver/Src/stm32h7xx_hal_rcc.c **** 
 672              		.loc 1 437 7 view .LVU209
 437:Drivers/STM32H7xx_HAL_Driver/Src/stm32h7xx_hal_rcc.c **** 
 673              		.loc 1 437 7 is_stmt 0 discriminator 8 view .LVU210
 674 0134 1A68     		ldr	r2, [r3]
 675 0136 22F48022 		bic	r2, r2, #262144
 676 013a 1A60     		str	r2, [r3]
 677 013c E1E7     		b	.L43
 678              	.L173:
 437:Drivers/STM32H7xx_HAL_Driver/Src/stm32h7xx_hal_rcc.c **** 
 679              		.loc 1 437 7 is_stmt 1 discriminator 7 view .LVU211
 680 013e 5C4B     		ldr	r3, .L203
 681 0140 1A68     		ldr	r2, [r3]
 682 0142 42F48022 		orr	r2, r2, #262144
 683 0146 1A60     		str	r2, [r3]
 437:Drivers/STM32H7xx_HAL_Driver/Src/stm32h7xx_hal_rcc.c **** 
 684              		.loc 1 437 7 view .LVU212
 437:Drivers/STM32H7xx_HAL_Driver/Src/stm32h7xx_hal_rcc.c **** 
 685              		.loc 1 437 7 is_stmt 0 discriminator 7 view .LVU213
 686 0148 1A68     		ldr	r2, [r3]
 687 014a 42F48032 		orr	r2, r2, #65536
 688 014e 1A60     		str	r2, [r3]
 689 0150 D7E7     		b	.L43
 690              	.L46:
 457:Drivers/STM32H7xx_HAL_Driver/Src/stm32h7xx_hal_rcc.c **** 
ARM GAS  /var/folders/g1/j12m_ky910s3_sv7d4yrsdn00000gn/T//ccmnBD4l.s 			page 23


 691              		.loc 1 457 9 is_stmt 1 view .LVU214
 457:Drivers/STM32H7xx_HAL_Driver/Src/stm32h7xx_hal_rcc.c **** 
 692              		.loc 1 457 21 is_stmt 0 view .LVU215
 693 0152 FFF7FEFF 		bl	HAL_GetTick
 694              	.LVL55:
 695 0156 0546     		mov	r5, r0
 696              	.LVL56:
 460:Drivers/STM32H7xx_HAL_Driver/Src/stm32h7xx_hal_rcc.c ****         {
 697              		.loc 1 460 9 is_stmt 1 view .LVU216
 698              	.L49:
 460:Drivers/STM32H7xx_HAL_Driver/Src/stm32h7xx_hal_rcc.c ****         {
 699              		.loc 1 460 52 view .LVU217
 460:Drivers/STM32H7xx_HAL_Driver/Src/stm32h7xx_hal_rcc.c ****         {
 700              		.loc 1 460 16 is_stmt 0 view .LVU218
 701 0158 554B     		ldr	r3, .L203
 702 015a 1B68     		ldr	r3, [r3]
 460:Drivers/STM32H7xx_HAL_Driver/Src/stm32h7xx_hal_rcc.c ****         {
 703              		.loc 1 460 52 view .LVU219
 704 015c 13F4003F 		tst	r3, #131072
 705 0160 97D0     		beq	.L38
 462:Drivers/STM32H7xx_HAL_Driver/Src/stm32h7xx_hal_rcc.c ****           {
 706              		.loc 1 462 11 is_stmt 1 view .LVU220
 462:Drivers/STM32H7xx_HAL_Driver/Src/stm32h7xx_hal_rcc.c ****           {
 707              		.loc 1 462 26 is_stmt 0 view .LVU221
 708 0162 FFF7FEFF 		bl	HAL_GetTick
 709              	.LVL57:
 462:Drivers/STM32H7xx_HAL_Driver/Src/stm32h7xx_hal_rcc.c ****           {
 710              		.loc 1 462 40 discriminator 1 view .LVU222
 711 0166 401B     		subs	r0, r0, r5
 462:Drivers/STM32H7xx_HAL_Driver/Src/stm32h7xx_hal_rcc.c ****           {
 712              		.loc 1 462 14 discriminator 1 view .LVU223
 713 0168 6428     		cmp	r0, #100
 714 016a F5D9     		bls	.L49
 464:Drivers/STM32H7xx_HAL_Driver/Src/stm32h7xx_hal_rcc.c ****           }
 715              		.loc 1 464 20 view .LVU224
 716 016c 0320     		movs	r0, #3
 717 016e 2CE0     		b	.L36
 718              	.LVL58:
 719              	.L169:
 464:Drivers/STM32H7xx_HAL_Driver/Src/stm32h7xx_hal_rcc.c ****           }
 720              		.loc 1 464 20 view .LVU225
 721              	.LBE5:
 722              	.LBB6:
 474:Drivers/STM32H7xx_HAL_Driver/Src/stm32h7xx_hal_rcc.c ****     assert_param(IS_RCC_HSICALIBRATION_VALUE(RCC_OscInitStruct->HSICalibrationValue));
 723              		.loc 1 474 5 discriminator 3 view .LVU226
 724 0170 4FF4ED71 		mov	r1, #474
 725 0174 4F48     		ldr	r0, .L203+4
 726 0176 FFF7FEFF 		bl	assert_failed
 727              	.LVL59:
 728 017a 98E7     		b	.L52
 729              	.L170:
 475:Drivers/STM32H7xx_HAL_Driver/Src/stm32h7xx_hal_rcc.c **** 
 730              		.loc 1 475 5 discriminator 1 view .LVU227
 731 017c 40F2DB11 		movw	r1, #475
 732 0180 4C48     		ldr	r0, .L203+4
 733 0182 FFF7FEFF 		bl	assert_failed
 734              	.LVL60:
ARM GAS  /var/folders/g1/j12m_ky910s3_sv7d4yrsdn00000gn/T//ccmnBD4l.s 			page 24


 735 0186 95E7     		b	.L53
 736              	.LVL61:
 737              	.L171:
 480:Drivers/STM32H7xx_HAL_Driver/Src/stm32h7xx_hal_rcc.c ****     {
 738              		.loc 1 480 88 discriminator 2 view .LVU228
 739 0188 12F0030F 		tst	r2, #3
 740 018c 9AD1     		bne	.L55
 741              	.L54:
 483:Drivers/STM32H7xx_HAL_Driver/Src/stm32h7xx_hal_rcc.c ****       {
 742              		.loc 1 483 7 is_stmt 1 view .LVU229
 483:Drivers/STM32H7xx_HAL_Driver/Src/stm32h7xx_hal_rcc.c ****       {
 743              		.loc 1 483 12 is_stmt 0 view .LVU230
 744 018e 484B     		ldr	r3, .L203
 745              	.LVL62:
 483:Drivers/STM32H7xx_HAL_Driver/Src/stm32h7xx_hal_rcc.c ****       {
 746              		.loc 1 483 12 view .LVU231
 747 0190 1B68     		ldr	r3, [r3]
 483:Drivers/STM32H7xx_HAL_Driver/Src/stm32h7xx_hal_rcc.c ****       {
 748              		.loc 1 483 10 view .LVU232
 749 0192 13F0040F 		tst	r3, #4
 750 0196 03D0     		beq	.L56
 483:Drivers/STM32H7xx_HAL_Driver/Src/stm32h7xx_hal_rcc.c ****       {
 751              		.loc 1 483 76 discriminator 1 view .LVU233
 752 0198 E368     		ldr	r3, [r4, #12]
 483:Drivers/STM32H7xx_HAL_Driver/Src/stm32h7xx_hal_rcc.c ****       {
 753              		.loc 1 483 55 discriminator 1 view .LVU234
 754 019a 002B     		cmp	r3, #0
 755 019c 00F05183 		beq	.L134
 756              	.L56:
 491:Drivers/STM32H7xx_HAL_Driver/Src/stm32h7xx_hal_rcc.c **** 
 757              		.loc 1 491 9 is_stmt 1 view .LVU235
 758 01a0 434A     		ldr	r2, .L203
 759              	.LVL63:
 491:Drivers/STM32H7xx_HAL_Driver/Src/stm32h7xx_hal_rcc.c **** 
 760              		.loc 1 491 9 is_stmt 0 view .LVU236
 761 01a2 1368     		ldr	r3, [r2]
 762 01a4 23F01903 		bic	r3, r3, #25
 763 01a8 E168     		ldr	r1, [r4, #12]
 764 01aa 0B43     		orrs	r3, r3, r1
 765 01ac 1360     		str	r3, [r2]
 494:Drivers/STM32H7xx_HAL_Driver/Src/stm32h7xx_hal_rcc.c **** 
 766              		.loc 1 494 9 is_stmt 1 view .LVU237
 494:Drivers/STM32H7xx_HAL_Driver/Src/stm32h7xx_hal_rcc.c **** 
 767              		.loc 1 494 21 is_stmt 0 view .LVU238
 768 01ae FFF7FEFF 		bl	HAL_GetTick
 769              	.LVL64:
 770 01b2 0546     		mov	r5, r0
 771              	.LVL65:
 497:Drivers/STM32H7xx_HAL_Driver/Src/stm32h7xx_hal_rcc.c ****         {
 772              		.loc 1 497 9 is_stmt 1 view .LVU239
 773              	.L57:
 497:Drivers/STM32H7xx_HAL_Driver/Src/stm32h7xx_hal_rcc.c ****         {
 774              		.loc 1 497 52 view .LVU240
 497:Drivers/STM32H7xx_HAL_Driver/Src/stm32h7xx_hal_rcc.c ****         {
 775              		.loc 1 497 16 is_stmt 0 view .LVU241
 776 01b4 3E4B     		ldr	r3, .L203
 777 01b6 1B68     		ldr	r3, [r3]
ARM GAS  /var/folders/g1/j12m_ky910s3_sv7d4yrsdn00000gn/T//ccmnBD4l.s 			page 25


 497:Drivers/STM32H7xx_HAL_Driver/Src/stm32h7xx_hal_rcc.c ****         {
 778              		.loc 1 497 52 view .LVU242
 779 01b8 13F0040F 		tst	r3, #4
 780 01bc 06D1     		bne	.L174
 499:Drivers/STM32H7xx_HAL_Driver/Src/stm32h7xx_hal_rcc.c ****           {
 781              		.loc 1 499 11 is_stmt 1 view .LVU243
 499:Drivers/STM32H7xx_HAL_Driver/Src/stm32h7xx_hal_rcc.c ****           {
 782              		.loc 1 499 26 is_stmt 0 view .LVU244
 783 01be FFF7FEFF 		bl	HAL_GetTick
 784              	.LVL66:
 499:Drivers/STM32H7xx_HAL_Driver/Src/stm32h7xx_hal_rcc.c ****           {
 785              		.loc 1 499 40 discriminator 1 view .LVU245
 786 01c2 401B     		subs	r0, r0, r5
 499:Drivers/STM32H7xx_HAL_Driver/Src/stm32h7xx_hal_rcc.c ****           {
 787              		.loc 1 499 14 discriminator 1 view .LVU246
 788 01c4 0228     		cmp	r0, #2
 789 01c6 F5D9     		bls	.L57
 501:Drivers/STM32H7xx_HAL_Driver/Src/stm32h7xx_hal_rcc.c ****           }
 790              		.loc 1 501 20 view .LVU247
 791 01c8 0320     		movs	r0, #3
 792              	.LVL67:
 793              	.L36:
 501:Drivers/STM32H7xx_HAL_Driver/Src/stm32h7xx_hal_rcc.c ****           }
 794              		.loc 1 501 20 view .LVU248
 795              	.LBE6:
 526:Drivers/STM32H7xx_HAL_Driver/Src/stm32h7xx_hal_rcc.c ****           }
 527:Drivers/STM32H7xx_HAL_Driver/Src/stm32h7xx_hal_rcc.c ****         }
 528:Drivers/STM32H7xx_HAL_Driver/Src/stm32h7xx_hal_rcc.c **** 
 529:Drivers/STM32H7xx_HAL_Driver/Src/stm32h7xx_hal_rcc.c ****         /* Adjusts the Internal High Speed oscillator (HSI) calibration value.*/
 530:Drivers/STM32H7xx_HAL_Driver/Src/stm32h7xx_hal_rcc.c ****         __HAL_RCC_HSI_CALIBRATIONVALUE_ADJUST(RCC_OscInitStruct->HSICalibrationValue);
 531:Drivers/STM32H7xx_HAL_Driver/Src/stm32h7xx_hal_rcc.c ****       }
 532:Drivers/STM32H7xx_HAL_Driver/Src/stm32h7xx_hal_rcc.c ****       else
 533:Drivers/STM32H7xx_HAL_Driver/Src/stm32h7xx_hal_rcc.c ****       {
 534:Drivers/STM32H7xx_HAL_Driver/Src/stm32h7xx_hal_rcc.c ****         /* Disable the Internal High Speed oscillator (HSI). */
 535:Drivers/STM32H7xx_HAL_Driver/Src/stm32h7xx_hal_rcc.c ****         __HAL_RCC_HSI_DISABLE();
 536:Drivers/STM32H7xx_HAL_Driver/Src/stm32h7xx_hal_rcc.c **** 
 537:Drivers/STM32H7xx_HAL_Driver/Src/stm32h7xx_hal_rcc.c ****         /* Get Start Tick*/
 538:Drivers/STM32H7xx_HAL_Driver/Src/stm32h7xx_hal_rcc.c ****         tickstart = HAL_GetTick();
 539:Drivers/STM32H7xx_HAL_Driver/Src/stm32h7xx_hal_rcc.c **** 
 540:Drivers/STM32H7xx_HAL_Driver/Src/stm32h7xx_hal_rcc.c ****         /* Wait till HSI is disabled */
 541:Drivers/STM32H7xx_HAL_Driver/Src/stm32h7xx_hal_rcc.c ****         while (__HAL_RCC_GET_FLAG(RCC_FLAG_HSIRDY) != 0U)
 542:Drivers/STM32H7xx_HAL_Driver/Src/stm32h7xx_hal_rcc.c ****         {
 543:Drivers/STM32H7xx_HAL_Driver/Src/stm32h7xx_hal_rcc.c ****           if ((HAL_GetTick() - tickstart) > HSI_TIMEOUT_VALUE)
 544:Drivers/STM32H7xx_HAL_Driver/Src/stm32h7xx_hal_rcc.c ****           {
 545:Drivers/STM32H7xx_HAL_Driver/Src/stm32h7xx_hal_rcc.c ****             return HAL_TIMEOUT;
 546:Drivers/STM32H7xx_HAL_Driver/Src/stm32h7xx_hal_rcc.c ****           }
 547:Drivers/STM32H7xx_HAL_Driver/Src/stm32h7xx_hal_rcc.c ****         }
 548:Drivers/STM32H7xx_HAL_Driver/Src/stm32h7xx_hal_rcc.c ****       }
 549:Drivers/STM32H7xx_HAL_Driver/Src/stm32h7xx_hal_rcc.c ****     }
 550:Drivers/STM32H7xx_HAL_Driver/Src/stm32h7xx_hal_rcc.c ****   }
 551:Drivers/STM32H7xx_HAL_Driver/Src/stm32h7xx_hal_rcc.c ****   /*----------------------------- CSI Configuration --------------------------*/
 552:Drivers/STM32H7xx_HAL_Driver/Src/stm32h7xx_hal_rcc.c ****   if (((RCC_OscInitStruct->OscillatorType) & RCC_OSCILLATORTYPE_CSI) == RCC_OSCILLATORTYPE_CSI)
 553:Drivers/STM32H7xx_HAL_Driver/Src/stm32h7xx_hal_rcc.c ****   {
 554:Drivers/STM32H7xx_HAL_Driver/Src/stm32h7xx_hal_rcc.c ****     /* Check the parameters */
 555:Drivers/STM32H7xx_HAL_Driver/Src/stm32h7xx_hal_rcc.c ****     assert_param(IS_RCC_CSI(RCC_OscInitStruct->CSIState));
 556:Drivers/STM32H7xx_HAL_Driver/Src/stm32h7xx_hal_rcc.c ****     assert_param(IS_RCC_CSICALIBRATION_VALUE(RCC_OscInitStruct->CSICalibrationValue));
 557:Drivers/STM32H7xx_HAL_Driver/Src/stm32h7xx_hal_rcc.c **** 
ARM GAS  /var/folders/g1/j12m_ky910s3_sv7d4yrsdn00000gn/T//ccmnBD4l.s 			page 26


 558:Drivers/STM32H7xx_HAL_Driver/Src/stm32h7xx_hal_rcc.c ****     /* When the CSI is used as system clock it will not disabled */
 559:Drivers/STM32H7xx_HAL_Driver/Src/stm32h7xx_hal_rcc.c ****     const uint32_t temp_sysclksrc = __HAL_RCC_GET_SYSCLK_SOURCE();
 560:Drivers/STM32H7xx_HAL_Driver/Src/stm32h7xx_hal_rcc.c ****     const uint32_t temp_pllckselr = RCC->PLLCKSELR;
 561:Drivers/STM32H7xx_HAL_Driver/Src/stm32h7xx_hal_rcc.c ****     if ((temp_sysclksrc == RCC_CFGR_SWS_CSI) || ((temp_sysclksrc == RCC_CFGR_SWS_PLL1) && ((temp_pl
 562:Drivers/STM32H7xx_HAL_Driver/Src/stm32h7xx_hal_rcc.c ****     {
 563:Drivers/STM32H7xx_HAL_Driver/Src/stm32h7xx_hal_rcc.c ****       /* When CSI is used as system clock it will not disabled */
 564:Drivers/STM32H7xx_HAL_Driver/Src/stm32h7xx_hal_rcc.c ****       if ((__HAL_RCC_GET_FLAG(RCC_FLAG_CSIRDY) != 0U) && (RCC_OscInitStruct->CSIState != RCC_CSI_ON
 565:Drivers/STM32H7xx_HAL_Driver/Src/stm32h7xx_hal_rcc.c ****       {
 566:Drivers/STM32H7xx_HAL_Driver/Src/stm32h7xx_hal_rcc.c ****         return HAL_ERROR;
 567:Drivers/STM32H7xx_HAL_Driver/Src/stm32h7xx_hal_rcc.c ****       }
 568:Drivers/STM32H7xx_HAL_Driver/Src/stm32h7xx_hal_rcc.c ****       /* Otherwise, just the calibration is allowed */
 569:Drivers/STM32H7xx_HAL_Driver/Src/stm32h7xx_hal_rcc.c ****       else
 570:Drivers/STM32H7xx_HAL_Driver/Src/stm32h7xx_hal_rcc.c ****       {
 571:Drivers/STM32H7xx_HAL_Driver/Src/stm32h7xx_hal_rcc.c ****         /* Adjusts the Internal High Speed oscillator (CSI) calibration value.*/
 572:Drivers/STM32H7xx_HAL_Driver/Src/stm32h7xx_hal_rcc.c ****         __HAL_RCC_CSI_CALIBRATIONVALUE_ADJUST(RCC_OscInitStruct->CSICalibrationValue);
 573:Drivers/STM32H7xx_HAL_Driver/Src/stm32h7xx_hal_rcc.c ****       }
 574:Drivers/STM32H7xx_HAL_Driver/Src/stm32h7xx_hal_rcc.c ****     }
 575:Drivers/STM32H7xx_HAL_Driver/Src/stm32h7xx_hal_rcc.c ****     else
 576:Drivers/STM32H7xx_HAL_Driver/Src/stm32h7xx_hal_rcc.c ****     {
 577:Drivers/STM32H7xx_HAL_Driver/Src/stm32h7xx_hal_rcc.c ****       /* Check the CSI State */
 578:Drivers/STM32H7xx_HAL_Driver/Src/stm32h7xx_hal_rcc.c ****       if ((RCC_OscInitStruct->CSIState) != RCC_CSI_OFF)
 579:Drivers/STM32H7xx_HAL_Driver/Src/stm32h7xx_hal_rcc.c ****       {
 580:Drivers/STM32H7xx_HAL_Driver/Src/stm32h7xx_hal_rcc.c ****         /* Enable the Internal High Speed oscillator (CSI). */
 581:Drivers/STM32H7xx_HAL_Driver/Src/stm32h7xx_hal_rcc.c ****         __HAL_RCC_CSI_ENABLE();
 582:Drivers/STM32H7xx_HAL_Driver/Src/stm32h7xx_hal_rcc.c **** 
 583:Drivers/STM32H7xx_HAL_Driver/Src/stm32h7xx_hal_rcc.c ****         /* Get Start Tick*/
 584:Drivers/STM32H7xx_HAL_Driver/Src/stm32h7xx_hal_rcc.c ****         tickstart = HAL_GetTick();
 585:Drivers/STM32H7xx_HAL_Driver/Src/stm32h7xx_hal_rcc.c **** 
 586:Drivers/STM32H7xx_HAL_Driver/Src/stm32h7xx_hal_rcc.c ****         /* Wait till CSI is ready */
 587:Drivers/STM32H7xx_HAL_Driver/Src/stm32h7xx_hal_rcc.c ****         while (__HAL_RCC_GET_FLAG(RCC_FLAG_CSIRDY) == 0U)
 588:Drivers/STM32H7xx_HAL_Driver/Src/stm32h7xx_hal_rcc.c ****         {
 589:Drivers/STM32H7xx_HAL_Driver/Src/stm32h7xx_hal_rcc.c ****           if ((HAL_GetTick() - tickstart) > CSI_TIMEOUT_VALUE)
 590:Drivers/STM32H7xx_HAL_Driver/Src/stm32h7xx_hal_rcc.c ****           {
 591:Drivers/STM32H7xx_HAL_Driver/Src/stm32h7xx_hal_rcc.c ****             return HAL_TIMEOUT;
 592:Drivers/STM32H7xx_HAL_Driver/Src/stm32h7xx_hal_rcc.c ****           }
 593:Drivers/STM32H7xx_HAL_Driver/Src/stm32h7xx_hal_rcc.c ****         }
 594:Drivers/STM32H7xx_HAL_Driver/Src/stm32h7xx_hal_rcc.c **** 
 595:Drivers/STM32H7xx_HAL_Driver/Src/stm32h7xx_hal_rcc.c ****         /* Adjusts the Internal High Speed oscillator (CSI) calibration value.*/
 596:Drivers/STM32H7xx_HAL_Driver/Src/stm32h7xx_hal_rcc.c ****         __HAL_RCC_CSI_CALIBRATIONVALUE_ADJUST(RCC_OscInitStruct->CSICalibrationValue);
 597:Drivers/STM32H7xx_HAL_Driver/Src/stm32h7xx_hal_rcc.c ****       }
 598:Drivers/STM32H7xx_HAL_Driver/Src/stm32h7xx_hal_rcc.c ****       else
 599:Drivers/STM32H7xx_HAL_Driver/Src/stm32h7xx_hal_rcc.c ****       {
 600:Drivers/STM32H7xx_HAL_Driver/Src/stm32h7xx_hal_rcc.c ****         /* Disable the Internal High Speed oscillator (CSI). */
 601:Drivers/STM32H7xx_HAL_Driver/Src/stm32h7xx_hal_rcc.c ****         __HAL_RCC_CSI_DISABLE();
 602:Drivers/STM32H7xx_HAL_Driver/Src/stm32h7xx_hal_rcc.c **** 
 603:Drivers/STM32H7xx_HAL_Driver/Src/stm32h7xx_hal_rcc.c ****         /* Get Start Tick*/
 604:Drivers/STM32H7xx_HAL_Driver/Src/stm32h7xx_hal_rcc.c ****         tickstart = HAL_GetTick();
 605:Drivers/STM32H7xx_HAL_Driver/Src/stm32h7xx_hal_rcc.c **** 
 606:Drivers/STM32H7xx_HAL_Driver/Src/stm32h7xx_hal_rcc.c ****         /* Wait till CSI is disabled */
 607:Drivers/STM32H7xx_HAL_Driver/Src/stm32h7xx_hal_rcc.c ****         while (__HAL_RCC_GET_FLAG(RCC_FLAG_CSIRDY) != 0U)
 608:Drivers/STM32H7xx_HAL_Driver/Src/stm32h7xx_hal_rcc.c ****         {
 609:Drivers/STM32H7xx_HAL_Driver/Src/stm32h7xx_hal_rcc.c ****           if ((HAL_GetTick() - tickstart) > CSI_TIMEOUT_VALUE)
 610:Drivers/STM32H7xx_HAL_Driver/Src/stm32h7xx_hal_rcc.c ****           {
 611:Drivers/STM32H7xx_HAL_Driver/Src/stm32h7xx_hal_rcc.c ****             return HAL_TIMEOUT;
 612:Drivers/STM32H7xx_HAL_Driver/Src/stm32h7xx_hal_rcc.c ****           }
 613:Drivers/STM32H7xx_HAL_Driver/Src/stm32h7xx_hal_rcc.c ****         }
 614:Drivers/STM32H7xx_HAL_Driver/Src/stm32h7xx_hal_rcc.c ****       }
ARM GAS  /var/folders/g1/j12m_ky910s3_sv7d4yrsdn00000gn/T//ccmnBD4l.s 			page 27


 615:Drivers/STM32H7xx_HAL_Driver/Src/stm32h7xx_hal_rcc.c ****     }
 616:Drivers/STM32H7xx_HAL_Driver/Src/stm32h7xx_hal_rcc.c ****   }
 617:Drivers/STM32H7xx_HAL_Driver/Src/stm32h7xx_hal_rcc.c ****   /*------------------------------ LSI Configuration -------------------------*/
 618:Drivers/STM32H7xx_HAL_Driver/Src/stm32h7xx_hal_rcc.c ****   if (((RCC_OscInitStruct->OscillatorType) & RCC_OSCILLATORTYPE_LSI) == RCC_OSCILLATORTYPE_LSI)
 619:Drivers/STM32H7xx_HAL_Driver/Src/stm32h7xx_hal_rcc.c ****   {
 620:Drivers/STM32H7xx_HAL_Driver/Src/stm32h7xx_hal_rcc.c ****     /* Check the parameters */
 621:Drivers/STM32H7xx_HAL_Driver/Src/stm32h7xx_hal_rcc.c ****     assert_param(IS_RCC_LSI(RCC_OscInitStruct->LSIState));
 622:Drivers/STM32H7xx_HAL_Driver/Src/stm32h7xx_hal_rcc.c **** 
 623:Drivers/STM32H7xx_HAL_Driver/Src/stm32h7xx_hal_rcc.c ****     /* Check the LSI State */
 624:Drivers/STM32H7xx_HAL_Driver/Src/stm32h7xx_hal_rcc.c ****     if ((RCC_OscInitStruct->LSIState) != RCC_LSI_OFF)
 625:Drivers/STM32H7xx_HAL_Driver/Src/stm32h7xx_hal_rcc.c ****     {
 626:Drivers/STM32H7xx_HAL_Driver/Src/stm32h7xx_hal_rcc.c ****       /* Enable the Internal Low Speed oscillator (LSI). */
 627:Drivers/STM32H7xx_HAL_Driver/Src/stm32h7xx_hal_rcc.c ****       __HAL_RCC_LSI_ENABLE();
 628:Drivers/STM32H7xx_HAL_Driver/Src/stm32h7xx_hal_rcc.c **** 
 629:Drivers/STM32H7xx_HAL_Driver/Src/stm32h7xx_hal_rcc.c ****       /* Get Start Tick*/
 630:Drivers/STM32H7xx_HAL_Driver/Src/stm32h7xx_hal_rcc.c ****       tickstart = HAL_GetTick();
 631:Drivers/STM32H7xx_HAL_Driver/Src/stm32h7xx_hal_rcc.c **** 
 632:Drivers/STM32H7xx_HAL_Driver/Src/stm32h7xx_hal_rcc.c ****       /* Wait till LSI is ready */
 633:Drivers/STM32H7xx_HAL_Driver/Src/stm32h7xx_hal_rcc.c ****       while (__HAL_RCC_GET_FLAG(RCC_FLAG_LSIRDY) == 0U)
 634:Drivers/STM32H7xx_HAL_Driver/Src/stm32h7xx_hal_rcc.c ****       {
 635:Drivers/STM32H7xx_HAL_Driver/Src/stm32h7xx_hal_rcc.c ****         if ((HAL_GetTick() - tickstart) > LSI_TIMEOUT_VALUE)
 636:Drivers/STM32H7xx_HAL_Driver/Src/stm32h7xx_hal_rcc.c ****         {
 637:Drivers/STM32H7xx_HAL_Driver/Src/stm32h7xx_hal_rcc.c ****           return HAL_TIMEOUT;
 638:Drivers/STM32H7xx_HAL_Driver/Src/stm32h7xx_hal_rcc.c ****         }
 639:Drivers/STM32H7xx_HAL_Driver/Src/stm32h7xx_hal_rcc.c ****       }
 640:Drivers/STM32H7xx_HAL_Driver/Src/stm32h7xx_hal_rcc.c ****     }
 641:Drivers/STM32H7xx_HAL_Driver/Src/stm32h7xx_hal_rcc.c ****     else
 642:Drivers/STM32H7xx_HAL_Driver/Src/stm32h7xx_hal_rcc.c ****     {
 643:Drivers/STM32H7xx_HAL_Driver/Src/stm32h7xx_hal_rcc.c ****       /* Disable the Internal Low Speed oscillator (LSI). */
 644:Drivers/STM32H7xx_HAL_Driver/Src/stm32h7xx_hal_rcc.c ****       __HAL_RCC_LSI_DISABLE();
 645:Drivers/STM32H7xx_HAL_Driver/Src/stm32h7xx_hal_rcc.c **** 
 646:Drivers/STM32H7xx_HAL_Driver/Src/stm32h7xx_hal_rcc.c ****       /* Get Start Tick*/
 647:Drivers/STM32H7xx_HAL_Driver/Src/stm32h7xx_hal_rcc.c ****       tickstart = HAL_GetTick();
 648:Drivers/STM32H7xx_HAL_Driver/Src/stm32h7xx_hal_rcc.c **** 
 649:Drivers/STM32H7xx_HAL_Driver/Src/stm32h7xx_hal_rcc.c ****       /* Wait till LSI is ready */
 650:Drivers/STM32H7xx_HAL_Driver/Src/stm32h7xx_hal_rcc.c ****       while (__HAL_RCC_GET_FLAG(RCC_FLAG_LSIRDY) != 0U)
 651:Drivers/STM32H7xx_HAL_Driver/Src/stm32h7xx_hal_rcc.c ****       {
 652:Drivers/STM32H7xx_HAL_Driver/Src/stm32h7xx_hal_rcc.c ****         if ((HAL_GetTick() - tickstart) > LSI_TIMEOUT_VALUE)
 653:Drivers/STM32H7xx_HAL_Driver/Src/stm32h7xx_hal_rcc.c ****         {
 654:Drivers/STM32H7xx_HAL_Driver/Src/stm32h7xx_hal_rcc.c ****           return HAL_TIMEOUT;
 655:Drivers/STM32H7xx_HAL_Driver/Src/stm32h7xx_hal_rcc.c ****         }
 656:Drivers/STM32H7xx_HAL_Driver/Src/stm32h7xx_hal_rcc.c ****       }
 657:Drivers/STM32H7xx_HAL_Driver/Src/stm32h7xx_hal_rcc.c ****     }
 658:Drivers/STM32H7xx_HAL_Driver/Src/stm32h7xx_hal_rcc.c ****   }
 659:Drivers/STM32H7xx_HAL_Driver/Src/stm32h7xx_hal_rcc.c **** 
 660:Drivers/STM32H7xx_HAL_Driver/Src/stm32h7xx_hal_rcc.c ****   /*------------------------------ HSI48 Configuration -------------------------*/
 661:Drivers/STM32H7xx_HAL_Driver/Src/stm32h7xx_hal_rcc.c ****   if (((RCC_OscInitStruct->OscillatorType) & RCC_OSCILLATORTYPE_HSI48) == RCC_OSCILLATORTYPE_HSI48)
 662:Drivers/STM32H7xx_HAL_Driver/Src/stm32h7xx_hal_rcc.c ****   {
 663:Drivers/STM32H7xx_HAL_Driver/Src/stm32h7xx_hal_rcc.c ****     /* Check the parameters */
 664:Drivers/STM32H7xx_HAL_Driver/Src/stm32h7xx_hal_rcc.c ****     assert_param(IS_RCC_HSI48(RCC_OscInitStruct->HSI48State));
 665:Drivers/STM32H7xx_HAL_Driver/Src/stm32h7xx_hal_rcc.c **** 
 666:Drivers/STM32H7xx_HAL_Driver/Src/stm32h7xx_hal_rcc.c ****     /* Check the HSI48 State */
 667:Drivers/STM32H7xx_HAL_Driver/Src/stm32h7xx_hal_rcc.c ****     if ((RCC_OscInitStruct->HSI48State) != RCC_HSI48_OFF)
 668:Drivers/STM32H7xx_HAL_Driver/Src/stm32h7xx_hal_rcc.c ****     {
 669:Drivers/STM32H7xx_HAL_Driver/Src/stm32h7xx_hal_rcc.c ****       /* Enable the Internal Low Speed oscillator (HSI48). */
 670:Drivers/STM32H7xx_HAL_Driver/Src/stm32h7xx_hal_rcc.c ****       __HAL_RCC_HSI48_ENABLE();
 671:Drivers/STM32H7xx_HAL_Driver/Src/stm32h7xx_hal_rcc.c **** 
ARM GAS  /var/folders/g1/j12m_ky910s3_sv7d4yrsdn00000gn/T//ccmnBD4l.s 			page 28


 672:Drivers/STM32H7xx_HAL_Driver/Src/stm32h7xx_hal_rcc.c ****       /* Get time-out */
 673:Drivers/STM32H7xx_HAL_Driver/Src/stm32h7xx_hal_rcc.c ****       tickstart = HAL_GetTick();
 674:Drivers/STM32H7xx_HAL_Driver/Src/stm32h7xx_hal_rcc.c **** 
 675:Drivers/STM32H7xx_HAL_Driver/Src/stm32h7xx_hal_rcc.c ****       /* Wait till HSI48 is ready */
 676:Drivers/STM32H7xx_HAL_Driver/Src/stm32h7xx_hal_rcc.c ****       while (__HAL_RCC_GET_FLAG(RCC_FLAG_HSI48RDY) == 0U)
 677:Drivers/STM32H7xx_HAL_Driver/Src/stm32h7xx_hal_rcc.c ****       {
 678:Drivers/STM32H7xx_HAL_Driver/Src/stm32h7xx_hal_rcc.c ****         if ((HAL_GetTick() - tickstart) > HSI48_TIMEOUT_VALUE)
 679:Drivers/STM32H7xx_HAL_Driver/Src/stm32h7xx_hal_rcc.c ****         {
 680:Drivers/STM32H7xx_HAL_Driver/Src/stm32h7xx_hal_rcc.c ****           return HAL_TIMEOUT;
 681:Drivers/STM32H7xx_HAL_Driver/Src/stm32h7xx_hal_rcc.c ****         }
 682:Drivers/STM32H7xx_HAL_Driver/Src/stm32h7xx_hal_rcc.c ****       }
 683:Drivers/STM32H7xx_HAL_Driver/Src/stm32h7xx_hal_rcc.c ****     }
 684:Drivers/STM32H7xx_HAL_Driver/Src/stm32h7xx_hal_rcc.c ****     else
 685:Drivers/STM32H7xx_HAL_Driver/Src/stm32h7xx_hal_rcc.c ****     {
 686:Drivers/STM32H7xx_HAL_Driver/Src/stm32h7xx_hal_rcc.c ****       /* Disable the Internal Low Speed oscillator (HSI48). */
 687:Drivers/STM32H7xx_HAL_Driver/Src/stm32h7xx_hal_rcc.c ****       __HAL_RCC_HSI48_DISABLE();
 688:Drivers/STM32H7xx_HAL_Driver/Src/stm32h7xx_hal_rcc.c **** 
 689:Drivers/STM32H7xx_HAL_Driver/Src/stm32h7xx_hal_rcc.c ****       /* Get time-out */
 690:Drivers/STM32H7xx_HAL_Driver/Src/stm32h7xx_hal_rcc.c ****       tickstart = HAL_GetTick();
 691:Drivers/STM32H7xx_HAL_Driver/Src/stm32h7xx_hal_rcc.c **** 
 692:Drivers/STM32H7xx_HAL_Driver/Src/stm32h7xx_hal_rcc.c ****       /* Wait till HSI48 is ready */
 693:Drivers/STM32H7xx_HAL_Driver/Src/stm32h7xx_hal_rcc.c ****       while (__HAL_RCC_GET_FLAG(RCC_FLAG_HSI48RDY) != 0U)
 694:Drivers/STM32H7xx_HAL_Driver/Src/stm32h7xx_hal_rcc.c ****       {
 695:Drivers/STM32H7xx_HAL_Driver/Src/stm32h7xx_hal_rcc.c ****         if ((HAL_GetTick() - tickstart) > HSI48_TIMEOUT_VALUE)
 696:Drivers/STM32H7xx_HAL_Driver/Src/stm32h7xx_hal_rcc.c ****         {
 697:Drivers/STM32H7xx_HAL_Driver/Src/stm32h7xx_hal_rcc.c ****           return HAL_TIMEOUT;
 698:Drivers/STM32H7xx_HAL_Driver/Src/stm32h7xx_hal_rcc.c ****         }
 699:Drivers/STM32H7xx_HAL_Driver/Src/stm32h7xx_hal_rcc.c ****       }
 700:Drivers/STM32H7xx_HAL_Driver/Src/stm32h7xx_hal_rcc.c ****     }
 701:Drivers/STM32H7xx_HAL_Driver/Src/stm32h7xx_hal_rcc.c ****   }
 702:Drivers/STM32H7xx_HAL_Driver/Src/stm32h7xx_hal_rcc.c ****   /*------------------------------ LSE Configuration -------------------------*/
 703:Drivers/STM32H7xx_HAL_Driver/Src/stm32h7xx_hal_rcc.c ****   if (((RCC_OscInitStruct->OscillatorType) & RCC_OSCILLATORTYPE_LSE) == RCC_OSCILLATORTYPE_LSE)
 704:Drivers/STM32H7xx_HAL_Driver/Src/stm32h7xx_hal_rcc.c ****   {
 705:Drivers/STM32H7xx_HAL_Driver/Src/stm32h7xx_hal_rcc.c ****     /* Check the parameters */
 706:Drivers/STM32H7xx_HAL_Driver/Src/stm32h7xx_hal_rcc.c ****     assert_param(IS_RCC_LSE(RCC_OscInitStruct->LSEState));
 707:Drivers/STM32H7xx_HAL_Driver/Src/stm32h7xx_hal_rcc.c **** 
 708:Drivers/STM32H7xx_HAL_Driver/Src/stm32h7xx_hal_rcc.c ****     /* Enable write access to Backup domain */
 709:Drivers/STM32H7xx_HAL_Driver/Src/stm32h7xx_hal_rcc.c ****     PWR->CR1 |= PWR_CR1_DBP;
 710:Drivers/STM32H7xx_HAL_Driver/Src/stm32h7xx_hal_rcc.c **** 
 711:Drivers/STM32H7xx_HAL_Driver/Src/stm32h7xx_hal_rcc.c ****     /* Wait for Backup domain Write protection disable */
 712:Drivers/STM32H7xx_HAL_Driver/Src/stm32h7xx_hal_rcc.c ****     tickstart = HAL_GetTick();
 713:Drivers/STM32H7xx_HAL_Driver/Src/stm32h7xx_hal_rcc.c **** 
 714:Drivers/STM32H7xx_HAL_Driver/Src/stm32h7xx_hal_rcc.c ****     while ((PWR->CR1 & PWR_CR1_DBP) == 0U)
 715:Drivers/STM32H7xx_HAL_Driver/Src/stm32h7xx_hal_rcc.c ****     {
 716:Drivers/STM32H7xx_HAL_Driver/Src/stm32h7xx_hal_rcc.c ****       if ((HAL_GetTick() - tickstart) > RCC_DBP_TIMEOUT_VALUE)
 717:Drivers/STM32H7xx_HAL_Driver/Src/stm32h7xx_hal_rcc.c ****       {
 718:Drivers/STM32H7xx_HAL_Driver/Src/stm32h7xx_hal_rcc.c ****         return HAL_TIMEOUT;
 719:Drivers/STM32H7xx_HAL_Driver/Src/stm32h7xx_hal_rcc.c ****       }
 720:Drivers/STM32H7xx_HAL_Driver/Src/stm32h7xx_hal_rcc.c ****     }
 721:Drivers/STM32H7xx_HAL_Driver/Src/stm32h7xx_hal_rcc.c **** 
 722:Drivers/STM32H7xx_HAL_Driver/Src/stm32h7xx_hal_rcc.c ****     /* Set the new LSE configuration -----------------------------------------*/
 723:Drivers/STM32H7xx_HAL_Driver/Src/stm32h7xx_hal_rcc.c ****     __HAL_RCC_LSE_CONFIG(RCC_OscInitStruct->LSEState);
 724:Drivers/STM32H7xx_HAL_Driver/Src/stm32h7xx_hal_rcc.c ****     /* Check the LSE State */
 725:Drivers/STM32H7xx_HAL_Driver/Src/stm32h7xx_hal_rcc.c ****     if ((RCC_OscInitStruct->LSEState) != RCC_LSE_OFF)
 726:Drivers/STM32H7xx_HAL_Driver/Src/stm32h7xx_hal_rcc.c ****     {
 727:Drivers/STM32H7xx_HAL_Driver/Src/stm32h7xx_hal_rcc.c ****       /* Get Start Tick*/
 728:Drivers/STM32H7xx_HAL_Driver/Src/stm32h7xx_hal_rcc.c ****       tickstart = HAL_GetTick();
ARM GAS  /var/folders/g1/j12m_ky910s3_sv7d4yrsdn00000gn/T//ccmnBD4l.s 			page 29


 729:Drivers/STM32H7xx_HAL_Driver/Src/stm32h7xx_hal_rcc.c **** 
 730:Drivers/STM32H7xx_HAL_Driver/Src/stm32h7xx_hal_rcc.c ****       /* Wait till LSE is ready */
 731:Drivers/STM32H7xx_HAL_Driver/Src/stm32h7xx_hal_rcc.c ****       while (__HAL_RCC_GET_FLAG(RCC_FLAG_LSERDY) == 0U)
 732:Drivers/STM32H7xx_HAL_Driver/Src/stm32h7xx_hal_rcc.c ****       {
 733:Drivers/STM32H7xx_HAL_Driver/Src/stm32h7xx_hal_rcc.c ****         if ((HAL_GetTick() - tickstart) > RCC_LSE_TIMEOUT_VALUE)
 734:Drivers/STM32H7xx_HAL_Driver/Src/stm32h7xx_hal_rcc.c ****         {
 735:Drivers/STM32H7xx_HAL_Driver/Src/stm32h7xx_hal_rcc.c ****           return HAL_TIMEOUT;
 736:Drivers/STM32H7xx_HAL_Driver/Src/stm32h7xx_hal_rcc.c ****         }
 737:Drivers/STM32H7xx_HAL_Driver/Src/stm32h7xx_hal_rcc.c ****       }
 738:Drivers/STM32H7xx_HAL_Driver/Src/stm32h7xx_hal_rcc.c ****     }
 739:Drivers/STM32H7xx_HAL_Driver/Src/stm32h7xx_hal_rcc.c ****     else
 740:Drivers/STM32H7xx_HAL_Driver/Src/stm32h7xx_hal_rcc.c ****     {
 741:Drivers/STM32H7xx_HAL_Driver/Src/stm32h7xx_hal_rcc.c ****       /* Get Start Tick*/
 742:Drivers/STM32H7xx_HAL_Driver/Src/stm32h7xx_hal_rcc.c ****       tickstart = HAL_GetTick();
 743:Drivers/STM32H7xx_HAL_Driver/Src/stm32h7xx_hal_rcc.c **** 
 744:Drivers/STM32H7xx_HAL_Driver/Src/stm32h7xx_hal_rcc.c ****       /* Wait till LSE is disabled */
 745:Drivers/STM32H7xx_HAL_Driver/Src/stm32h7xx_hal_rcc.c ****       while (__HAL_RCC_GET_FLAG(RCC_FLAG_LSERDY) != 0U)
 746:Drivers/STM32H7xx_HAL_Driver/Src/stm32h7xx_hal_rcc.c ****       {
 747:Drivers/STM32H7xx_HAL_Driver/Src/stm32h7xx_hal_rcc.c ****         if ((HAL_GetTick() - tickstart) > RCC_LSE_TIMEOUT_VALUE)
 748:Drivers/STM32H7xx_HAL_Driver/Src/stm32h7xx_hal_rcc.c ****         {
 749:Drivers/STM32H7xx_HAL_Driver/Src/stm32h7xx_hal_rcc.c ****           return HAL_TIMEOUT;
 750:Drivers/STM32H7xx_HAL_Driver/Src/stm32h7xx_hal_rcc.c ****         }
 751:Drivers/STM32H7xx_HAL_Driver/Src/stm32h7xx_hal_rcc.c ****       }
 752:Drivers/STM32H7xx_HAL_Driver/Src/stm32h7xx_hal_rcc.c ****     }
 753:Drivers/STM32H7xx_HAL_Driver/Src/stm32h7xx_hal_rcc.c ****   }
 754:Drivers/STM32H7xx_HAL_Driver/Src/stm32h7xx_hal_rcc.c ****   /*-------------------------------- PLL Configuration -----------------------*/
 755:Drivers/STM32H7xx_HAL_Driver/Src/stm32h7xx_hal_rcc.c ****   /* Check the parameters */
 756:Drivers/STM32H7xx_HAL_Driver/Src/stm32h7xx_hal_rcc.c ****   assert_param(IS_RCC_PLL(RCC_OscInitStruct->PLL.PLLState));
 757:Drivers/STM32H7xx_HAL_Driver/Src/stm32h7xx_hal_rcc.c ****   if ((RCC_OscInitStruct->PLL.PLLState) != RCC_PLL_NONE)
 758:Drivers/STM32H7xx_HAL_Driver/Src/stm32h7xx_hal_rcc.c ****   {
 759:Drivers/STM32H7xx_HAL_Driver/Src/stm32h7xx_hal_rcc.c ****     /* Check if the PLL is used as system clock or not */
 760:Drivers/STM32H7xx_HAL_Driver/Src/stm32h7xx_hal_rcc.c ****     if (__HAL_RCC_GET_SYSCLK_SOURCE() != RCC_CFGR_SWS_PLL1)
 761:Drivers/STM32H7xx_HAL_Driver/Src/stm32h7xx_hal_rcc.c ****     {
 762:Drivers/STM32H7xx_HAL_Driver/Src/stm32h7xx_hal_rcc.c ****       if ((RCC_OscInitStruct->PLL.PLLState) == RCC_PLL_ON)
 763:Drivers/STM32H7xx_HAL_Driver/Src/stm32h7xx_hal_rcc.c ****       {
 764:Drivers/STM32H7xx_HAL_Driver/Src/stm32h7xx_hal_rcc.c ****         /* Check the parameters */
 765:Drivers/STM32H7xx_HAL_Driver/Src/stm32h7xx_hal_rcc.c ****         assert_param(IS_RCC_PLLSOURCE(RCC_OscInitStruct->PLL.PLLSource));
 766:Drivers/STM32H7xx_HAL_Driver/Src/stm32h7xx_hal_rcc.c ****         assert_param(IS_RCC_PLLRGE_VALUE(RCC_OscInitStruct->PLL.PLLRGE));
 767:Drivers/STM32H7xx_HAL_Driver/Src/stm32h7xx_hal_rcc.c ****         assert_param(IS_RCC_PLLVCO_VALUE(RCC_OscInitStruct->PLL.PLLVCOSEL));
 768:Drivers/STM32H7xx_HAL_Driver/Src/stm32h7xx_hal_rcc.c ****         assert_param(IS_RCC_PLLM_VALUE(RCC_OscInitStruct->PLL.PLLM));
 769:Drivers/STM32H7xx_HAL_Driver/Src/stm32h7xx_hal_rcc.c ****         assert_param(IS_RCC_PLLN_VALUE(RCC_OscInitStruct->PLL.PLLN));
 770:Drivers/STM32H7xx_HAL_Driver/Src/stm32h7xx_hal_rcc.c ****         assert_param(IS_RCC_PLLP_VALUE(RCC_OscInitStruct->PLL.PLLP));
 771:Drivers/STM32H7xx_HAL_Driver/Src/stm32h7xx_hal_rcc.c ****         assert_param(IS_RCC_PLLQ_VALUE(RCC_OscInitStruct->PLL.PLLQ));
 772:Drivers/STM32H7xx_HAL_Driver/Src/stm32h7xx_hal_rcc.c ****         assert_param(IS_RCC_PLLR_VALUE(RCC_OscInitStruct->PLL.PLLR));
 773:Drivers/STM32H7xx_HAL_Driver/Src/stm32h7xx_hal_rcc.c ****         assert_param(IS_RCC_PLLFRACN_VALUE(RCC_OscInitStruct->PLL.PLLFRACN));
 774:Drivers/STM32H7xx_HAL_Driver/Src/stm32h7xx_hal_rcc.c **** 
 775:Drivers/STM32H7xx_HAL_Driver/Src/stm32h7xx_hal_rcc.c ****         /* Disable the main PLL. */
 776:Drivers/STM32H7xx_HAL_Driver/Src/stm32h7xx_hal_rcc.c ****         __HAL_RCC_PLL_DISABLE();
 777:Drivers/STM32H7xx_HAL_Driver/Src/stm32h7xx_hal_rcc.c **** 
 778:Drivers/STM32H7xx_HAL_Driver/Src/stm32h7xx_hal_rcc.c ****         /* Get Start Tick*/
 779:Drivers/STM32H7xx_HAL_Driver/Src/stm32h7xx_hal_rcc.c ****         tickstart = HAL_GetTick();
 780:Drivers/STM32H7xx_HAL_Driver/Src/stm32h7xx_hal_rcc.c **** 
 781:Drivers/STM32H7xx_HAL_Driver/Src/stm32h7xx_hal_rcc.c ****         /* Wait till PLL is disabled */
 782:Drivers/STM32H7xx_HAL_Driver/Src/stm32h7xx_hal_rcc.c ****         while (__HAL_RCC_GET_FLAG(RCC_FLAG_PLLRDY) != 0U)
 783:Drivers/STM32H7xx_HAL_Driver/Src/stm32h7xx_hal_rcc.c ****         {
 784:Drivers/STM32H7xx_HAL_Driver/Src/stm32h7xx_hal_rcc.c ****           if ((HAL_GetTick() - tickstart) > PLL_TIMEOUT_VALUE)
 785:Drivers/STM32H7xx_HAL_Driver/Src/stm32h7xx_hal_rcc.c ****           {
ARM GAS  /var/folders/g1/j12m_ky910s3_sv7d4yrsdn00000gn/T//ccmnBD4l.s 			page 30


 786:Drivers/STM32H7xx_HAL_Driver/Src/stm32h7xx_hal_rcc.c ****             return HAL_TIMEOUT;
 787:Drivers/STM32H7xx_HAL_Driver/Src/stm32h7xx_hal_rcc.c ****           }
 788:Drivers/STM32H7xx_HAL_Driver/Src/stm32h7xx_hal_rcc.c ****         }
 789:Drivers/STM32H7xx_HAL_Driver/Src/stm32h7xx_hal_rcc.c **** 
 790:Drivers/STM32H7xx_HAL_Driver/Src/stm32h7xx_hal_rcc.c ****         /* Configure the main PLL clock source, multiplication and division factors. */
 791:Drivers/STM32H7xx_HAL_Driver/Src/stm32h7xx_hal_rcc.c ****         __HAL_RCC_PLL_CONFIG(RCC_OscInitStruct->PLL.PLLSource,
 792:Drivers/STM32H7xx_HAL_Driver/Src/stm32h7xx_hal_rcc.c ****                              RCC_OscInitStruct->PLL.PLLM,
 793:Drivers/STM32H7xx_HAL_Driver/Src/stm32h7xx_hal_rcc.c ****                              RCC_OscInitStruct->PLL.PLLN,
 794:Drivers/STM32H7xx_HAL_Driver/Src/stm32h7xx_hal_rcc.c ****                              RCC_OscInitStruct->PLL.PLLP,
 795:Drivers/STM32H7xx_HAL_Driver/Src/stm32h7xx_hal_rcc.c ****                              RCC_OscInitStruct->PLL.PLLQ,
 796:Drivers/STM32H7xx_HAL_Driver/Src/stm32h7xx_hal_rcc.c ****                              RCC_OscInitStruct->PLL.PLLR);
 797:Drivers/STM32H7xx_HAL_Driver/Src/stm32h7xx_hal_rcc.c **** 
 798:Drivers/STM32H7xx_HAL_Driver/Src/stm32h7xx_hal_rcc.c ****         /* Disable PLLFRACN . */
 799:Drivers/STM32H7xx_HAL_Driver/Src/stm32h7xx_hal_rcc.c ****         __HAL_RCC_PLLFRACN_DISABLE();
 800:Drivers/STM32H7xx_HAL_Driver/Src/stm32h7xx_hal_rcc.c **** 
 801:Drivers/STM32H7xx_HAL_Driver/Src/stm32h7xx_hal_rcc.c ****         /* Configure PLL PLL1FRACN */
 802:Drivers/STM32H7xx_HAL_Driver/Src/stm32h7xx_hal_rcc.c ****         __HAL_RCC_PLLFRACN_CONFIG(RCC_OscInitStruct->PLL.PLLFRACN);
 803:Drivers/STM32H7xx_HAL_Driver/Src/stm32h7xx_hal_rcc.c **** 
 804:Drivers/STM32H7xx_HAL_Driver/Src/stm32h7xx_hal_rcc.c ****         /* Select PLL1 input reference frequency range: VCI */
 805:Drivers/STM32H7xx_HAL_Driver/Src/stm32h7xx_hal_rcc.c ****         __HAL_RCC_PLL_VCIRANGE(RCC_OscInitStruct->PLL.PLLRGE) ;
 806:Drivers/STM32H7xx_HAL_Driver/Src/stm32h7xx_hal_rcc.c **** 
 807:Drivers/STM32H7xx_HAL_Driver/Src/stm32h7xx_hal_rcc.c ****         /* Select PLL1 output frequency range : VCO */
 808:Drivers/STM32H7xx_HAL_Driver/Src/stm32h7xx_hal_rcc.c ****         __HAL_RCC_PLL_VCORANGE(RCC_OscInitStruct->PLL.PLLVCOSEL) ;
 809:Drivers/STM32H7xx_HAL_Driver/Src/stm32h7xx_hal_rcc.c **** 
 810:Drivers/STM32H7xx_HAL_Driver/Src/stm32h7xx_hal_rcc.c ****         /* Enable PLL System Clock output. */
 811:Drivers/STM32H7xx_HAL_Driver/Src/stm32h7xx_hal_rcc.c ****         __HAL_RCC_PLLCLKOUT_ENABLE(RCC_PLL1_DIVP);
 812:Drivers/STM32H7xx_HAL_Driver/Src/stm32h7xx_hal_rcc.c **** 
 813:Drivers/STM32H7xx_HAL_Driver/Src/stm32h7xx_hal_rcc.c ****         /* Enable PLL1Q Clock output. */
 814:Drivers/STM32H7xx_HAL_Driver/Src/stm32h7xx_hal_rcc.c ****         __HAL_RCC_PLLCLKOUT_ENABLE(RCC_PLL1_DIVQ);
 815:Drivers/STM32H7xx_HAL_Driver/Src/stm32h7xx_hal_rcc.c **** 
 816:Drivers/STM32H7xx_HAL_Driver/Src/stm32h7xx_hal_rcc.c ****         /* Enable PLL1R  Clock output. */
 817:Drivers/STM32H7xx_HAL_Driver/Src/stm32h7xx_hal_rcc.c ****         __HAL_RCC_PLLCLKOUT_ENABLE(RCC_PLL1_DIVR);
 818:Drivers/STM32H7xx_HAL_Driver/Src/stm32h7xx_hal_rcc.c **** 
 819:Drivers/STM32H7xx_HAL_Driver/Src/stm32h7xx_hal_rcc.c ****         /* Enable PLL1FRACN . */
 820:Drivers/STM32H7xx_HAL_Driver/Src/stm32h7xx_hal_rcc.c ****         __HAL_RCC_PLLFRACN_ENABLE();
 821:Drivers/STM32H7xx_HAL_Driver/Src/stm32h7xx_hal_rcc.c **** 
 822:Drivers/STM32H7xx_HAL_Driver/Src/stm32h7xx_hal_rcc.c ****         /* Enable the main PLL. */
 823:Drivers/STM32H7xx_HAL_Driver/Src/stm32h7xx_hal_rcc.c ****         __HAL_RCC_PLL_ENABLE();
 824:Drivers/STM32H7xx_HAL_Driver/Src/stm32h7xx_hal_rcc.c **** 
 825:Drivers/STM32H7xx_HAL_Driver/Src/stm32h7xx_hal_rcc.c ****         /* Get Start Tick*/
 826:Drivers/STM32H7xx_HAL_Driver/Src/stm32h7xx_hal_rcc.c ****         tickstart = HAL_GetTick();
 827:Drivers/STM32H7xx_HAL_Driver/Src/stm32h7xx_hal_rcc.c **** 
 828:Drivers/STM32H7xx_HAL_Driver/Src/stm32h7xx_hal_rcc.c ****         /* Wait till PLL is ready */
 829:Drivers/STM32H7xx_HAL_Driver/Src/stm32h7xx_hal_rcc.c ****         while (__HAL_RCC_GET_FLAG(RCC_FLAG_PLLRDY) == 0U)
 830:Drivers/STM32H7xx_HAL_Driver/Src/stm32h7xx_hal_rcc.c ****         {
 831:Drivers/STM32H7xx_HAL_Driver/Src/stm32h7xx_hal_rcc.c ****           if ((HAL_GetTick() - tickstart) > PLL_TIMEOUT_VALUE)
 832:Drivers/STM32H7xx_HAL_Driver/Src/stm32h7xx_hal_rcc.c ****           {
 833:Drivers/STM32H7xx_HAL_Driver/Src/stm32h7xx_hal_rcc.c ****             return HAL_TIMEOUT;
 834:Drivers/STM32H7xx_HAL_Driver/Src/stm32h7xx_hal_rcc.c ****           }
 835:Drivers/STM32H7xx_HAL_Driver/Src/stm32h7xx_hal_rcc.c ****         }
 836:Drivers/STM32H7xx_HAL_Driver/Src/stm32h7xx_hal_rcc.c ****       }
 837:Drivers/STM32H7xx_HAL_Driver/Src/stm32h7xx_hal_rcc.c ****       else
 838:Drivers/STM32H7xx_HAL_Driver/Src/stm32h7xx_hal_rcc.c ****       {
 839:Drivers/STM32H7xx_HAL_Driver/Src/stm32h7xx_hal_rcc.c ****         /* Disable the main PLL. */
 840:Drivers/STM32H7xx_HAL_Driver/Src/stm32h7xx_hal_rcc.c ****         __HAL_RCC_PLL_DISABLE();
 841:Drivers/STM32H7xx_HAL_Driver/Src/stm32h7xx_hal_rcc.c **** 
 842:Drivers/STM32H7xx_HAL_Driver/Src/stm32h7xx_hal_rcc.c ****         /* Get Start Tick*/
ARM GAS  /var/folders/g1/j12m_ky910s3_sv7d4yrsdn00000gn/T//ccmnBD4l.s 			page 31


 843:Drivers/STM32H7xx_HAL_Driver/Src/stm32h7xx_hal_rcc.c ****         tickstart = HAL_GetTick();
 844:Drivers/STM32H7xx_HAL_Driver/Src/stm32h7xx_hal_rcc.c **** 
 845:Drivers/STM32H7xx_HAL_Driver/Src/stm32h7xx_hal_rcc.c ****         /* Wait till PLL is disabled */
 846:Drivers/STM32H7xx_HAL_Driver/Src/stm32h7xx_hal_rcc.c ****         while (__HAL_RCC_GET_FLAG(RCC_FLAG_PLLRDY) != 0U)
 847:Drivers/STM32H7xx_HAL_Driver/Src/stm32h7xx_hal_rcc.c ****         {
 848:Drivers/STM32H7xx_HAL_Driver/Src/stm32h7xx_hal_rcc.c ****           if ((HAL_GetTick() - tickstart) > PLL_TIMEOUT_VALUE)
 849:Drivers/STM32H7xx_HAL_Driver/Src/stm32h7xx_hal_rcc.c ****           {
 850:Drivers/STM32H7xx_HAL_Driver/Src/stm32h7xx_hal_rcc.c ****             return HAL_TIMEOUT;
 851:Drivers/STM32H7xx_HAL_Driver/Src/stm32h7xx_hal_rcc.c ****           }
 852:Drivers/STM32H7xx_HAL_Driver/Src/stm32h7xx_hal_rcc.c ****         }
 853:Drivers/STM32H7xx_HAL_Driver/Src/stm32h7xx_hal_rcc.c ****       }
 854:Drivers/STM32H7xx_HAL_Driver/Src/stm32h7xx_hal_rcc.c ****     }
 855:Drivers/STM32H7xx_HAL_Driver/Src/stm32h7xx_hal_rcc.c ****     else
 856:Drivers/STM32H7xx_HAL_Driver/Src/stm32h7xx_hal_rcc.c ****     {
 857:Drivers/STM32H7xx_HAL_Driver/Src/stm32h7xx_hal_rcc.c ****       /* Do not return HAL_ERROR if request repeats the current configuration */
 858:Drivers/STM32H7xx_HAL_Driver/Src/stm32h7xx_hal_rcc.c ****       temp1_pllckcfg = RCC->PLLCKSELR;
 859:Drivers/STM32H7xx_HAL_Driver/Src/stm32h7xx_hal_rcc.c ****       temp2_pllckcfg = RCC->PLL1DIVR;
 860:Drivers/STM32H7xx_HAL_Driver/Src/stm32h7xx_hal_rcc.c ****       if (((RCC_OscInitStruct->PLL.PLLState) == RCC_PLL_OFF) ||
 861:Drivers/STM32H7xx_HAL_Driver/Src/stm32h7xx_hal_rcc.c ****           (READ_BIT(temp1_pllckcfg, RCC_PLLCKSELR_PLLSRC) != RCC_OscInitStruct->PLL.PLLSource) ||
 862:Drivers/STM32H7xx_HAL_Driver/Src/stm32h7xx_hal_rcc.c ****           ((READ_BIT(temp1_pllckcfg, RCC_PLLCKSELR_DIVM1) >> RCC_PLLCKSELR_DIVM1_Pos) != RCC_OscIni
 863:Drivers/STM32H7xx_HAL_Driver/Src/stm32h7xx_hal_rcc.c ****           (READ_BIT(temp2_pllckcfg, RCC_PLL1DIVR_N1) != (RCC_OscInitStruct->PLL.PLLN - 1U)) ||
 864:Drivers/STM32H7xx_HAL_Driver/Src/stm32h7xx_hal_rcc.c ****           ((READ_BIT(temp2_pllckcfg, RCC_PLL1DIVR_P1) >> RCC_PLL1DIVR_P1_Pos) != (RCC_OscInitStruct
 865:Drivers/STM32H7xx_HAL_Driver/Src/stm32h7xx_hal_rcc.c ****           ((READ_BIT(temp2_pllckcfg, RCC_PLL1DIVR_Q1) >> RCC_PLL1DIVR_Q1_Pos) != (RCC_OscInitStruct
 866:Drivers/STM32H7xx_HAL_Driver/Src/stm32h7xx_hal_rcc.c ****           ((READ_BIT(temp2_pllckcfg, RCC_PLL1DIVR_R1) >> RCC_PLL1DIVR_R1_Pos) != (RCC_OscInitStruct
 867:Drivers/STM32H7xx_HAL_Driver/Src/stm32h7xx_hal_rcc.c ****       {
 868:Drivers/STM32H7xx_HAL_Driver/Src/stm32h7xx_hal_rcc.c ****         return HAL_ERROR;
 869:Drivers/STM32H7xx_HAL_Driver/Src/stm32h7xx_hal_rcc.c ****       }
 870:Drivers/STM32H7xx_HAL_Driver/Src/stm32h7xx_hal_rcc.c ****       else
 871:Drivers/STM32H7xx_HAL_Driver/Src/stm32h7xx_hal_rcc.c ****       {
 872:Drivers/STM32H7xx_HAL_Driver/Src/stm32h7xx_hal_rcc.c ****         /* Check if only fractional part needs to be updated  */
 873:Drivers/STM32H7xx_HAL_Driver/Src/stm32h7xx_hal_rcc.c ****         temp1_pllckcfg = ((RCC->PLL1FRACR & RCC_PLL1FRACR_FRACN1) >> RCC_PLL1FRACR_FRACN1_Pos);
 874:Drivers/STM32H7xx_HAL_Driver/Src/stm32h7xx_hal_rcc.c ****         if (RCC_OscInitStruct->PLL.PLLFRACN != temp1_pllckcfg)
 875:Drivers/STM32H7xx_HAL_Driver/Src/stm32h7xx_hal_rcc.c ****         {
 876:Drivers/STM32H7xx_HAL_Driver/Src/stm32h7xx_hal_rcc.c ****           assert_param(IS_RCC_PLLFRACN_VALUE(RCC_OscInitStruct->PLL.PLLFRACN));
 877:Drivers/STM32H7xx_HAL_Driver/Src/stm32h7xx_hal_rcc.c ****           /* Disable PLL1FRACEN */
 878:Drivers/STM32H7xx_HAL_Driver/Src/stm32h7xx_hal_rcc.c ****           __HAL_RCC_PLLFRACN_DISABLE();
 879:Drivers/STM32H7xx_HAL_Driver/Src/stm32h7xx_hal_rcc.c ****           /* Get Start Tick*/
 880:Drivers/STM32H7xx_HAL_Driver/Src/stm32h7xx_hal_rcc.c ****           tickstart = HAL_GetTick();
 881:Drivers/STM32H7xx_HAL_Driver/Src/stm32h7xx_hal_rcc.c ****           /* Wait at least 2 CK_REF (PLL input source divided by M) period to make sure next latche
 882:Drivers/STM32H7xx_HAL_Driver/Src/stm32h7xx_hal_rcc.c ****           while ((HAL_GetTick() - tickstart) < PLL_FRAC_TIMEOUT_VALUE)
 883:Drivers/STM32H7xx_HAL_Driver/Src/stm32h7xx_hal_rcc.c ****           {
 884:Drivers/STM32H7xx_HAL_Driver/Src/stm32h7xx_hal_rcc.c ****           }
 885:Drivers/STM32H7xx_HAL_Driver/Src/stm32h7xx_hal_rcc.c ****           /* Configure PLL1 PLL1FRACN */
 886:Drivers/STM32H7xx_HAL_Driver/Src/stm32h7xx_hal_rcc.c ****           __HAL_RCC_PLLFRACN_CONFIG(RCC_OscInitStruct->PLL.PLLFRACN);
 887:Drivers/STM32H7xx_HAL_Driver/Src/stm32h7xx_hal_rcc.c ****           /* Enable PLL1FRACEN to latch new value. */
 888:Drivers/STM32H7xx_HAL_Driver/Src/stm32h7xx_hal_rcc.c ****           __HAL_RCC_PLLFRACN_ENABLE();
 889:Drivers/STM32H7xx_HAL_Driver/Src/stm32h7xx_hal_rcc.c ****         }
 890:Drivers/STM32H7xx_HAL_Driver/Src/stm32h7xx_hal_rcc.c ****       }
 891:Drivers/STM32H7xx_HAL_Driver/Src/stm32h7xx_hal_rcc.c ****     }
 892:Drivers/STM32H7xx_HAL_Driver/Src/stm32h7xx_hal_rcc.c ****   }
 893:Drivers/STM32H7xx_HAL_Driver/Src/stm32h7xx_hal_rcc.c ****   return HAL_OK;
 894:Drivers/STM32H7xx_HAL_Driver/Src/stm32h7xx_hal_rcc.c **** }
 796              		.loc 1 894 1 view .LVU249
 797 01ca 38BD     		pop	{r3, r4, r5, pc}
 798              	.LVL68:
 799              	.L174:
 800              	.LBB7:
ARM GAS  /var/folders/g1/j12m_ky910s3_sv7d4yrsdn00000gn/T//ccmnBD4l.s 			page 32


 505:Drivers/STM32H7xx_HAL_Driver/Src/stm32h7xx_hal_rcc.c ****       }
 801              		.loc 1 505 9 is_stmt 1 view .LVU250
 505:Drivers/STM32H7xx_HAL_Driver/Src/stm32h7xx_hal_rcc.c ****       }
 802              		.loc 1 505 9 view .LVU251
 803 01cc FFF7FEFF 		bl	HAL_GetREVID
 804              	.LVL69:
 505:Drivers/STM32H7xx_HAL_Driver/Src/stm32h7xx_hal_rcc.c ****       }
 805              		.loc 1 505 9 is_stmt 0 discriminator 1 view .LVU252
 806 01d0 41F20303 		movw	r3, #4099
 807 01d4 9842     		cmp	r0, r3
 808 01d6 12D8     		bhi	.L59
 505:Drivers/STM32H7xx_HAL_Driver/Src/stm32h7xx_hal_rcc.c ****       }
 809              		.loc 1 505 9 is_stmt 1 discriminator 1 view .LVU253
 810 01d8 2269     		ldr	r2, [r4, #16]
 811 01da 402A     		cmp	r2, #64
 812 01dc 07D0     		beq	.L175
 505:Drivers/STM32H7xx_HAL_Driver/Src/stm32h7xx_hal_rcc.c ****       }
 813              		.loc 1 505 9 discriminator 4 view .LVU254
 814 01de 3449     		ldr	r1, .L203
 815 01e0 4B68     		ldr	r3, [r1, #4]
 816 01e2 23F47C33 		bic	r3, r3, #258048
 817 01e6 43EA0233 		orr	r3, r3, r2, lsl #12
 818 01ea 4B60     		str	r3, [r1, #4]
 819 01ec 0FE0     		b	.L51
 820              	.L175:
 505:Drivers/STM32H7xx_HAL_Driver/Src/stm32h7xx_hal_rcc.c ****       }
 821              		.loc 1 505 9 discriminator 3 view .LVU255
 822 01ee 304A     		ldr	r2, .L203
 823 01f0 5368     		ldr	r3, [r2, #4]
 824 01f2 23F47C33 		bic	r3, r3, #258048
 825 01f6 43F40033 		orr	r3, r3, #131072
 826 01fa 5360     		str	r3, [r2, #4]
 827 01fc 07E0     		b	.L51
 828              	.L59:
 505:Drivers/STM32H7xx_HAL_Driver/Src/stm32h7xx_hal_rcc.c ****       }
 829              		.loc 1 505 9 discriminator 2 view .LVU256
 830 01fe 2C4A     		ldr	r2, .L203
 831 0200 5368     		ldr	r3, [r2, #4]
 832 0202 23F0FE43 		bic	r3, r3, #2130706432
 833 0206 2169     		ldr	r1, [r4, #16]
 834 0208 43EA0163 		orr	r3, r3, r1, lsl #24
 835 020c 5360     		str	r3, [r2, #4]
 836              	.LVL70:
 837              	.L51:
 505:Drivers/STM32H7xx_HAL_Driver/Src/stm32h7xx_hal_rcc.c ****       }
 838              		.loc 1 505 9 is_stmt 0 discriminator 2 view .LVU257
 839              	.LBE7:
 552:Drivers/STM32H7xx_HAL_Driver/Src/stm32h7xx_hal_rcc.c ****   {
 840              		.loc 1 552 3 is_stmt 1 view .LVU258
 552:Drivers/STM32H7xx_HAL_Driver/Src/stm32h7xx_hal_rcc.c ****   {
 841              		.loc 1 552 26 is_stmt 0 view .LVU259
 842 020e 2368     		ldr	r3, [r4]
 552:Drivers/STM32H7xx_HAL_Driver/Src/stm32h7xx_hal_rcc.c ****   {
 843              		.loc 1 552 6 view .LVU260
 844 0210 13F0100F 		tst	r3, #16
 845 0214 00F09E80 		beq	.L68
 846              	.LBB8:
ARM GAS  /var/folders/g1/j12m_ky910s3_sv7d4yrsdn00000gn/T//ccmnBD4l.s 			page 33


 555:Drivers/STM32H7xx_HAL_Driver/Src/stm32h7xx_hal_rcc.c ****     assert_param(IS_RCC_CSICALIBRATION_VALUE(RCC_OscInitStruct->CSICalibrationValue));
 847              		.loc 1 555 5 is_stmt 1 view .LVU261
 848 0218 E369     		ldr	r3, [r4, #28]
 849 021a 002B     		cmp	r3, #0
 850 021c 18BF     		it	ne
 851 021e 802B     		cmpne	r3, #128
 852 0220 5ED1     		bne	.L176
 853              	.L69:
 556:Drivers/STM32H7xx_HAL_Driver/Src/stm32h7xx_hal_rcc.c **** 
 854              		.loc 1 556 5 view .LVU262
 855 0222 236A     		ldr	r3, [r4, #32]
 856 0224 3F2B     		cmp	r3, #63
 857 0226 61D8     		bhi	.L177
 858              	.L70:
 559:Drivers/STM32H7xx_HAL_Driver/Src/stm32h7xx_hal_rcc.c ****     const uint32_t temp_pllckselr = RCC->PLLCKSELR;
 859              		.loc 1 559 5 view .LVU263
 559:Drivers/STM32H7xx_HAL_Driver/Src/stm32h7xx_hal_rcc.c ****     const uint32_t temp_pllckselr = RCC->PLLCKSELR;
 860              		.loc 1 559 37 is_stmt 0 view .LVU264
 861 0228 214A     		ldr	r2, .L203
 862 022a 1369     		ldr	r3, [r2, #16]
 559:Drivers/STM32H7xx_HAL_Driver/Src/stm32h7xx_hal_rcc.c ****     const uint32_t temp_pllckselr = RCC->PLLCKSELR;
 863              		.loc 1 559 20 view .LVU265
 864 022c 03F03803 		and	r3, r3, #56
 865              	.LVL71:
 560:Drivers/STM32H7xx_HAL_Driver/Src/stm32h7xx_hal_rcc.c ****     if ((temp_sysclksrc == RCC_CFGR_SWS_CSI) || ((temp_sysclksrc == RCC_CFGR_SWS_PLL1) && ((temp_pl
 866              		.loc 1 560 5 is_stmt 1 view .LVU266
 560:Drivers/STM32H7xx_HAL_Driver/Src/stm32h7xx_hal_rcc.c ****     if ((temp_sysclksrc == RCC_CFGR_SWS_CSI) || ((temp_sysclksrc == RCC_CFGR_SWS_PLL1) && ((temp_pl
 867              		.loc 1 560 20 is_stmt 0 view .LVU267
 868 0230 926A     		ldr	r2, [r2, #40]
 869              	.LVL72:
 561:Drivers/STM32H7xx_HAL_Driver/Src/stm32h7xx_hal_rcc.c ****     {
 870              		.loc 1 561 5 is_stmt 1 view .LVU268
 561:Drivers/STM32H7xx_HAL_Driver/Src/stm32h7xx_hal_rcc.c ****     {
 871              		.loc 1 561 8 is_stmt 0 view .LVU269
 872 0232 082B     		cmp	r3, #8
 873 0234 64D0     		beq	.L71
 561:Drivers/STM32H7xx_HAL_Driver/Src/stm32h7xx_hal_rcc.c ****     {
 874              		.loc 1 561 46 discriminator 1 view .LVU270
 875 0236 182B     		cmp	r3, #24
 876 0238 5ED0     		beq	.L178
 877              	.LVL73:
 878              	.L72:
 578:Drivers/STM32H7xx_HAL_Driver/Src/stm32h7xx_hal_rcc.c ****       {
 879              		.loc 1 578 7 is_stmt 1 view .LVU271
 578:Drivers/STM32H7xx_HAL_Driver/Src/stm32h7xx_hal_rcc.c ****       {
 880              		.loc 1 578 29 is_stmt 0 view .LVU272
 881 023a E369     		ldr	r3, [r4, #28]
 882              	.LVL74:
 578:Drivers/STM32H7xx_HAL_Driver/Src/stm32h7xx_hal_rcc.c ****       {
 883              		.loc 1 578 10 view .LVU273
 884 023c 002B     		cmp	r3, #0
 885 023e 00F0C980 		beq	.L76
 581:Drivers/STM32H7xx_HAL_Driver/Src/stm32h7xx_hal_rcc.c **** 
 886              		.loc 1 581 9 is_stmt 1 view .LVU274
 887 0242 1B4A     		ldr	r2, .L203
 888 0244 1368     		ldr	r3, [r2]
 889 0246 43F08003 		orr	r3, r3, #128
ARM GAS  /var/folders/g1/j12m_ky910s3_sv7d4yrsdn00000gn/T//ccmnBD4l.s 			page 34


 890 024a 1360     		str	r3, [r2]
 584:Drivers/STM32H7xx_HAL_Driver/Src/stm32h7xx_hal_rcc.c **** 
 891              		.loc 1 584 9 view .LVU275
 584:Drivers/STM32H7xx_HAL_Driver/Src/stm32h7xx_hal_rcc.c **** 
 892              		.loc 1 584 21 is_stmt 0 view .LVU276
 893 024c FFF7FEFF 		bl	HAL_GetTick
 894              	.LVL75:
 895 0250 0546     		mov	r5, r0
 896              	.LVL76:
 587:Drivers/STM32H7xx_HAL_Driver/Src/stm32h7xx_hal_rcc.c ****         {
 897              		.loc 1 587 9 is_stmt 1 view .LVU277
 898              	.L77:
 587:Drivers/STM32H7xx_HAL_Driver/Src/stm32h7xx_hal_rcc.c ****         {
 899              		.loc 1 587 52 view .LVU278
 587:Drivers/STM32H7xx_HAL_Driver/Src/stm32h7xx_hal_rcc.c ****         {
 900              		.loc 1 587 16 is_stmt 0 view .LVU279
 901 0252 174B     		ldr	r3, .L203
 902 0254 1B68     		ldr	r3, [r3]
 587:Drivers/STM32H7xx_HAL_Driver/Src/stm32h7xx_hal_rcc.c ****         {
 903              		.loc 1 587 52 view .LVU280
 904 0256 13F4807F 		tst	r3, #256
 905 025a 40F09980 		bne	.L179
 589:Drivers/STM32H7xx_HAL_Driver/Src/stm32h7xx_hal_rcc.c ****           {
 906              		.loc 1 589 11 is_stmt 1 view .LVU281
 589:Drivers/STM32H7xx_HAL_Driver/Src/stm32h7xx_hal_rcc.c ****           {
 907              		.loc 1 589 16 is_stmt 0 view .LVU282
 908 025e FFF7FEFF 		bl	HAL_GetTick
 909              	.LVL77:
 589:Drivers/STM32H7xx_HAL_Driver/Src/stm32h7xx_hal_rcc.c ****           {
 910              		.loc 1 589 30 discriminator 1 view .LVU283
 911 0262 401B     		subs	r0, r0, r5
 589:Drivers/STM32H7xx_HAL_Driver/Src/stm32h7xx_hal_rcc.c ****           {
 912              		.loc 1 589 14 discriminator 1 view .LVU284
 913 0264 0228     		cmp	r0, #2
 914 0266 F4D9     		bls	.L77
 591:Drivers/STM32H7xx_HAL_Driver/Src/stm32h7xx_hal_rcc.c ****           }
 915              		.loc 1 591 20 view .LVU285
 916 0268 0320     		movs	r0, #3
 917 026a AEE7     		b	.L36
 918              	.LVL78:
 919              	.L172:
 591:Drivers/STM32H7xx_HAL_Driver/Src/stm32h7xx_hal_rcc.c ****           }
 920              		.loc 1 591 20 view .LVU286
 921              	.LBE8:
 922              	.LBB9:
 530:Drivers/STM32H7xx_HAL_Driver/Src/stm32h7xx_hal_rcc.c ****       }
 923              		.loc 1 530 9 is_stmt 1 view .LVU287
 530:Drivers/STM32H7xx_HAL_Driver/Src/stm32h7xx_hal_rcc.c ****       }
 924              		.loc 1 530 9 view .LVU288
 925 026c FFF7FEFF 		bl	HAL_GetREVID
 926              	.LVL79:
 530:Drivers/STM32H7xx_HAL_Driver/Src/stm32h7xx_hal_rcc.c ****       }
 927              		.loc 1 530 9 is_stmt 0 discriminator 1 view .LVU289
 928 0270 41F20303 		movw	r3, #4099
 929 0274 9842     		cmp	r0, r3
 930 0276 12D8     		bhi	.L64
 530:Drivers/STM32H7xx_HAL_Driver/Src/stm32h7xx_hal_rcc.c ****       }
ARM GAS  /var/folders/g1/j12m_ky910s3_sv7d4yrsdn00000gn/T//ccmnBD4l.s 			page 35


 931              		.loc 1 530 9 is_stmt 1 discriminator 1 view .LVU290
 932 0278 2269     		ldr	r2, [r4, #16]
 933 027a 402A     		cmp	r2, #64
 934 027c 07D0     		beq	.L180
 530:Drivers/STM32H7xx_HAL_Driver/Src/stm32h7xx_hal_rcc.c ****       }
 935              		.loc 1 530 9 discriminator 4 view .LVU291
 936 027e 0C49     		ldr	r1, .L203
 937 0280 4B68     		ldr	r3, [r1, #4]
 938 0282 23F47C33 		bic	r3, r3, #258048
 939 0286 43EA0233 		orr	r3, r3, r2, lsl #12
 940 028a 4B60     		str	r3, [r1, #4]
 941 028c BFE7     		b	.L51
 942              	.L180:
 530:Drivers/STM32H7xx_HAL_Driver/Src/stm32h7xx_hal_rcc.c ****       }
 943              		.loc 1 530 9 discriminator 3 view .LVU292
 944 028e 084A     		ldr	r2, .L203
 945 0290 5368     		ldr	r3, [r2, #4]
 946 0292 23F47C33 		bic	r3, r3, #258048
 947 0296 43F40033 		orr	r3, r3, #131072
 948 029a 5360     		str	r3, [r2, #4]
 949 029c B7E7     		b	.L51
 950              	.L64:
 530:Drivers/STM32H7xx_HAL_Driver/Src/stm32h7xx_hal_rcc.c ****       }
 951              		.loc 1 530 9 discriminator 2 view .LVU293
 952 029e 044A     		ldr	r2, .L203
 953 02a0 5368     		ldr	r3, [r2, #4]
 954 02a2 23F0FE43 		bic	r3, r3, #2130706432
 955 02a6 2169     		ldr	r1, [r4, #16]
 956 02a8 43EA0163 		orr	r3, r3, r1, lsl #24
 957 02ac 5360     		str	r3, [r2, #4]
 958 02ae AEE7     		b	.L51
 959              	.L204:
 960              		.align	2
 961              	.L203:
 962 02b0 00440258 		.word	1476543488
 963 02b4 00000000 		.word	.LC0
 964              	.LVL80:
 965              	.L61:
 535:Drivers/STM32H7xx_HAL_Driver/Src/stm32h7xx_hal_rcc.c **** 
 966              		.loc 1 535 9 view .LVU294
 967 02b8 9D4A     		ldr	r2, .L205
 968              	.LVL81:
 535:Drivers/STM32H7xx_HAL_Driver/Src/stm32h7xx_hal_rcc.c **** 
 969              		.loc 1 535 9 is_stmt 0 view .LVU295
 970 02ba 1368     		ldr	r3, [r2]
 971 02bc 23F00103 		bic	r3, r3, #1
 972 02c0 1360     		str	r3, [r2]
 538:Drivers/STM32H7xx_HAL_Driver/Src/stm32h7xx_hal_rcc.c **** 
 973              		.loc 1 538 9 is_stmt 1 view .LVU296
 538:Drivers/STM32H7xx_HAL_Driver/Src/stm32h7xx_hal_rcc.c **** 
 974              		.loc 1 538 21 is_stmt 0 view .LVU297
 975 02c2 FFF7FEFF 		bl	HAL_GetTick
 976              	.LVL82:
 977 02c6 0546     		mov	r5, r0
 978              	.LVL83:
 541:Drivers/STM32H7xx_HAL_Driver/Src/stm32h7xx_hal_rcc.c ****         {
 979              		.loc 1 541 9 is_stmt 1 view .LVU298
ARM GAS  /var/folders/g1/j12m_ky910s3_sv7d4yrsdn00000gn/T//ccmnBD4l.s 			page 36


 980              	.L66:
 541:Drivers/STM32H7xx_HAL_Driver/Src/stm32h7xx_hal_rcc.c ****         {
 981              		.loc 1 541 52 view .LVU299
 541:Drivers/STM32H7xx_HAL_Driver/Src/stm32h7xx_hal_rcc.c ****         {
 982              		.loc 1 541 16 is_stmt 0 view .LVU300
 983 02c8 994B     		ldr	r3, .L205
 984 02ca 1B68     		ldr	r3, [r3]
 541:Drivers/STM32H7xx_HAL_Driver/Src/stm32h7xx_hal_rcc.c ****         {
 985              		.loc 1 541 52 view .LVU301
 986 02cc 13F0040F 		tst	r3, #4
 987 02d0 9DD0     		beq	.L51
 543:Drivers/STM32H7xx_HAL_Driver/Src/stm32h7xx_hal_rcc.c ****           {
 988              		.loc 1 543 11 is_stmt 1 view .LVU302
 543:Drivers/STM32H7xx_HAL_Driver/Src/stm32h7xx_hal_rcc.c ****           {
 989              		.loc 1 543 16 is_stmt 0 view .LVU303
 990 02d2 FFF7FEFF 		bl	HAL_GetTick
 991              	.LVL84:
 543:Drivers/STM32H7xx_HAL_Driver/Src/stm32h7xx_hal_rcc.c ****           {
 992              		.loc 1 543 30 discriminator 1 view .LVU304
 993 02d6 401B     		subs	r0, r0, r5
 543:Drivers/STM32H7xx_HAL_Driver/Src/stm32h7xx_hal_rcc.c ****           {
 994              		.loc 1 543 14 discriminator 1 view .LVU305
 995 02d8 0228     		cmp	r0, #2
 996 02da F5D9     		bls	.L66
 545:Drivers/STM32H7xx_HAL_Driver/Src/stm32h7xx_hal_rcc.c ****           }
 997              		.loc 1 545 20 view .LVU306
 998 02dc 0320     		movs	r0, #3
 999 02de 74E7     		b	.L36
 1000              	.LVL85:
 1001              	.L176:
 545:Drivers/STM32H7xx_HAL_Driver/Src/stm32h7xx_hal_rcc.c ****           }
 1002              		.loc 1 545 20 view .LVU307
 1003              	.LBE9:
 1004              	.LBB10:
 555:Drivers/STM32H7xx_HAL_Driver/Src/stm32h7xx_hal_rcc.c ****     assert_param(IS_RCC_CSICALIBRATION_VALUE(RCC_OscInitStruct->CSICalibrationValue));
 1005              		.loc 1 555 5 discriminator 1 view .LVU308
 1006 02e0 40F22B21 		movw	r1, #555
 1007 02e4 9348     		ldr	r0, .L205+4
 1008 02e6 FFF7FEFF 		bl	assert_failed
 1009              	.LVL86:
 1010 02ea 9AE7     		b	.L69
 1011              	.L177:
 556:Drivers/STM32H7xx_HAL_Driver/Src/stm32h7xx_hal_rcc.c **** 
 1012              		.loc 1 556 5 discriminator 1 view .LVU309
 1013 02ec 4FF40B71 		mov	r1, #556
 1014 02f0 9048     		ldr	r0, .L205+4
 1015 02f2 FFF7FEFF 		bl	assert_failed
 1016              	.LVL87:
 1017 02f6 97E7     		b	.L70
 1018              	.LVL88:
 1019              	.L178:
 561:Drivers/STM32H7xx_HAL_Driver/Src/stm32h7xx_hal_rcc.c ****     {
 1020              		.loc 1 561 108 discriminator 2 view .LVU310
 1021 02f8 02F00302 		and	r2, r2, #3
 1022              	.LVL89:
 561:Drivers/STM32H7xx_HAL_Driver/Src/stm32h7xx_hal_rcc.c ****     {
 1023              		.loc 1 561 88 discriminator 2 view .LVU311
ARM GAS  /var/folders/g1/j12m_ky910s3_sv7d4yrsdn00000gn/T//ccmnBD4l.s 			page 37


 1024 02fc 012A     		cmp	r2, #1
 1025 02fe 9CD1     		bne	.L72
 1026              	.L71:
 564:Drivers/STM32H7xx_HAL_Driver/Src/stm32h7xx_hal_rcc.c ****       {
 1027              		.loc 1 564 7 is_stmt 1 view .LVU312
 564:Drivers/STM32H7xx_HAL_Driver/Src/stm32h7xx_hal_rcc.c ****       {
 1028              		.loc 1 564 12 is_stmt 0 view .LVU313
 1029 0300 8B4B     		ldr	r3, .L205
 1030              	.LVL90:
 564:Drivers/STM32H7xx_HAL_Driver/Src/stm32h7xx_hal_rcc.c ****       {
 1031              		.loc 1 564 12 view .LVU314
 1032 0302 1B68     		ldr	r3, [r3]
 564:Drivers/STM32H7xx_HAL_Driver/Src/stm32h7xx_hal_rcc.c ****       {
 1033              		.loc 1 564 10 view .LVU315
 1034 0304 13F4807F 		tst	r3, #256
 1035 0308 03D0     		beq	.L73
 564:Drivers/STM32H7xx_HAL_Driver/Src/stm32h7xx_hal_rcc.c ****       {
 1036              		.loc 1 564 76 discriminator 1 view .LVU316
 1037 030a E369     		ldr	r3, [r4, #28]
 564:Drivers/STM32H7xx_HAL_Driver/Src/stm32h7xx_hal_rcc.c ****       {
 1038              		.loc 1 564 55 discriminator 1 view .LVU317
 1039 030c 802B     		cmp	r3, #128
 1040 030e 40F09A82 		bne	.L138
 1041              	.L73:
 572:Drivers/STM32H7xx_HAL_Driver/Src/stm32h7xx_hal_rcc.c ****       }
 1042              		.loc 1 572 9 is_stmt 1 view .LVU318
 572:Drivers/STM32H7xx_HAL_Driver/Src/stm32h7xx_hal_rcc.c ****       }
 1043              		.loc 1 572 9 view .LVU319
 1044 0312 FFF7FEFF 		bl	HAL_GetREVID
 1045              	.LVL91:
 572:Drivers/STM32H7xx_HAL_Driver/Src/stm32h7xx_hal_rcc.c ****       }
 1046              		.loc 1 572 9 is_stmt 0 discriminator 1 view .LVU320
 1047 0316 41F20303 		movw	r3, #4099
 1048 031a 9842     		cmp	r0, r3
 1049 031c 12D8     		bhi	.L74
 572:Drivers/STM32H7xx_HAL_Driver/Src/stm32h7xx_hal_rcc.c ****       }
 1050              		.loc 1 572 9 is_stmt 1 discriminator 1 view .LVU321
 1051 031e 226A     		ldr	r2, [r4, #32]
 1052 0320 202A     		cmp	r2, #32
 1053 0322 07D0     		beq	.L181
 572:Drivers/STM32H7xx_HAL_Driver/Src/stm32h7xx_hal_rcc.c ****       }
 1054              		.loc 1 572 9 discriminator 4 view .LVU322
 1055 0324 8249     		ldr	r1, .L205
 1056 0326 4B68     		ldr	r3, [r1, #4]
 1057 0328 23F0F843 		bic	r3, r3, #2080374784
 1058 032c 43EA8263 		orr	r3, r3, r2, lsl #26
 1059 0330 4B60     		str	r3, [r1, #4]
 1060 0332 0FE0     		b	.L68
 1061              	.L181:
 572:Drivers/STM32H7xx_HAL_Driver/Src/stm32h7xx_hal_rcc.c ****       }
 1062              		.loc 1 572 9 discriminator 3 view .LVU323
 1063 0334 7E4A     		ldr	r2, .L205
 1064 0336 5368     		ldr	r3, [r2, #4]
 1065 0338 23F0F843 		bic	r3, r3, #2080374784
 1066 033c 43F08043 		orr	r3, r3, #1073741824
 1067 0340 5360     		str	r3, [r2, #4]
 1068 0342 07E0     		b	.L68
ARM GAS  /var/folders/g1/j12m_ky910s3_sv7d4yrsdn00000gn/T//ccmnBD4l.s 			page 38


 1069              	.L74:
 572:Drivers/STM32H7xx_HAL_Driver/Src/stm32h7xx_hal_rcc.c ****       }
 1070              		.loc 1 572 9 discriminator 2 view .LVU324
 1071 0344 7A4A     		ldr	r2, .L205
 1072 0346 D368     		ldr	r3, [r2, #12]
 1073 0348 23F07C53 		bic	r3, r3, #1056964608
 1074 034c 216A     		ldr	r1, [r4, #32]
 1075 034e 43EA0163 		orr	r3, r3, r1, lsl #24
 1076 0352 D360     		str	r3, [r2, #12]
 1077              	.LVL92:
 1078              	.L68:
 572:Drivers/STM32H7xx_HAL_Driver/Src/stm32h7xx_hal_rcc.c ****       }
 1079              		.loc 1 572 9 is_stmt 0 discriminator 2 view .LVU325
 1080              	.LBE10:
 618:Drivers/STM32H7xx_HAL_Driver/Src/stm32h7xx_hal_rcc.c ****   {
 1081              		.loc 1 618 3 is_stmt 1 view .LVU326
 618:Drivers/STM32H7xx_HAL_Driver/Src/stm32h7xx_hal_rcc.c ****   {
 1082              		.loc 1 618 26 is_stmt 0 view .LVU327
 1083 0354 2368     		ldr	r3, [r4]
 618:Drivers/STM32H7xx_HAL_Driver/Src/stm32h7xx_hal_rcc.c ****   {
 1084              		.loc 1 618 6 view .LVU328
 1085 0356 13F0080F 		tst	r3, #8
 1086 035a 69D0     		beq	.L83
 621:Drivers/STM32H7xx_HAL_Driver/Src/stm32h7xx_hal_rcc.c **** 
 1087              		.loc 1 621 5 is_stmt 1 view .LVU329
 1088 035c 6369     		ldr	r3, [r4, #20]
 1089 035e 012B     		cmp	r3, #1
 1090 0360 4CD8     		bhi	.L182
 1091              	.L84:
 624:Drivers/STM32H7xx_HAL_Driver/Src/stm32h7xx_hal_rcc.c ****     {
 1092              		.loc 1 624 5 view .LVU330
 624:Drivers/STM32H7xx_HAL_Driver/Src/stm32h7xx_hal_rcc.c ****     {
 1093              		.loc 1 624 27 is_stmt 0 view .LVU331
 1094 0362 6369     		ldr	r3, [r4, #20]
 624:Drivers/STM32H7xx_HAL_Driver/Src/stm32h7xx_hal_rcc.c ****     {
 1095              		.loc 1 624 8 view .LVU332
 1096 0364 002B     		cmp	r3, #0
 1097 0366 4FD0     		beq	.L85
 627:Drivers/STM32H7xx_HAL_Driver/Src/stm32h7xx_hal_rcc.c **** 
 1098              		.loc 1 627 7 is_stmt 1 view .LVU333
 1099 0368 714A     		ldr	r2, .L205
 1100 036a 536F     		ldr	r3, [r2, #116]
 1101 036c 43F00103 		orr	r3, r3, #1
 1102 0370 5367     		str	r3, [r2, #116]
 630:Drivers/STM32H7xx_HAL_Driver/Src/stm32h7xx_hal_rcc.c **** 
 1103              		.loc 1 630 7 view .LVU334
 630:Drivers/STM32H7xx_HAL_Driver/Src/stm32h7xx_hal_rcc.c **** 
 1104              		.loc 1 630 19 is_stmt 0 view .LVU335
 1105 0372 FFF7FEFF 		bl	HAL_GetTick
 1106              	.LVL93:
 1107 0376 0546     		mov	r5, r0
 1108              	.LVL94:
 633:Drivers/STM32H7xx_HAL_Driver/Src/stm32h7xx_hal_rcc.c ****       {
 1109              		.loc 1 633 7 is_stmt 1 view .LVU336
 1110              	.L86:
 633:Drivers/STM32H7xx_HAL_Driver/Src/stm32h7xx_hal_rcc.c ****       {
 1111              		.loc 1 633 50 view .LVU337
ARM GAS  /var/folders/g1/j12m_ky910s3_sv7d4yrsdn00000gn/T//ccmnBD4l.s 			page 39


 633:Drivers/STM32H7xx_HAL_Driver/Src/stm32h7xx_hal_rcc.c ****       {
 1112              		.loc 1 633 14 is_stmt 0 view .LVU338
 1113 0378 6D4B     		ldr	r3, .L205
 1114 037a 5B6F     		ldr	r3, [r3, #116]
 633:Drivers/STM32H7xx_HAL_Driver/Src/stm32h7xx_hal_rcc.c ****       {
 1115              		.loc 1 633 50 view .LVU339
 1116 037c 13F0020F 		tst	r3, #2
 1117 0380 56D1     		bne	.L83
 635:Drivers/STM32H7xx_HAL_Driver/Src/stm32h7xx_hal_rcc.c ****         {
 1118              		.loc 1 635 9 is_stmt 1 view .LVU340
 635:Drivers/STM32H7xx_HAL_Driver/Src/stm32h7xx_hal_rcc.c ****         {
 1119              		.loc 1 635 14 is_stmt 0 view .LVU341
 1120 0382 FFF7FEFF 		bl	HAL_GetTick
 1121              	.LVL95:
 635:Drivers/STM32H7xx_HAL_Driver/Src/stm32h7xx_hal_rcc.c ****         {
 1122              		.loc 1 635 28 discriminator 1 view .LVU342
 1123 0386 401B     		subs	r0, r0, r5
 635:Drivers/STM32H7xx_HAL_Driver/Src/stm32h7xx_hal_rcc.c ****         {
 1124              		.loc 1 635 12 discriminator 1 view .LVU343
 1125 0388 0228     		cmp	r0, #2
 1126 038a F5D9     		bls	.L86
 637:Drivers/STM32H7xx_HAL_Driver/Src/stm32h7xx_hal_rcc.c ****         }
 1127              		.loc 1 637 18 view .LVU344
 1128 038c 0320     		movs	r0, #3
 1129 038e 1CE7     		b	.L36
 1130              	.LVL96:
 1131              	.L179:
 1132              	.LBB11:
 596:Drivers/STM32H7xx_HAL_Driver/Src/stm32h7xx_hal_rcc.c ****       }
 1133              		.loc 1 596 9 is_stmt 1 view .LVU345
 596:Drivers/STM32H7xx_HAL_Driver/Src/stm32h7xx_hal_rcc.c ****       }
 1134              		.loc 1 596 9 view .LVU346
 1135 0390 FFF7FEFF 		bl	HAL_GetREVID
 1136              	.LVL97:
 596:Drivers/STM32H7xx_HAL_Driver/Src/stm32h7xx_hal_rcc.c ****       }
 1137              		.loc 1 596 9 is_stmt 0 discriminator 1 view .LVU347
 1138 0394 41F20303 		movw	r3, #4099
 1139 0398 9842     		cmp	r0, r3
 1140 039a 12D8     		bhi	.L79
 596:Drivers/STM32H7xx_HAL_Driver/Src/stm32h7xx_hal_rcc.c ****       }
 1141              		.loc 1 596 9 is_stmt 1 discriminator 1 view .LVU348
 1142 039c 226A     		ldr	r2, [r4, #32]
 1143 039e 202A     		cmp	r2, #32
 1144 03a0 07D0     		beq	.L183
 596:Drivers/STM32H7xx_HAL_Driver/Src/stm32h7xx_hal_rcc.c ****       }
 1145              		.loc 1 596 9 discriminator 4 view .LVU349
 1146 03a2 6349     		ldr	r1, .L205
 1147 03a4 4B68     		ldr	r3, [r1, #4]
 1148 03a6 23F0F843 		bic	r3, r3, #2080374784
 1149 03aa 43EA8263 		orr	r3, r3, r2, lsl #26
 1150 03ae 4B60     		str	r3, [r1, #4]
 1151 03b0 D0E7     		b	.L68
 1152              	.L183:
 596:Drivers/STM32H7xx_HAL_Driver/Src/stm32h7xx_hal_rcc.c ****       }
 1153              		.loc 1 596 9 discriminator 3 view .LVU350
 1154 03b2 5F4A     		ldr	r2, .L205
 1155 03b4 5368     		ldr	r3, [r2, #4]
ARM GAS  /var/folders/g1/j12m_ky910s3_sv7d4yrsdn00000gn/T//ccmnBD4l.s 			page 40


 1156 03b6 23F0F843 		bic	r3, r3, #2080374784
 1157 03ba 43F08043 		orr	r3, r3, #1073741824
 1158 03be 5360     		str	r3, [r2, #4]
 1159 03c0 C8E7     		b	.L68
 1160              	.L79:
 596:Drivers/STM32H7xx_HAL_Driver/Src/stm32h7xx_hal_rcc.c ****       }
 1161              		.loc 1 596 9 discriminator 2 view .LVU351
 1162 03c2 5B4A     		ldr	r2, .L205
 1163 03c4 D368     		ldr	r3, [r2, #12]
 1164 03c6 23F07C53 		bic	r3, r3, #1056964608
 1165 03ca 216A     		ldr	r1, [r4, #32]
 1166 03cc 43EA0163 		orr	r3, r3, r1, lsl #24
 1167 03d0 D360     		str	r3, [r2, #12]
 1168 03d2 BFE7     		b	.L68
 1169              	.LVL98:
 1170              	.L76:
 601:Drivers/STM32H7xx_HAL_Driver/Src/stm32h7xx_hal_rcc.c **** 
 1171              		.loc 1 601 9 view .LVU352
 1172 03d4 564A     		ldr	r2, .L205
 1173 03d6 1368     		ldr	r3, [r2]
 1174 03d8 23F08003 		bic	r3, r3, #128
 1175 03dc 1360     		str	r3, [r2]
 604:Drivers/STM32H7xx_HAL_Driver/Src/stm32h7xx_hal_rcc.c **** 
 1176              		.loc 1 604 9 view .LVU353
 604:Drivers/STM32H7xx_HAL_Driver/Src/stm32h7xx_hal_rcc.c **** 
 1177              		.loc 1 604 21 is_stmt 0 view .LVU354
 1178 03de FFF7FEFF 		bl	HAL_GetTick
 1179              	.LVL99:
 1180 03e2 0546     		mov	r5, r0
 1181              	.LVL100:
 607:Drivers/STM32H7xx_HAL_Driver/Src/stm32h7xx_hal_rcc.c ****         {
 1182              		.loc 1 607 9 is_stmt 1 view .LVU355
 1183              	.L81:
 607:Drivers/STM32H7xx_HAL_Driver/Src/stm32h7xx_hal_rcc.c ****         {
 1184              		.loc 1 607 52 view .LVU356
 607:Drivers/STM32H7xx_HAL_Driver/Src/stm32h7xx_hal_rcc.c ****         {
 1185              		.loc 1 607 16 is_stmt 0 view .LVU357
 1186 03e4 524B     		ldr	r3, .L205
 1187 03e6 1B68     		ldr	r3, [r3]
 607:Drivers/STM32H7xx_HAL_Driver/Src/stm32h7xx_hal_rcc.c ****         {
 1188              		.loc 1 607 52 view .LVU358
 1189 03e8 13F4807F 		tst	r3, #256
 1190 03ec B2D0     		beq	.L68
 609:Drivers/STM32H7xx_HAL_Driver/Src/stm32h7xx_hal_rcc.c ****           {
 1191              		.loc 1 609 11 is_stmt 1 view .LVU359
 609:Drivers/STM32H7xx_HAL_Driver/Src/stm32h7xx_hal_rcc.c ****           {
 1192              		.loc 1 609 16 is_stmt 0 view .LVU360
 1193 03ee FFF7FEFF 		bl	HAL_GetTick
 1194              	.LVL101:
 609:Drivers/STM32H7xx_HAL_Driver/Src/stm32h7xx_hal_rcc.c ****           {
 1195              		.loc 1 609 30 discriminator 1 view .LVU361
 1196 03f2 401B     		subs	r0, r0, r5
 609:Drivers/STM32H7xx_HAL_Driver/Src/stm32h7xx_hal_rcc.c ****           {
 1197              		.loc 1 609 14 discriminator 1 view .LVU362
 1198 03f4 0228     		cmp	r0, #2
 1199 03f6 F5D9     		bls	.L81
 611:Drivers/STM32H7xx_HAL_Driver/Src/stm32h7xx_hal_rcc.c ****           }
ARM GAS  /var/folders/g1/j12m_ky910s3_sv7d4yrsdn00000gn/T//ccmnBD4l.s 			page 41


 1200              		.loc 1 611 20 view .LVU363
 1201 03f8 0320     		movs	r0, #3
 1202 03fa E6E6     		b	.L36
 1203              	.LVL102:
 1204              	.L182:
 611:Drivers/STM32H7xx_HAL_Driver/Src/stm32h7xx_hal_rcc.c ****           }
 1205              		.loc 1 611 20 view .LVU364
 1206              	.LBE11:
 621:Drivers/STM32H7xx_HAL_Driver/Src/stm32h7xx_hal_rcc.c **** 
 1207              		.loc 1 621 5 discriminator 1 view .LVU365
 1208 03fc 40F26D21 		movw	r1, #621
 1209 0400 4C48     		ldr	r0, .L205+4
 1210 0402 FFF7FEFF 		bl	assert_failed
 1211              	.LVL103:
 1212 0406 ACE7     		b	.L84
 1213              	.L85:
 644:Drivers/STM32H7xx_HAL_Driver/Src/stm32h7xx_hal_rcc.c **** 
 1214              		.loc 1 644 7 is_stmt 1 view .LVU366
 1215 0408 494A     		ldr	r2, .L205
 1216 040a 536F     		ldr	r3, [r2, #116]
 1217 040c 23F00103 		bic	r3, r3, #1
 1218 0410 5367     		str	r3, [r2, #116]
 647:Drivers/STM32H7xx_HAL_Driver/Src/stm32h7xx_hal_rcc.c **** 
 1219              		.loc 1 647 7 view .LVU367
 647:Drivers/STM32H7xx_HAL_Driver/Src/stm32h7xx_hal_rcc.c **** 
 1220              		.loc 1 647 19 is_stmt 0 view .LVU368
 1221 0412 FFF7FEFF 		bl	HAL_GetTick
 1222              	.LVL104:
 1223 0416 0546     		mov	r5, r0
 1224              	.LVL105:
 650:Drivers/STM32H7xx_HAL_Driver/Src/stm32h7xx_hal_rcc.c ****       {
 1225              		.loc 1 650 7 is_stmt 1 view .LVU369
 1226              	.L88:
 650:Drivers/STM32H7xx_HAL_Driver/Src/stm32h7xx_hal_rcc.c ****       {
 1227              		.loc 1 650 50 view .LVU370
 650:Drivers/STM32H7xx_HAL_Driver/Src/stm32h7xx_hal_rcc.c ****       {
 1228              		.loc 1 650 14 is_stmt 0 view .LVU371
 1229 0418 454B     		ldr	r3, .L205
 1230 041a 5B6F     		ldr	r3, [r3, #116]
 650:Drivers/STM32H7xx_HAL_Driver/Src/stm32h7xx_hal_rcc.c ****       {
 1231              		.loc 1 650 50 view .LVU372
 1232 041c 13F0020F 		tst	r3, #2
 1233 0420 06D0     		beq	.L83
 652:Drivers/STM32H7xx_HAL_Driver/Src/stm32h7xx_hal_rcc.c ****         {
 1234              		.loc 1 652 9 is_stmt 1 view .LVU373
 652:Drivers/STM32H7xx_HAL_Driver/Src/stm32h7xx_hal_rcc.c ****         {
 1235              		.loc 1 652 14 is_stmt 0 view .LVU374
 1236 0422 FFF7FEFF 		bl	HAL_GetTick
 1237              	.LVL106:
 652:Drivers/STM32H7xx_HAL_Driver/Src/stm32h7xx_hal_rcc.c ****         {
 1238              		.loc 1 652 28 discriminator 1 view .LVU375
 1239 0426 401B     		subs	r0, r0, r5
 652:Drivers/STM32H7xx_HAL_Driver/Src/stm32h7xx_hal_rcc.c ****         {
 1240              		.loc 1 652 12 discriminator 1 view .LVU376
 1241 0428 0228     		cmp	r0, #2
 1242 042a F5D9     		bls	.L88
 654:Drivers/STM32H7xx_HAL_Driver/Src/stm32h7xx_hal_rcc.c ****         }
ARM GAS  /var/folders/g1/j12m_ky910s3_sv7d4yrsdn00000gn/T//ccmnBD4l.s 			page 42


 1243              		.loc 1 654 18 view .LVU377
 1244 042c 0320     		movs	r0, #3
 1245 042e CCE6     		b	.L36
 1246              	.LVL107:
 1247              	.L83:
 661:Drivers/STM32H7xx_HAL_Driver/Src/stm32h7xx_hal_rcc.c ****   {
 1248              		.loc 1 661 3 is_stmt 1 view .LVU378
 661:Drivers/STM32H7xx_HAL_Driver/Src/stm32h7xx_hal_rcc.c ****   {
 1249              		.loc 1 661 26 is_stmt 0 view .LVU379
 1250 0430 2368     		ldr	r3, [r4]
 661:Drivers/STM32H7xx_HAL_Driver/Src/stm32h7xx_hal_rcc.c ****   {
 1251              		.loc 1 661 6 view .LVU380
 1252 0432 13F0200F 		tst	r3, #32
 1253 0436 32D0     		beq	.L90
 664:Drivers/STM32H7xx_HAL_Driver/Src/stm32h7xx_hal_rcc.c **** 
 1254              		.loc 1 664 5 is_stmt 1 view .LVU381
 1255 0438 A369     		ldr	r3, [r4, #24]
 1256 043a 012B     		cmp	r3, #1
 1257 043c 15D8     		bhi	.L184
 1258              	.L91:
 667:Drivers/STM32H7xx_HAL_Driver/Src/stm32h7xx_hal_rcc.c ****     {
 1259              		.loc 1 667 5 view .LVU382
 667:Drivers/STM32H7xx_HAL_Driver/Src/stm32h7xx_hal_rcc.c ****     {
 1260              		.loc 1 667 27 is_stmt 0 view .LVU383
 1261 043e A369     		ldr	r3, [r4, #24]
 667:Drivers/STM32H7xx_HAL_Driver/Src/stm32h7xx_hal_rcc.c ****     {
 1262              		.loc 1 667 8 view .LVU384
 1263 0440 CBB1     		cbz	r3, .L92
 670:Drivers/STM32H7xx_HAL_Driver/Src/stm32h7xx_hal_rcc.c **** 
 1264              		.loc 1 670 7 is_stmt 1 view .LVU385
 1265 0442 3B4A     		ldr	r2, .L205
 1266 0444 1368     		ldr	r3, [r2]
 1267 0446 43F48053 		orr	r3, r3, #4096
 1268 044a 1360     		str	r3, [r2]
 670:Drivers/STM32H7xx_HAL_Driver/Src/stm32h7xx_hal_rcc.c **** 
 1269              		.loc 1 670 31 view .LVU386
 673:Drivers/STM32H7xx_HAL_Driver/Src/stm32h7xx_hal_rcc.c **** 
 1270              		.loc 1 673 7 view .LVU387
 673:Drivers/STM32H7xx_HAL_Driver/Src/stm32h7xx_hal_rcc.c **** 
 1271              		.loc 1 673 19 is_stmt 0 view .LVU388
 1272 044c FFF7FEFF 		bl	HAL_GetTick
 1273              	.LVL108:
 1274 0450 0546     		mov	r5, r0
 1275              	.LVL109:
 676:Drivers/STM32H7xx_HAL_Driver/Src/stm32h7xx_hal_rcc.c ****       {
 1276              		.loc 1 676 7 is_stmt 1 view .LVU389
 1277              	.L93:
 676:Drivers/STM32H7xx_HAL_Driver/Src/stm32h7xx_hal_rcc.c ****       {
 1278              		.loc 1 676 52 view .LVU390
 676:Drivers/STM32H7xx_HAL_Driver/Src/stm32h7xx_hal_rcc.c ****       {
 1279              		.loc 1 676 14 is_stmt 0 view .LVU391
 1280 0452 374B     		ldr	r3, .L205
 1281 0454 1B68     		ldr	r3, [r3]
 676:Drivers/STM32H7xx_HAL_Driver/Src/stm32h7xx_hal_rcc.c ****       {
 1282              		.loc 1 676 52 view .LVU392
 1283 0456 13F4005F 		tst	r3, #8192
 1284 045a 20D1     		bne	.L90
ARM GAS  /var/folders/g1/j12m_ky910s3_sv7d4yrsdn00000gn/T//ccmnBD4l.s 			page 43


 678:Drivers/STM32H7xx_HAL_Driver/Src/stm32h7xx_hal_rcc.c ****         {
 1285              		.loc 1 678 9 is_stmt 1 view .LVU393
 678:Drivers/STM32H7xx_HAL_Driver/Src/stm32h7xx_hal_rcc.c ****         {
 1286              		.loc 1 678 14 is_stmt 0 view .LVU394
 1287 045c FFF7FEFF 		bl	HAL_GetTick
 1288              	.LVL110:
 678:Drivers/STM32H7xx_HAL_Driver/Src/stm32h7xx_hal_rcc.c ****         {
 1289              		.loc 1 678 28 discriminator 1 view .LVU395
 1290 0460 401B     		subs	r0, r0, r5
 678:Drivers/STM32H7xx_HAL_Driver/Src/stm32h7xx_hal_rcc.c ****         {
 1291              		.loc 1 678 12 discriminator 1 view .LVU396
 1292 0462 0228     		cmp	r0, #2
 1293 0464 F5D9     		bls	.L93
 680:Drivers/STM32H7xx_HAL_Driver/Src/stm32h7xx_hal_rcc.c ****         }
 1294              		.loc 1 680 18 view .LVU397
 1295 0466 0320     		movs	r0, #3
 1296 0468 AFE6     		b	.L36
 1297              	.LVL111:
 1298              	.L184:
 664:Drivers/STM32H7xx_HAL_Driver/Src/stm32h7xx_hal_rcc.c **** 
 1299              		.loc 1 664 5 discriminator 1 view .LVU398
 1300 046a 4FF42671 		mov	r1, #664
 1301 046e 3148     		ldr	r0, .L205+4
 1302 0470 FFF7FEFF 		bl	assert_failed
 1303              	.LVL112:
 1304 0474 E3E7     		b	.L91
 1305              	.L92:
 687:Drivers/STM32H7xx_HAL_Driver/Src/stm32h7xx_hal_rcc.c **** 
 1306              		.loc 1 687 7 is_stmt 1 view .LVU399
 1307 0476 2E4A     		ldr	r2, .L205
 1308 0478 1368     		ldr	r3, [r2]
 1309 047a 23F48053 		bic	r3, r3, #4096
 1310 047e 1360     		str	r3, [r2]
 687:Drivers/STM32H7xx_HAL_Driver/Src/stm32h7xx_hal_rcc.c **** 
 1311              		.loc 1 687 32 view .LVU400
 690:Drivers/STM32H7xx_HAL_Driver/Src/stm32h7xx_hal_rcc.c **** 
 1312              		.loc 1 690 7 view .LVU401
 690:Drivers/STM32H7xx_HAL_Driver/Src/stm32h7xx_hal_rcc.c **** 
 1313              		.loc 1 690 19 is_stmt 0 view .LVU402
 1314 0480 FFF7FEFF 		bl	HAL_GetTick
 1315              	.LVL113:
 1316 0484 0546     		mov	r5, r0
 1317              	.LVL114:
 693:Drivers/STM32H7xx_HAL_Driver/Src/stm32h7xx_hal_rcc.c ****       {
 1318              		.loc 1 693 7 is_stmt 1 view .LVU403
 1319              	.L95:
 693:Drivers/STM32H7xx_HAL_Driver/Src/stm32h7xx_hal_rcc.c ****       {
 1320              		.loc 1 693 52 view .LVU404
 693:Drivers/STM32H7xx_HAL_Driver/Src/stm32h7xx_hal_rcc.c ****       {
 1321              		.loc 1 693 14 is_stmt 0 view .LVU405
 1322 0486 2A4B     		ldr	r3, .L205
 1323 0488 1B68     		ldr	r3, [r3]
 693:Drivers/STM32H7xx_HAL_Driver/Src/stm32h7xx_hal_rcc.c ****       {
 1324              		.loc 1 693 52 view .LVU406
 1325 048a 13F4005F 		tst	r3, #8192
 1326 048e 06D0     		beq	.L90
 695:Drivers/STM32H7xx_HAL_Driver/Src/stm32h7xx_hal_rcc.c ****         {
ARM GAS  /var/folders/g1/j12m_ky910s3_sv7d4yrsdn00000gn/T//ccmnBD4l.s 			page 44


 1327              		.loc 1 695 9 is_stmt 1 view .LVU407
 695:Drivers/STM32H7xx_HAL_Driver/Src/stm32h7xx_hal_rcc.c ****         {
 1328              		.loc 1 695 14 is_stmt 0 view .LVU408
 1329 0490 FFF7FEFF 		bl	HAL_GetTick
 1330              	.LVL115:
 695:Drivers/STM32H7xx_HAL_Driver/Src/stm32h7xx_hal_rcc.c ****         {
 1331              		.loc 1 695 28 discriminator 1 view .LVU409
 1332 0494 401B     		subs	r0, r0, r5
 695:Drivers/STM32H7xx_HAL_Driver/Src/stm32h7xx_hal_rcc.c ****         {
 1333              		.loc 1 695 12 discriminator 1 view .LVU410
 1334 0496 0228     		cmp	r0, #2
 1335 0498 F5D9     		bls	.L95
 697:Drivers/STM32H7xx_HAL_Driver/Src/stm32h7xx_hal_rcc.c ****         }
 1336              		.loc 1 697 18 view .LVU411
 1337 049a 0320     		movs	r0, #3
 1338 049c 95E6     		b	.L36
 1339              	.LVL116:
 1340              	.L90:
 703:Drivers/STM32H7xx_HAL_Driver/Src/stm32h7xx_hal_rcc.c ****   {
 1341              		.loc 1 703 3 is_stmt 1 view .LVU412
 703:Drivers/STM32H7xx_HAL_Driver/Src/stm32h7xx_hal_rcc.c ****   {
 1342              		.loc 1 703 26 is_stmt 0 view .LVU413
 1343 049e 2368     		ldr	r3, [r4]
 703:Drivers/STM32H7xx_HAL_Driver/Src/stm32h7xx_hal_rcc.c ****   {
 1344              		.loc 1 703 6 view .LVU414
 1345 04a0 13F0040F 		tst	r3, #4
 1346 04a4 71D0     		beq	.L97
 706:Drivers/STM32H7xx_HAL_Driver/Src/stm32h7xx_hal_rcc.c **** 
 1347              		.loc 1 706 5 is_stmt 1 view .LVU415
 1348 04a6 A368     		ldr	r3, [r4, #8]
 1349 04a8 052B     		cmp	r3, #5
 1350 04aa 18BF     		it	ne
 1351 04ac 012B     		cmpne	r3, #1
 1352 04ae 13D8     		bhi	.L185
 1353              	.L98:
 709:Drivers/STM32H7xx_HAL_Driver/Src/stm32h7xx_hal_rcc.c **** 
 1354              		.loc 1 709 5 view .LVU416
 709:Drivers/STM32H7xx_HAL_Driver/Src/stm32h7xx_hal_rcc.c **** 
 1355              		.loc 1 709 8 is_stmt 0 view .LVU417
 1356 04b0 214A     		ldr	r2, .L205+8
 1357 04b2 1368     		ldr	r3, [r2]
 709:Drivers/STM32H7xx_HAL_Driver/Src/stm32h7xx_hal_rcc.c **** 
 1358              		.loc 1 709 14 view .LVU418
 1359 04b4 43F48073 		orr	r3, r3, #256
 1360 04b8 1360     		str	r3, [r2]
 712:Drivers/STM32H7xx_HAL_Driver/Src/stm32h7xx_hal_rcc.c **** 
 1361              		.loc 1 712 5 is_stmt 1 view .LVU419
 712:Drivers/STM32H7xx_HAL_Driver/Src/stm32h7xx_hal_rcc.c **** 
 1362              		.loc 1 712 17 is_stmt 0 view .LVU420
 1363 04ba FFF7FEFF 		bl	HAL_GetTick
 1364              	.LVL117:
 1365 04be 0546     		mov	r5, r0
 1366              	.LVL118:
 714:Drivers/STM32H7xx_HAL_Driver/Src/stm32h7xx_hal_rcc.c ****     {
 1367              		.loc 1 714 5 is_stmt 1 view .LVU421
 1368              	.L99:
 714:Drivers/STM32H7xx_HAL_Driver/Src/stm32h7xx_hal_rcc.c ****     {
ARM GAS  /var/folders/g1/j12m_ky910s3_sv7d4yrsdn00000gn/T//ccmnBD4l.s 			page 45


 1369              		.loc 1 714 37 view .LVU422
 714:Drivers/STM32H7xx_HAL_Driver/Src/stm32h7xx_hal_rcc.c ****     {
 1370              		.loc 1 714 16 is_stmt 0 view .LVU423
 1371 04c0 1D4B     		ldr	r3, .L205+8
 1372 04c2 1B68     		ldr	r3, [r3]
 714:Drivers/STM32H7xx_HAL_Driver/Src/stm32h7xx_hal_rcc.c ****     {
 1373              		.loc 1 714 37 view .LVU424
 1374 04c4 13F4807F 		tst	r3, #256
 1375 04c8 0CD1     		bne	.L186
 716:Drivers/STM32H7xx_HAL_Driver/Src/stm32h7xx_hal_rcc.c ****       {
 1376              		.loc 1 716 7 is_stmt 1 view .LVU425
 716:Drivers/STM32H7xx_HAL_Driver/Src/stm32h7xx_hal_rcc.c ****       {
 1377              		.loc 1 716 12 is_stmt 0 view .LVU426
 1378 04ca FFF7FEFF 		bl	HAL_GetTick
 1379              	.LVL119:
 716:Drivers/STM32H7xx_HAL_Driver/Src/stm32h7xx_hal_rcc.c ****       {
 1380              		.loc 1 716 26 discriminator 1 view .LVU427
 1381 04ce 401B     		subs	r0, r0, r5
 716:Drivers/STM32H7xx_HAL_Driver/Src/stm32h7xx_hal_rcc.c ****       {
 1382              		.loc 1 716 10 discriminator 1 view .LVU428
 1383 04d0 6428     		cmp	r0, #100
 1384 04d2 F5D9     		bls	.L99
 718:Drivers/STM32H7xx_HAL_Driver/Src/stm32h7xx_hal_rcc.c ****       }
 1385              		.loc 1 718 16 view .LVU429
 1386 04d4 0320     		movs	r0, #3
 1387 04d6 78E6     		b	.L36
 1388              	.LVL120:
 1389              	.L185:
 706:Drivers/STM32H7xx_HAL_Driver/Src/stm32h7xx_hal_rcc.c **** 
 1390              		.loc 1 706 5 discriminator 1 view .LVU430
 1391 04d8 40F2C221 		movw	r1, #706
 1392 04dc 1548     		ldr	r0, .L205+4
 1393 04de FFF7FEFF 		bl	assert_failed
 1394              	.LVL121:
 1395 04e2 E5E7     		b	.L98
 1396              	.LVL122:
 1397              	.L186:
 723:Drivers/STM32H7xx_HAL_Driver/Src/stm32h7xx_hal_rcc.c ****     /* Check the LSE State */
 1398              		.loc 1 723 5 is_stmt 1 view .LVU431
 723:Drivers/STM32H7xx_HAL_Driver/Src/stm32h7xx_hal_rcc.c ****     /* Check the LSE State */
 1399              		.loc 1 723 5 view .LVU432
 1400 04e4 A368     		ldr	r3, [r4, #8]
 1401 04e6 012B     		cmp	r3, #1
 1402 04e8 0AD0     		beq	.L187
 723:Drivers/STM32H7xx_HAL_Driver/Src/stm32h7xx_hal_rcc.c ****     /* Check the LSE State */
 1403              		.loc 1 723 5 discriminator 2 view .LVU433
 1404 04ea 3BBB     		cbnz	r3, .L103
 723:Drivers/STM32H7xx_HAL_Driver/Src/stm32h7xx_hal_rcc.c ****     /* Check the LSE State */
 1405              		.loc 1 723 5 discriminator 4 view .LVU434
 1406 04ec 104B     		ldr	r3, .L205
 1407 04ee 1A6F     		ldr	r2, [r3, #112]
 1408 04f0 22F00102 		bic	r2, r2, #1
 1409 04f4 1A67     		str	r2, [r3, #112]
 723:Drivers/STM32H7xx_HAL_Driver/Src/stm32h7xx_hal_rcc.c ****     /* Check the LSE State */
 1410              		.loc 1 723 5 view .LVU435
 723:Drivers/STM32H7xx_HAL_Driver/Src/stm32h7xx_hal_rcc.c ****     /* Check the LSE State */
 1411              		.loc 1 723 5 is_stmt 0 discriminator 4 view .LVU436
ARM GAS  /var/folders/g1/j12m_ky910s3_sv7d4yrsdn00000gn/T//ccmnBD4l.s 			page 46


 1412 04f6 1A6F     		ldr	r2, [r3, #112]
 1413 04f8 22F00402 		bic	r2, r2, #4
 1414 04fc 1A67     		str	r2, [r3, #112]
 1415 04fe 04E0     		b	.L102
 1416              	.L187:
 723:Drivers/STM32H7xx_HAL_Driver/Src/stm32h7xx_hal_rcc.c ****     /* Check the LSE State */
 1417              		.loc 1 723 5 is_stmt 1 discriminator 1 view .LVU437
 1418 0500 0B4A     		ldr	r2, .L205
 1419 0502 136F     		ldr	r3, [r2, #112]
 1420 0504 43F00103 		orr	r3, r3, #1
 1421 0508 1367     		str	r3, [r2, #112]
 1422              	.L102:
 723:Drivers/STM32H7xx_HAL_Driver/Src/stm32h7xx_hal_rcc.c ****     /* Check the LSE State */
 1423              		.loc 1 723 5 discriminator 10 view .LVU438
 725:Drivers/STM32H7xx_HAL_Driver/Src/stm32h7xx_hal_rcc.c ****     {
 1424              		.loc 1 725 5 view .LVU439
 725:Drivers/STM32H7xx_HAL_Driver/Src/stm32h7xx_hal_rcc.c ****     {
 1425              		.loc 1 725 27 is_stmt 0 view .LVU440
 1426 050a A368     		ldr	r3, [r4, #8]
 725:Drivers/STM32H7xx_HAL_Driver/Src/stm32h7xx_hal_rcc.c ****     {
 1427              		.loc 1 725 8 view .LVU441
 1428 050c 63B3     		cbz	r3, .L105
 728:Drivers/STM32H7xx_HAL_Driver/Src/stm32h7xx_hal_rcc.c **** 
 1429              		.loc 1 728 7 is_stmt 1 view .LVU442
 728:Drivers/STM32H7xx_HAL_Driver/Src/stm32h7xx_hal_rcc.c **** 
 1430              		.loc 1 728 19 is_stmt 0 view .LVU443
 1431 050e FFF7FEFF 		bl	HAL_GetTick
 1432              	.LVL123:
 1433 0512 0546     		mov	r5, r0
 1434              	.LVL124:
 731:Drivers/STM32H7xx_HAL_Driver/Src/stm32h7xx_hal_rcc.c ****       {
 1435              		.loc 1 731 7 is_stmt 1 view .LVU444
 1436              	.L106:
 731:Drivers/STM32H7xx_HAL_Driver/Src/stm32h7xx_hal_rcc.c ****       {
 1437              		.loc 1 731 50 view .LVU445
 731:Drivers/STM32H7xx_HAL_Driver/Src/stm32h7xx_hal_rcc.c ****       {
 1438              		.loc 1 731 14 is_stmt 0 view .LVU446
 1439 0514 064B     		ldr	r3, .L205
 1440 0516 1B6F     		ldr	r3, [r3, #112]
 731:Drivers/STM32H7xx_HAL_Driver/Src/stm32h7xx_hal_rcc.c ****       {
 1441              		.loc 1 731 50 view .LVU447
 1442 0518 13F0020F 		tst	r3, #2
 1443 051c 35D1     		bne	.L97
 733:Drivers/STM32H7xx_HAL_Driver/Src/stm32h7xx_hal_rcc.c ****         {
 1444              		.loc 1 733 9 is_stmt 1 view .LVU448
 733:Drivers/STM32H7xx_HAL_Driver/Src/stm32h7xx_hal_rcc.c ****         {
 1445              		.loc 1 733 14 is_stmt 0 view .LVU449
 1446 051e FFF7FEFF 		bl	HAL_GetTick
 1447              	.LVL125:
 733:Drivers/STM32H7xx_HAL_Driver/Src/stm32h7xx_hal_rcc.c ****         {
 1448              		.loc 1 733 28 discriminator 1 view .LVU450
 1449 0522 401B     		subs	r0, r0, r5
 733:Drivers/STM32H7xx_HAL_Driver/Src/stm32h7xx_hal_rcc.c ****         {
 1450              		.loc 1 733 12 discriminator 1 view .LVU451
 1451 0524 41F28833 		movw	r3, #5000
 1452 0528 9842     		cmp	r0, r3
 1453 052a F3D9     		bls	.L106
ARM GAS  /var/folders/g1/j12m_ky910s3_sv7d4yrsdn00000gn/T//ccmnBD4l.s 			page 47


 735:Drivers/STM32H7xx_HAL_Driver/Src/stm32h7xx_hal_rcc.c ****         }
 1454              		.loc 1 735 18 view .LVU452
 1455 052c 0320     		movs	r0, #3
 1456 052e 4CE6     		b	.L36
 1457              	.L206:
 1458              		.align	2
 1459              	.L205:
 1460 0530 00440258 		.word	1476543488
 1461 0534 00000000 		.word	.LC0
 1462 0538 00480258 		.word	1476544512
 1463              	.L103:
 723:Drivers/STM32H7xx_HAL_Driver/Src/stm32h7xx_hal_rcc.c ****     /* Check the LSE State */
 1464              		.loc 1 723 5 is_stmt 1 discriminator 5 view .LVU453
 1465 053c 052B     		cmp	r3, #5
 1466 053e 09D0     		beq	.L188
 723:Drivers/STM32H7xx_HAL_Driver/Src/stm32h7xx_hal_rcc.c ****     /* Check the LSE State */
 1467              		.loc 1 723 5 discriminator 8 view .LVU454
 1468 0540 924B     		ldr	r3, .L207
 1469 0542 1A6F     		ldr	r2, [r3, #112]
 1470 0544 22F00102 		bic	r2, r2, #1
 1471 0548 1A67     		str	r2, [r3, #112]
 723:Drivers/STM32H7xx_HAL_Driver/Src/stm32h7xx_hal_rcc.c ****     /* Check the LSE State */
 1472              		.loc 1 723 5 view .LVU455
 723:Drivers/STM32H7xx_HAL_Driver/Src/stm32h7xx_hal_rcc.c ****     /* Check the LSE State */
 1473              		.loc 1 723 5 is_stmt 0 discriminator 8 view .LVU456
 1474 054a 1A6F     		ldr	r2, [r3, #112]
 1475 054c 22F00402 		bic	r2, r2, #4
 1476 0550 1A67     		str	r2, [r3, #112]
 1477 0552 DAE7     		b	.L102
 1478              	.L188:
 723:Drivers/STM32H7xx_HAL_Driver/Src/stm32h7xx_hal_rcc.c ****     /* Check the LSE State */
 1479              		.loc 1 723 5 is_stmt 1 discriminator 7 view .LVU457
 1480 0554 8D4B     		ldr	r3, .L207
 1481 0556 1A6F     		ldr	r2, [r3, #112]
 1482 0558 42F00402 		orr	r2, r2, #4
 1483 055c 1A67     		str	r2, [r3, #112]
 723:Drivers/STM32H7xx_HAL_Driver/Src/stm32h7xx_hal_rcc.c ****     /* Check the LSE State */
 1484              		.loc 1 723 5 view .LVU458
 723:Drivers/STM32H7xx_HAL_Driver/Src/stm32h7xx_hal_rcc.c ****     /* Check the LSE State */
 1485              		.loc 1 723 5 is_stmt 0 discriminator 7 view .LVU459
 1486 055e 1A6F     		ldr	r2, [r3, #112]
 1487 0560 42F00102 		orr	r2, r2, #1
 1488 0564 1A67     		str	r2, [r3, #112]
 1489 0566 D0E7     		b	.L102
 1490              	.L105:
 742:Drivers/STM32H7xx_HAL_Driver/Src/stm32h7xx_hal_rcc.c **** 
 1491              		.loc 1 742 7 is_stmt 1 view .LVU460
 742:Drivers/STM32H7xx_HAL_Driver/Src/stm32h7xx_hal_rcc.c **** 
 1492              		.loc 1 742 19 is_stmt 0 view .LVU461
 1493 0568 FFF7FEFF 		bl	HAL_GetTick
 1494              	.LVL126:
 1495 056c 0546     		mov	r5, r0
 1496              	.LVL127:
 745:Drivers/STM32H7xx_HAL_Driver/Src/stm32h7xx_hal_rcc.c ****       {
 1497              		.loc 1 745 7 is_stmt 1 view .LVU462
 1498              	.L108:
 745:Drivers/STM32H7xx_HAL_Driver/Src/stm32h7xx_hal_rcc.c ****       {
ARM GAS  /var/folders/g1/j12m_ky910s3_sv7d4yrsdn00000gn/T//ccmnBD4l.s 			page 48


 1499              		.loc 1 745 50 view .LVU463
 745:Drivers/STM32H7xx_HAL_Driver/Src/stm32h7xx_hal_rcc.c ****       {
 1500              		.loc 1 745 14 is_stmt 0 view .LVU464
 1501 056e 874B     		ldr	r3, .L207
 1502 0570 1B6F     		ldr	r3, [r3, #112]
 745:Drivers/STM32H7xx_HAL_Driver/Src/stm32h7xx_hal_rcc.c ****       {
 1503              		.loc 1 745 50 view .LVU465
 1504 0572 13F0020F 		tst	r3, #2
 1505 0576 08D0     		beq	.L97
 747:Drivers/STM32H7xx_HAL_Driver/Src/stm32h7xx_hal_rcc.c ****         {
 1506              		.loc 1 747 9 is_stmt 1 view .LVU466
 747:Drivers/STM32H7xx_HAL_Driver/Src/stm32h7xx_hal_rcc.c ****         {
 1507              		.loc 1 747 14 is_stmt 0 view .LVU467
 1508 0578 FFF7FEFF 		bl	HAL_GetTick
 1509              	.LVL128:
 747:Drivers/STM32H7xx_HAL_Driver/Src/stm32h7xx_hal_rcc.c ****         {
 1510              		.loc 1 747 28 discriminator 1 view .LVU468
 1511 057c 401B     		subs	r0, r0, r5
 747:Drivers/STM32H7xx_HAL_Driver/Src/stm32h7xx_hal_rcc.c ****         {
 1512              		.loc 1 747 12 discriminator 1 view .LVU469
 1513 057e 41F28833 		movw	r3, #5000
 1514 0582 9842     		cmp	r0, r3
 1515 0584 F3D9     		bls	.L108
 749:Drivers/STM32H7xx_HAL_Driver/Src/stm32h7xx_hal_rcc.c ****         }
 1516              		.loc 1 749 18 view .LVU470
 1517 0586 0320     		movs	r0, #3
 1518 0588 1FE6     		b	.L36
 1519              	.LVL129:
 1520              	.L97:
 756:Drivers/STM32H7xx_HAL_Driver/Src/stm32h7xx_hal_rcc.c ****   if ((RCC_OscInitStruct->PLL.PLLState) != RCC_PLL_NONE)
 1521              		.loc 1 756 3 is_stmt 1 view .LVU471
 1522 058a 636A     		ldr	r3, [r4, #36]
 1523 058c 022B     		cmp	r3, #2
 1524 058e 4FD8     		bhi	.L189
 1525              	.L110:
 757:Drivers/STM32H7xx_HAL_Driver/Src/stm32h7xx_hal_rcc.c ****   {
 1526              		.loc 1 757 3 view .LVU472
 757:Drivers/STM32H7xx_HAL_Driver/Src/stm32h7xx_hal_rcc.c ****   {
 1527              		.loc 1 757 30 is_stmt 0 view .LVU473
 1528 0590 636A     		ldr	r3, [r4, #36]
 757:Drivers/STM32H7xx_HAL_Driver/Src/stm32h7xx_hal_rcc.c ****   {
 1529              		.loc 1 757 6 view .LVU474
 1530 0592 002B     		cmp	r3, #0
 1531 0594 00F05981 		beq	.L148
 760:Drivers/STM32H7xx_HAL_Driver/Src/stm32h7xx_hal_rcc.c ****     {
 1532              		.loc 1 760 5 is_stmt 1 view .LVU475
 760:Drivers/STM32H7xx_HAL_Driver/Src/stm32h7xx_hal_rcc.c ****     {
 1533              		.loc 1 760 9 is_stmt 0 view .LVU476
 1534 0598 7C4A     		ldr	r2, .L207
 1535 059a 1269     		ldr	r2, [r2, #16]
 1536 059c 02F03802 		and	r2, r2, #56
 760:Drivers/STM32H7xx_HAL_Driver/Src/stm32h7xx_hal_rcc.c ****     {
 1537              		.loc 1 760 8 view .LVU477
 1538 05a0 182A     		cmp	r2, #24
 1539 05a2 00F0F980 		beq	.L111
 762:Drivers/STM32H7xx_HAL_Driver/Src/stm32h7xx_hal_rcc.c ****       {
 1540              		.loc 1 762 7 is_stmt 1 view .LVU478
ARM GAS  /var/folders/g1/j12m_ky910s3_sv7d4yrsdn00000gn/T//ccmnBD4l.s 			page 49


 762:Drivers/STM32H7xx_HAL_Driver/Src/stm32h7xx_hal_rcc.c ****       {
 1541              		.loc 1 762 10 is_stmt 0 view .LVU479
 1542 05a6 022B     		cmp	r3, #2
 1543 05a8 40F0DA80 		bne	.L112
 765:Drivers/STM32H7xx_HAL_Driver/Src/stm32h7xx_hal_rcc.c ****         assert_param(IS_RCC_PLLRGE_VALUE(RCC_OscInitStruct->PLL.PLLRGE));
 1544              		.loc 1 765 9 is_stmt 1 view .LVU480
 1545 05ac A36A     		ldr	r3, [r4, #40]
 1546 05ae 032B     		cmp	r3, #3
 1547 05b0 18BF     		it	ne
 1548 05b2 012B     		cmpne	r3, #1
 1549 05b4 01D9     		bls	.L113
 765:Drivers/STM32H7xx_HAL_Driver/Src/stm32h7xx_hal_rcc.c ****         assert_param(IS_RCC_PLLRGE_VALUE(RCC_OscInitStruct->PLL.PLLRGE));
 1550              		.loc 1 765 9 is_stmt 0 discriminator 1 view .LVU481
 1551 05b6 022B     		cmp	r3, #2
 1552 05b8 40D1     		bne	.L190
 1553              	.L113:
 766:Drivers/STM32H7xx_HAL_Driver/Src/stm32h7xx_hal_rcc.c ****         assert_param(IS_RCC_PLLVCO_VALUE(RCC_OscInitStruct->PLL.PLLVCOSEL));
 1554              		.loc 1 766 9 is_stmt 1 view .LVU482
 1555 05ba 236C     		ldr	r3, [r4, #64]
 1556 05bc 002B     		cmp	r3, #0
 1557 05be 18BF     		it	ne
 1558 05c0 042B     		cmpne	r3, #4
 1559 05c2 03D0     		beq	.L114
 766:Drivers/STM32H7xx_HAL_Driver/Src/stm32h7xx_hal_rcc.c ****         assert_param(IS_RCC_PLLVCO_VALUE(RCC_OscInitStruct->PLL.PLLVCOSEL));
 1560              		.loc 1 766 9 is_stmt 0 discriminator 1 view .LVU483
 1561 05c4 082B     		cmp	r3, #8
 1562 05c6 01D0     		beq	.L114
 766:Drivers/STM32H7xx_HAL_Driver/Src/stm32h7xx_hal_rcc.c ****         assert_param(IS_RCC_PLLVCO_VALUE(RCC_OscInitStruct->PLL.PLLVCOSEL));
 1563              		.loc 1 766 9 discriminator 2 view .LVU484
 1564 05c8 0C2B     		cmp	r3, #12
 1565 05ca 3DD1     		bne	.L191
 1566              	.L114:
 767:Drivers/STM32H7xx_HAL_Driver/Src/stm32h7xx_hal_rcc.c ****         assert_param(IS_RCC_PLLM_VALUE(RCC_OscInitStruct->PLL.PLLM));
 1567              		.loc 1 767 9 is_stmt 1 view .LVU485
 1568 05cc 636C     		ldr	r3, [r4, #68]
 1569 05ce 002B     		cmp	r3, #0
 1570 05d0 18BF     		it	ne
 1571 05d2 022B     		cmpne	r3, #2
 1572 05d4 3ED1     		bne	.L192
 1573              	.L115:
 768:Drivers/STM32H7xx_HAL_Driver/Src/stm32h7xx_hal_rcc.c ****         assert_param(IS_RCC_PLLN_VALUE(RCC_OscInitStruct->PLL.PLLN));
 1574              		.loc 1 768 9 view .LVU486
 1575 05d6 E36A     		ldr	r3, [r4, #44]
 1576 05d8 013B     		subs	r3, r3, #1
 1577 05da 3E2B     		cmp	r3, #62
 1578 05dc 40D8     		bhi	.L193
 1579              	.L116:
 769:Drivers/STM32H7xx_HAL_Driver/Src/stm32h7xx_hal_rcc.c ****         assert_param(IS_RCC_PLLP_VALUE(RCC_OscInitStruct->PLL.PLLP));
 1580              		.loc 1 769 9 view .LVU487
 1581 05de 236B     		ldr	r3, [r4, #48]
 1582 05e0 043B     		subs	r3, r3, #4
 1583 05e2 B3F5FE7F 		cmp	r3, #508
 1584 05e6 41D8     		bhi	.L194
 1585              	.L117:
 770:Drivers/STM32H7xx_HAL_Driver/Src/stm32h7xx_hal_rcc.c ****         assert_param(IS_RCC_PLLQ_VALUE(RCC_OscInitStruct->PLL.PLLQ));
 1586              		.loc 1 770 9 view .LVU488
 1587 05e8 636B     		ldr	r3, [r4, #52]
ARM GAS  /var/folders/g1/j12m_ky910s3_sv7d4yrsdn00000gn/T//ccmnBD4l.s 			page 50


 1588 05ea 013B     		subs	r3, r3, #1
 1589 05ec 7F2B     		cmp	r3, #127
 1590 05ee 43D8     		bhi	.L195
 1591              	.L118:
 771:Drivers/STM32H7xx_HAL_Driver/Src/stm32h7xx_hal_rcc.c ****         assert_param(IS_RCC_PLLR_VALUE(RCC_OscInitStruct->PLL.PLLR));
 1592              		.loc 1 771 9 view .LVU489
 1593 05f0 A36B     		ldr	r3, [r4, #56]
 1594 05f2 013B     		subs	r3, r3, #1
 1595 05f4 7F2B     		cmp	r3, #127
 1596 05f6 45D8     		bhi	.L196
 1597              	.L119:
 772:Drivers/STM32H7xx_HAL_Driver/Src/stm32h7xx_hal_rcc.c ****         assert_param(IS_RCC_PLLFRACN_VALUE(RCC_OscInitStruct->PLL.PLLFRACN));
 1598              		.loc 1 772 9 view .LVU490
 1599 05f8 E36B     		ldr	r3, [r4, #60]
 1600 05fa 013B     		subs	r3, r3, #1
 1601 05fc 7F2B     		cmp	r3, #127
 1602 05fe 47D8     		bhi	.L197
 1603              	.L120:
 773:Drivers/STM32H7xx_HAL_Driver/Src/stm32h7xx_hal_rcc.c **** 
 1604              		.loc 1 773 9 view .LVU491
 1605 0600 A36C     		ldr	r3, [r4, #72]
 1606 0602 B3F5005F 		cmp	r3, #8192
 1607 0606 49D2     		bcs	.L198
 1608              	.L121:
 776:Drivers/STM32H7xx_HAL_Driver/Src/stm32h7xx_hal_rcc.c **** 
 1609              		.loc 1 776 9 view .LVU492
 1610 0608 604A     		ldr	r2, .L207
 1611 060a 1368     		ldr	r3, [r2]
 1612 060c 23F08073 		bic	r3, r3, #16777216
 1613 0610 1360     		str	r3, [r2]
 779:Drivers/STM32H7xx_HAL_Driver/Src/stm32h7xx_hal_rcc.c **** 
 1614              		.loc 1 779 9 view .LVU493
 779:Drivers/STM32H7xx_HAL_Driver/Src/stm32h7xx_hal_rcc.c **** 
 1615              		.loc 1 779 21 is_stmt 0 view .LVU494
 1616 0612 FFF7FEFF 		bl	HAL_GetTick
 1617              	.LVL130:
 1618 0616 0546     		mov	r5, r0
 1619              	.LVL131:
 782:Drivers/STM32H7xx_HAL_Driver/Src/stm32h7xx_hal_rcc.c ****         {
 1620              		.loc 1 782 9 is_stmt 1 view .LVU495
 1621              	.L122:
 782:Drivers/STM32H7xx_HAL_Driver/Src/stm32h7xx_hal_rcc.c ****         {
 1622              		.loc 1 782 52 view .LVU496
 782:Drivers/STM32H7xx_HAL_Driver/Src/stm32h7xx_hal_rcc.c ****         {
 1623              		.loc 1 782 16 is_stmt 0 view .LVU497
 1624 0618 5C4B     		ldr	r3, .L207
 1625 061a 1B68     		ldr	r3, [r3]
 782:Drivers/STM32H7xx_HAL_Driver/Src/stm32h7xx_hal_rcc.c ****         {
 1626              		.loc 1 782 52 view .LVU498
 1627 061c 13F0007F 		tst	r3, #33554432
 1628 0620 42D0     		beq	.L199
 784:Drivers/STM32H7xx_HAL_Driver/Src/stm32h7xx_hal_rcc.c ****           {
 1629              		.loc 1 784 11 is_stmt 1 view .LVU499
 784:Drivers/STM32H7xx_HAL_Driver/Src/stm32h7xx_hal_rcc.c ****           {
 1630              		.loc 1 784 16 is_stmt 0 view .LVU500
 1631 0622 FFF7FEFF 		bl	HAL_GetTick
 1632              	.LVL132:
ARM GAS  /var/folders/g1/j12m_ky910s3_sv7d4yrsdn00000gn/T//ccmnBD4l.s 			page 51


 784:Drivers/STM32H7xx_HAL_Driver/Src/stm32h7xx_hal_rcc.c ****           {
 1633              		.loc 1 784 30 discriminator 1 view .LVU501
 1634 0626 401B     		subs	r0, r0, r5
 784:Drivers/STM32H7xx_HAL_Driver/Src/stm32h7xx_hal_rcc.c ****           {
 1635              		.loc 1 784 14 discriminator 1 view .LVU502
 1636 0628 0228     		cmp	r0, #2
 1637 062a F5D9     		bls	.L122
 786:Drivers/STM32H7xx_HAL_Driver/Src/stm32h7xx_hal_rcc.c ****           }
 1638              		.loc 1 786 20 view .LVU503
 1639 062c 0320     		movs	r0, #3
 1640 062e CCE5     		b	.L36
 1641              	.LVL133:
 1642              	.L189:
 756:Drivers/STM32H7xx_HAL_Driver/Src/stm32h7xx_hal_rcc.c ****   if ((RCC_OscInitStruct->PLL.PLLState) != RCC_PLL_NONE)
 1643              		.loc 1 756 3 discriminator 1 view .LVU504
 1644 0630 4FF43D71 		mov	r1, #756
 1645 0634 5648     		ldr	r0, .L207+4
 1646 0636 FFF7FEFF 		bl	assert_failed
 1647              	.LVL134:
 1648 063a A9E7     		b	.L110
 1649              	.L190:
 765:Drivers/STM32H7xx_HAL_Driver/Src/stm32h7xx_hal_rcc.c ****         assert_param(IS_RCC_PLLRGE_VALUE(RCC_OscInitStruct->PLL.PLLRGE));
 1650              		.loc 1 765 9 discriminator 2 view .LVU505
 1651 063c 40F2FD21 		movw	r1, #765
 1652 0640 5348     		ldr	r0, .L207+4
 1653 0642 FFF7FEFF 		bl	assert_failed
 1654              	.LVL135:
 1655 0646 B8E7     		b	.L113
 1656              	.L191:
 766:Drivers/STM32H7xx_HAL_Driver/Src/stm32h7xx_hal_rcc.c ****         assert_param(IS_RCC_PLLVCO_VALUE(RCC_OscInitStruct->PLL.PLLVCOSEL));
 1657              		.loc 1 766 9 discriminator 3 view .LVU506
 1658 0648 40F2FE21 		movw	r1, #766
 1659 064c 5048     		ldr	r0, .L207+4
 1660 064e FFF7FEFF 		bl	assert_failed
 1661              	.LVL136:
 1662 0652 BBE7     		b	.L114
 1663              	.L192:
 767:Drivers/STM32H7xx_HAL_Driver/Src/stm32h7xx_hal_rcc.c ****         assert_param(IS_RCC_PLLM_VALUE(RCC_OscInitStruct->PLL.PLLM));
 1664              		.loc 1 767 9 discriminator 1 view .LVU507
 1665 0654 40F2FF21 		movw	r1, #767
 1666 0658 4D48     		ldr	r0, .L207+4
 1667 065a FFF7FEFF 		bl	assert_failed
 1668              	.LVL137:
 1669 065e BAE7     		b	.L115
 1670              	.L193:
 768:Drivers/STM32H7xx_HAL_Driver/Src/stm32h7xx_hal_rcc.c ****         assert_param(IS_RCC_PLLN_VALUE(RCC_OscInitStruct->PLL.PLLN));
 1671              		.loc 1 768 9 discriminator 1 view .LVU508
 1672 0660 4FF44071 		mov	r1, #768
 1673 0664 4A48     		ldr	r0, .L207+4
 1674 0666 FFF7FEFF 		bl	assert_failed
 1675              	.LVL138:
 1676 066a B8E7     		b	.L116
 1677              	.L194:
 769:Drivers/STM32H7xx_HAL_Driver/Src/stm32h7xx_hal_rcc.c ****         assert_param(IS_RCC_PLLP_VALUE(RCC_OscInitStruct->PLL.PLLP));
 1678              		.loc 1 769 9 discriminator 1 view .LVU509
 1679 066c 40F20131 		movw	r1, #769
 1680 0670 4748     		ldr	r0, .L207+4
ARM GAS  /var/folders/g1/j12m_ky910s3_sv7d4yrsdn00000gn/T//ccmnBD4l.s 			page 52


 1681 0672 FFF7FEFF 		bl	assert_failed
 1682              	.LVL139:
 1683 0676 B7E7     		b	.L117
 1684              	.L195:
 770:Drivers/STM32H7xx_HAL_Driver/Src/stm32h7xx_hal_rcc.c ****         assert_param(IS_RCC_PLLQ_VALUE(RCC_OscInitStruct->PLL.PLLQ));
 1685              		.loc 1 770 9 discriminator 1 view .LVU510
 1686 0678 40F20231 		movw	r1, #770
 1687 067c 4448     		ldr	r0, .L207+4
 1688 067e FFF7FEFF 		bl	assert_failed
 1689              	.LVL140:
 1690 0682 B5E7     		b	.L118
 1691              	.L196:
 771:Drivers/STM32H7xx_HAL_Driver/Src/stm32h7xx_hal_rcc.c ****         assert_param(IS_RCC_PLLR_VALUE(RCC_OscInitStruct->PLL.PLLR));
 1692              		.loc 1 771 9 discriminator 1 view .LVU511
 1693 0684 40F20331 		movw	r1, #771
 1694 0688 4148     		ldr	r0, .L207+4
 1695 068a FFF7FEFF 		bl	assert_failed
 1696              	.LVL141:
 1697 068e B3E7     		b	.L119
 1698              	.L197:
 772:Drivers/STM32H7xx_HAL_Driver/Src/stm32h7xx_hal_rcc.c ****         assert_param(IS_RCC_PLLFRACN_VALUE(RCC_OscInitStruct->PLL.PLLFRACN));
 1699              		.loc 1 772 9 discriminator 1 view .LVU512
 1700 0690 4FF44171 		mov	r1, #772
 1701 0694 3E48     		ldr	r0, .L207+4
 1702 0696 FFF7FEFF 		bl	assert_failed
 1703              	.LVL142:
 1704 069a B1E7     		b	.L120
 1705              	.L198:
 773:Drivers/STM32H7xx_HAL_Driver/Src/stm32h7xx_hal_rcc.c **** 
 1706              		.loc 1 773 9 discriminator 1 view .LVU513
 1707 069c 40F20531 		movw	r1, #773
 1708 06a0 3B48     		ldr	r0, .L207+4
 1709 06a2 FFF7FEFF 		bl	assert_failed
 1710              	.LVL143:
 1711 06a6 AFE7     		b	.L121
 1712              	.LVL144:
 1713              	.L199:
 791:Drivers/STM32H7xx_HAL_Driver/Src/stm32h7xx_hal_rcc.c ****                              RCC_OscInitStruct->PLL.PLLM,
 1714              		.loc 1 791 9 is_stmt 1 view .LVU514
 791:Drivers/STM32H7xx_HAL_Driver/Src/stm32h7xx_hal_rcc.c ****                              RCC_OscInitStruct->PLL.PLLM,
 1715              		.loc 1 791 9 view .LVU515
 1716 06a8 384B     		ldr	r3, .L207
 1717 06aa 996A     		ldr	r1, [r3, #40]
 1718 06ac 394A     		ldr	r2, .L207+8
 1719 06ae 0A40     		ands	r2, r2, r1
 1720 06b0 A16A     		ldr	r1, [r4, #40]
 1721 06b2 E06A     		ldr	r0, [r4, #44]
 1722 06b4 41EA0011 		orr	r1, r1, r0, lsl #4
 1723 06b8 0A43     		orrs	r2, r2, r1
 1724 06ba 9A62     		str	r2, [r3, #40]
 791:Drivers/STM32H7xx_HAL_Driver/Src/stm32h7xx_hal_rcc.c ****                              RCC_OscInitStruct->PLL.PLLM,
 1725              		.loc 1 791 9 view .LVU516
 1726 06bc 226B     		ldr	r2, [r4, #48]
 1727 06be 013A     		subs	r2, r2, #1
 1728 06c0 C2F30802 		ubfx	r2, r2, #0, #9
 1729 06c4 616B     		ldr	r1, [r4, #52]
 1730 06c6 0139     		subs	r1, r1, #1
ARM GAS  /var/folders/g1/j12m_ky910s3_sv7d4yrsdn00000gn/T//ccmnBD4l.s 			page 53


 1731 06c8 4902     		lsls	r1, r1, #9
 1732 06ca 89B2     		uxth	r1, r1
 1733 06cc 0A43     		orrs	r2, r2, r1
 1734 06ce A16B     		ldr	r1, [r4, #56]
 1735 06d0 0139     		subs	r1, r1, #1
 1736 06d2 0904     		lsls	r1, r1, #16
 1737 06d4 01F4FE01 		and	r1, r1, #8323072
 1738 06d8 0A43     		orrs	r2, r2, r1
 1739 06da E16B     		ldr	r1, [r4, #60]
 1740 06dc 0139     		subs	r1, r1, #1
 1741 06de 0906     		lsls	r1, r1, #24
 1742 06e0 01F0FE41 		and	r1, r1, #2130706432
 1743 06e4 0A43     		orrs	r2, r2, r1
 1744 06e6 1A63     		str	r2, [r3, #48]
 791:Drivers/STM32H7xx_HAL_Driver/Src/stm32h7xx_hal_rcc.c ****                              RCC_OscInitStruct->PLL.PLLM,
 1745              		.loc 1 791 9 view .LVU517
 799:Drivers/STM32H7xx_HAL_Driver/Src/stm32h7xx_hal_rcc.c **** 
 1746              		.loc 1 799 9 view .LVU518
 1747 06e8 DA6A     		ldr	r2, [r3, #44]
 1748 06ea 22F00102 		bic	r2, r2, #1
 1749 06ee DA62     		str	r2, [r3, #44]
 802:Drivers/STM32H7xx_HAL_Driver/Src/stm32h7xx_hal_rcc.c **** 
 1750              		.loc 1 802 9 view .LVU519
 1751 06f0 5A6B     		ldr	r2, [r3, #52]
 1752 06f2 6FF3CF02 		bfc	r2, #3, #13
 1753 06f6 A16C     		ldr	r1, [r4, #72]
 1754 06f8 42EAC102 		orr	r2, r2, r1, lsl #3
 1755 06fc 5A63     		str	r2, [r3, #52]
 805:Drivers/STM32H7xx_HAL_Driver/Src/stm32h7xx_hal_rcc.c **** 
 1756              		.loc 1 805 9 view .LVU520
 1757 06fe DA6A     		ldr	r2, [r3, #44]
 1758 0700 22F00C02 		bic	r2, r2, #12
 1759 0704 216C     		ldr	r1, [r4, #64]
 1760 0706 0A43     		orrs	r2, r2, r1
 1761 0708 DA62     		str	r2, [r3, #44]
 808:Drivers/STM32H7xx_HAL_Driver/Src/stm32h7xx_hal_rcc.c **** 
 1762              		.loc 1 808 9 view .LVU521
 1763 070a DA6A     		ldr	r2, [r3, #44]
 1764 070c 22F00202 		bic	r2, r2, #2
 1765 0710 616C     		ldr	r1, [r4, #68]
 1766 0712 0A43     		orrs	r2, r2, r1
 1767 0714 DA62     		str	r2, [r3, #44]
 811:Drivers/STM32H7xx_HAL_Driver/Src/stm32h7xx_hal_rcc.c **** 
 1768              		.loc 1 811 9 view .LVU522
 1769 0716 DA6A     		ldr	r2, [r3, #44]
 1770 0718 42F48032 		orr	r2, r2, #65536
 1771 071c DA62     		str	r2, [r3, #44]
 814:Drivers/STM32H7xx_HAL_Driver/Src/stm32h7xx_hal_rcc.c **** 
 1772              		.loc 1 814 9 view .LVU523
 1773 071e DA6A     		ldr	r2, [r3, #44]
 1774 0720 42F40032 		orr	r2, r2, #131072
 1775 0724 DA62     		str	r2, [r3, #44]
 817:Drivers/STM32H7xx_HAL_Driver/Src/stm32h7xx_hal_rcc.c **** 
 1776              		.loc 1 817 9 view .LVU524
 1777 0726 DA6A     		ldr	r2, [r3, #44]
 1778 0728 42F48022 		orr	r2, r2, #262144
 1779 072c DA62     		str	r2, [r3, #44]
ARM GAS  /var/folders/g1/j12m_ky910s3_sv7d4yrsdn00000gn/T//ccmnBD4l.s 			page 54


 820:Drivers/STM32H7xx_HAL_Driver/Src/stm32h7xx_hal_rcc.c **** 
 1780              		.loc 1 820 9 view .LVU525
 1781 072e DA6A     		ldr	r2, [r3, #44]
 1782 0730 42F00102 		orr	r2, r2, #1
 1783 0734 DA62     		str	r2, [r3, #44]
 823:Drivers/STM32H7xx_HAL_Driver/Src/stm32h7xx_hal_rcc.c **** 
 1784              		.loc 1 823 9 view .LVU526
 1785 0736 1A68     		ldr	r2, [r3]
 1786 0738 42F08072 		orr	r2, r2, #16777216
 1787 073c 1A60     		str	r2, [r3]
 826:Drivers/STM32H7xx_HAL_Driver/Src/stm32h7xx_hal_rcc.c **** 
 1788              		.loc 1 826 9 view .LVU527
 826:Drivers/STM32H7xx_HAL_Driver/Src/stm32h7xx_hal_rcc.c **** 
 1789              		.loc 1 826 21 is_stmt 0 view .LVU528
 1790 073e FFF7FEFF 		bl	HAL_GetTick
 1791              	.LVL145:
 1792 0742 0446     		mov	r4, r0
 1793              	.LVL146:
 829:Drivers/STM32H7xx_HAL_Driver/Src/stm32h7xx_hal_rcc.c ****         {
 1794              		.loc 1 829 9 is_stmt 1 view .LVU529
 1795              	.L124:
 829:Drivers/STM32H7xx_HAL_Driver/Src/stm32h7xx_hal_rcc.c ****         {
 1796              		.loc 1 829 52 view .LVU530
 829:Drivers/STM32H7xx_HAL_Driver/Src/stm32h7xx_hal_rcc.c ****         {
 1797              		.loc 1 829 16 is_stmt 0 view .LVU531
 1798 0744 114B     		ldr	r3, .L207
 1799 0746 1B68     		ldr	r3, [r3]
 829:Drivers/STM32H7xx_HAL_Driver/Src/stm32h7xx_hal_rcc.c ****         {
 1800              		.loc 1 829 52 view .LVU532
 1801 0748 13F0007F 		tst	r3, #33554432
 1802 074c 06D1     		bne	.L200
 831:Drivers/STM32H7xx_HAL_Driver/Src/stm32h7xx_hal_rcc.c ****           {
 1803              		.loc 1 831 11 is_stmt 1 view .LVU533
 831:Drivers/STM32H7xx_HAL_Driver/Src/stm32h7xx_hal_rcc.c ****           {
 1804              		.loc 1 831 16 is_stmt 0 view .LVU534
 1805 074e FFF7FEFF 		bl	HAL_GetTick
 1806              	.LVL147:
 831:Drivers/STM32H7xx_HAL_Driver/Src/stm32h7xx_hal_rcc.c ****           {
 1807              		.loc 1 831 30 discriminator 1 view .LVU535
 1808 0752 001B     		subs	r0, r0, r4
 831:Drivers/STM32H7xx_HAL_Driver/Src/stm32h7xx_hal_rcc.c ****           {
 1809              		.loc 1 831 14 discriminator 1 view .LVU536
 1810 0754 0228     		cmp	r0, #2
 1811 0756 F5D9     		bls	.L124
 833:Drivers/STM32H7xx_HAL_Driver/Src/stm32h7xx_hal_rcc.c ****           }
 1812              		.loc 1 833 20 view .LVU537
 1813 0758 0320     		movs	r0, #3
 1814 075a 36E5     		b	.L36
 1815              	.L200:
 893:Drivers/STM32H7xx_HAL_Driver/Src/stm32h7xx_hal_rcc.c **** }
 1816              		.loc 1 893 10 view .LVU538
 1817 075c 0020     		movs	r0, #0
 1818 075e 34E5     		b	.L36
 1819              	.LVL148:
 1820              	.L112:
 840:Drivers/STM32H7xx_HAL_Driver/Src/stm32h7xx_hal_rcc.c **** 
 1821              		.loc 1 840 9 is_stmt 1 view .LVU539
ARM GAS  /var/folders/g1/j12m_ky910s3_sv7d4yrsdn00000gn/T//ccmnBD4l.s 			page 55


 1822 0760 0A4A     		ldr	r2, .L207
 1823 0762 1368     		ldr	r3, [r2]
 1824 0764 23F08073 		bic	r3, r3, #16777216
 1825 0768 1360     		str	r3, [r2]
 843:Drivers/STM32H7xx_HAL_Driver/Src/stm32h7xx_hal_rcc.c **** 
 1826              		.loc 1 843 9 view .LVU540
 843:Drivers/STM32H7xx_HAL_Driver/Src/stm32h7xx_hal_rcc.c **** 
 1827              		.loc 1 843 21 is_stmt 0 view .LVU541
 1828 076a FFF7FEFF 		bl	HAL_GetTick
 1829              	.LVL149:
 1830 076e 0446     		mov	r4, r0
 1831              	.LVL150:
 846:Drivers/STM32H7xx_HAL_Driver/Src/stm32h7xx_hal_rcc.c ****         {
 1832              		.loc 1 846 9 is_stmt 1 view .LVU542
 1833              	.L126:
 846:Drivers/STM32H7xx_HAL_Driver/Src/stm32h7xx_hal_rcc.c ****         {
 1834              		.loc 1 846 52 view .LVU543
 846:Drivers/STM32H7xx_HAL_Driver/Src/stm32h7xx_hal_rcc.c ****         {
 1835              		.loc 1 846 16 is_stmt 0 view .LVU544
 1836 0770 064B     		ldr	r3, .L207
 1837 0772 1B68     		ldr	r3, [r3]
 846:Drivers/STM32H7xx_HAL_Driver/Src/stm32h7xx_hal_rcc.c ****         {
 1838              		.loc 1 846 52 view .LVU545
 1839 0774 13F0007F 		tst	r3, #33554432
 1840 0778 06D0     		beq	.L201
 848:Drivers/STM32H7xx_HAL_Driver/Src/stm32h7xx_hal_rcc.c ****           {
 1841              		.loc 1 848 11 is_stmt 1 view .LVU546
 848:Drivers/STM32H7xx_HAL_Driver/Src/stm32h7xx_hal_rcc.c ****           {
 1842              		.loc 1 848 16 is_stmt 0 view .LVU547
 1843 077a FFF7FEFF 		bl	HAL_GetTick
 1844              	.LVL151:
 848:Drivers/STM32H7xx_HAL_Driver/Src/stm32h7xx_hal_rcc.c ****           {
 1845              		.loc 1 848 30 discriminator 1 view .LVU548
 1846 077e 001B     		subs	r0, r0, r4
 848:Drivers/STM32H7xx_HAL_Driver/Src/stm32h7xx_hal_rcc.c ****           {
 1847              		.loc 1 848 14 discriminator 1 view .LVU549
 1848 0780 0228     		cmp	r0, #2
 1849 0782 F5D9     		bls	.L126
 850:Drivers/STM32H7xx_HAL_Driver/Src/stm32h7xx_hal_rcc.c ****           }
 1850              		.loc 1 850 20 view .LVU550
 1851 0784 0320     		movs	r0, #3
 1852 0786 20E5     		b	.L36
 1853              	.L201:
 893:Drivers/STM32H7xx_HAL_Driver/Src/stm32h7xx_hal_rcc.c **** }
 1854              		.loc 1 893 10 view .LVU551
 1855 0788 0020     		movs	r0, #0
 1856 078a 1EE5     		b	.L36
 1857              	.L208:
 1858              		.align	2
 1859              	.L207:
 1860 078c 00440258 		.word	1476543488
 1861 0790 00000000 		.word	.LC0
 1862 0794 0CFCFFFF 		.word	-1012
 1863              	.LVL152:
 1864              	.L111:
 858:Drivers/STM32H7xx_HAL_Driver/Src/stm32h7xx_hal_rcc.c ****       temp2_pllckcfg = RCC->PLL1DIVR;
 1865              		.loc 1 858 7 is_stmt 1 view .LVU552
ARM GAS  /var/folders/g1/j12m_ky910s3_sv7d4yrsdn00000gn/T//ccmnBD4l.s 			page 56


 858:Drivers/STM32H7xx_HAL_Driver/Src/stm32h7xx_hal_rcc.c ****       temp2_pllckcfg = RCC->PLL1DIVR;
 1866              		.loc 1 858 22 is_stmt 0 view .LVU553
 1867 0798 354A     		ldr	r2, .L209
 1868 079a 916A     		ldr	r1, [r2, #40]
 1869              	.LVL153:
 859:Drivers/STM32H7xx_HAL_Driver/Src/stm32h7xx_hal_rcc.c ****       if (((RCC_OscInitStruct->PLL.PLLState) == RCC_PLL_OFF) ||
 1870              		.loc 1 859 7 is_stmt 1 view .LVU554
 859:Drivers/STM32H7xx_HAL_Driver/Src/stm32h7xx_hal_rcc.c ****       if (((RCC_OscInitStruct->PLL.PLLState) == RCC_PLL_OFF) ||
 1871              		.loc 1 859 22 is_stmt 0 view .LVU555
 1872 079c 106B     		ldr	r0, [r2, #48]
 1873              	.LVL154:
 860:Drivers/STM32H7xx_HAL_Driver/Src/stm32h7xx_hal_rcc.c ****           (READ_BIT(temp1_pllckcfg, RCC_PLLCKSELR_PLLSRC) != RCC_OscInitStruct->PLL.PLLSource) ||
 1874              		.loc 1 860 7 is_stmt 1 view .LVU556
 860:Drivers/STM32H7xx_HAL_Driver/Src/stm32h7xx_hal_rcc.c ****           (READ_BIT(temp1_pllckcfg, RCC_PLLCKSELR_PLLSRC) != RCC_OscInitStruct->PLL.PLLSource) ||
 1875              		.loc 1 860 10 is_stmt 0 view .LVU557
 1876 079e 012B     		cmp	r3, #1
 1877 07a0 55D0     		beq	.L152
 861:Drivers/STM32H7xx_HAL_Driver/Src/stm32h7xx_hal_rcc.c ****           ((READ_BIT(temp1_pllckcfg, RCC_PLLCKSELR_DIVM1) >> RCC_PLLCKSELR_DIVM1_Pos) != RCC_OscIni
 1878              		.loc 1 861 12 view .LVU558
 1879 07a2 01F00303 		and	r3, r1, #3
 861:Drivers/STM32H7xx_HAL_Driver/Src/stm32h7xx_hal_rcc.c ****           ((READ_BIT(temp1_pllckcfg, RCC_PLLCKSELR_DIVM1) >> RCC_PLLCKSELR_DIVM1_Pos) != RCC_OscIni
 1880              		.loc 1 861 84 view .LVU559
 1881 07a6 A26A     		ldr	r2, [r4, #40]
 860:Drivers/STM32H7xx_HAL_Driver/Src/stm32h7xx_hal_rcc.c ****           (READ_BIT(temp1_pllckcfg, RCC_PLLCKSELR_PLLSRC) != RCC_OscInitStruct->PLL.PLLSource) ||
 1882              		.loc 1 860 62 discriminator 1 view .LVU560
 1883 07a8 9342     		cmp	r3, r2
 1884 07aa 52D1     		bne	.L153
 862:Drivers/STM32H7xx_HAL_Driver/Src/stm32h7xx_hal_rcc.c ****           (READ_BIT(temp2_pllckcfg, RCC_PLL1DIVR_N1) != (RCC_OscInitStruct->PLL.PLLN - 1U)) ||
 1885              		.loc 1 862 59 view .LVU561
 1886 07ac C1F30511 		ubfx	r1, r1, #4, #6
 1887              	.LVL155:
 862:Drivers/STM32H7xx_HAL_Driver/Src/stm32h7xx_hal_rcc.c ****           (READ_BIT(temp2_pllckcfg, RCC_PLL1DIVR_N1) != (RCC_OscInitStruct->PLL.PLLN - 1U)) ||
 1888              		.loc 1 862 112 view .LVU562
 1889 07b0 E36A     		ldr	r3, [r4, #44]
 861:Drivers/STM32H7xx_HAL_Driver/Src/stm32h7xx_hal_rcc.c ****           ((READ_BIT(temp1_pllckcfg, RCC_PLLCKSELR_DIVM1) >> RCC_PLLCKSELR_DIVM1_Pos) != RCC_OscIni
 1890              		.loc 1 861 96 view .LVU563
 1891 07b2 9942     		cmp	r1, r3
 1892 07b4 4FD1     		bne	.L154
 863:Drivers/STM32H7xx_HAL_Driver/Src/stm32h7xx_hal_rcc.c ****           ((READ_BIT(temp2_pllckcfg, RCC_PLL1DIVR_P1) >> RCC_PLL1DIVR_P1_Pos) != (RCC_OscInitStruct
 1893              		.loc 1 863 12 view .LVU564
 1894 07b6 C0F30802 		ubfx	r2, r0, #0, #9
 863:Drivers/STM32H7xx_HAL_Driver/Src/stm32h7xx_hal_rcc.c ****           ((READ_BIT(temp2_pllckcfg, RCC_PLL1DIVR_P1) >> RCC_PLL1DIVR_P1_Pos) != (RCC_OscInitStruct
 1895              		.loc 1 863 80 view .LVU565
 1896 07ba 236B     		ldr	r3, [r4, #48]
 863:Drivers/STM32H7xx_HAL_Driver/Src/stm32h7xx_hal_rcc.c ****           ((READ_BIT(temp2_pllckcfg, RCC_PLL1DIVR_P1) >> RCC_PLL1DIVR_P1_Pos) != (RCC_OscInitStruct
 1897              		.loc 1 863 86 view .LVU566
 1898 07bc 013B     		subs	r3, r3, #1
 862:Drivers/STM32H7xx_HAL_Driver/Src/stm32h7xx_hal_rcc.c ****           (READ_BIT(temp2_pllckcfg, RCC_PLL1DIVR_N1) != (RCC_OscInitStruct->PLL.PLLN - 1U)) ||
 1899              		.loc 1 862 119 view .LVU567
 1900 07be 9A42     		cmp	r2, r3
 1901 07c0 4BD1     		bne	.L155
 864:Drivers/STM32H7xx_HAL_Driver/Src/stm32h7xx_hal_rcc.c ****           ((READ_BIT(temp2_pllckcfg, RCC_PLL1DIVR_Q1) >> RCC_PLL1DIVR_Q1_Pos) != (RCC_OscInitStruct
 1902              		.loc 1 864 55 view .LVU568
 1903 07c2 C0F34622 		ubfx	r2, r0, #9, #7
 864:Drivers/STM32H7xx_HAL_Driver/Src/stm32h7xx_hal_rcc.c ****           ((READ_BIT(temp2_pllckcfg, RCC_PLL1DIVR_Q1) >> RCC_PLL1DIVR_Q1_Pos) != (RCC_OscInitStruct
 1904              		.loc 1 864 105 view .LVU569
 1905 07c6 636B     		ldr	r3, [r4, #52]
ARM GAS  /var/folders/g1/j12m_ky910s3_sv7d4yrsdn00000gn/T//ccmnBD4l.s 			page 57


 864:Drivers/STM32H7xx_HAL_Driver/Src/stm32h7xx_hal_rcc.c ****           ((READ_BIT(temp2_pllckcfg, RCC_PLL1DIVR_Q1) >> RCC_PLL1DIVR_Q1_Pos) != (RCC_OscInitStruct
 1906              		.loc 1 864 111 view .LVU570
 1907 07c8 013B     		subs	r3, r3, #1
 863:Drivers/STM32H7xx_HAL_Driver/Src/stm32h7xx_hal_rcc.c ****           ((READ_BIT(temp2_pllckcfg, RCC_PLL1DIVR_P1) >> RCC_PLL1DIVR_P1_Pos) != (RCC_OscInitStruct
 1908              		.loc 1 863 93 view .LVU571
 1909 07ca 9A42     		cmp	r2, r3
 1910 07cc 47D1     		bne	.L156
 865:Drivers/STM32H7xx_HAL_Driver/Src/stm32h7xx_hal_rcc.c ****           ((READ_BIT(temp2_pllckcfg, RCC_PLL1DIVR_R1) >> RCC_PLL1DIVR_R1_Pos) != (RCC_OscInitStruct
 1911              		.loc 1 865 55 view .LVU572
 1912 07ce C0F30642 		ubfx	r2, r0, #16, #7
 865:Drivers/STM32H7xx_HAL_Driver/Src/stm32h7xx_hal_rcc.c ****           ((READ_BIT(temp2_pllckcfg, RCC_PLL1DIVR_R1) >> RCC_PLL1DIVR_R1_Pos) != (RCC_OscInitStruct
 1913              		.loc 1 865 105 view .LVU573
 1914 07d2 A36B     		ldr	r3, [r4, #56]
 865:Drivers/STM32H7xx_HAL_Driver/Src/stm32h7xx_hal_rcc.c ****           ((READ_BIT(temp2_pllckcfg, RCC_PLL1DIVR_R1) >> RCC_PLL1DIVR_R1_Pos) != (RCC_OscInitStruct
 1915              		.loc 1 865 111 view .LVU574
 1916 07d4 013B     		subs	r3, r3, #1
 864:Drivers/STM32H7xx_HAL_Driver/Src/stm32h7xx_hal_rcc.c ****           ((READ_BIT(temp2_pllckcfg, RCC_PLL1DIVR_Q1) >> RCC_PLL1DIVR_Q1_Pos) != (RCC_OscInitStruct
 1917              		.loc 1 864 118 view .LVU575
 1918 07d6 9A42     		cmp	r2, r3
 1919 07d8 43D1     		bne	.L157
 866:Drivers/STM32H7xx_HAL_Driver/Src/stm32h7xx_hal_rcc.c ****       {
 1920              		.loc 1 866 55 view .LVU576
 1921 07da C0F30660 		ubfx	r0, r0, #24, #7
 1922              	.LVL156:
 866:Drivers/STM32H7xx_HAL_Driver/Src/stm32h7xx_hal_rcc.c ****       {
 1923              		.loc 1 866 105 view .LVU577
 1924 07de E36B     		ldr	r3, [r4, #60]
 866:Drivers/STM32H7xx_HAL_Driver/Src/stm32h7xx_hal_rcc.c ****       {
 1925              		.loc 1 866 111 view .LVU578
 1926 07e0 013B     		subs	r3, r3, #1
 865:Drivers/STM32H7xx_HAL_Driver/Src/stm32h7xx_hal_rcc.c ****           ((READ_BIT(temp2_pllckcfg, RCC_PLL1DIVR_R1) >> RCC_PLL1DIVR_R1_Pos) != (RCC_OscInitStruct
 1927              		.loc 1 865 118 view .LVU579
 1928 07e2 9842     		cmp	r0, r3
 1929 07e4 3FD1     		bne	.L158
 873:Drivers/STM32H7xx_HAL_Driver/Src/stm32h7xx_hal_rcc.c ****         if (RCC_OscInitStruct->PLL.PLLFRACN != temp1_pllckcfg)
 1930              		.loc 1 873 9 is_stmt 1 view .LVU580
 873:Drivers/STM32H7xx_HAL_Driver/Src/stm32h7xx_hal_rcc.c ****         if (RCC_OscInitStruct->PLL.PLLFRACN != temp1_pllckcfg)
 1931              		.loc 1 873 31 is_stmt 0 view .LVU581
 1932 07e6 224B     		ldr	r3, .L209
 1933 07e8 5B6B     		ldr	r3, [r3, #52]
 873:Drivers/STM32H7xx_HAL_Driver/Src/stm32h7xx_hal_rcc.c ****         if (RCC_OscInitStruct->PLL.PLLFRACN != temp1_pllckcfg)
 1934              		.loc 1 873 24 view .LVU582
 1935 07ea C3F3CC03 		ubfx	r3, r3, #3, #13
 1936              	.LVL157:
 874:Drivers/STM32H7xx_HAL_Driver/Src/stm32h7xx_hal_rcc.c ****         {
 1937              		.loc 1 874 9 is_stmt 1 view .LVU583
 874:Drivers/STM32H7xx_HAL_Driver/Src/stm32h7xx_hal_rcc.c ****         {
 1938              		.loc 1 874 35 is_stmt 0 view .LVU584
 1939 07ee A26C     		ldr	r2, [r4, #72]
 874:Drivers/STM32H7xx_HAL_Driver/Src/stm32h7xx_hal_rcc.c ****         {
 1940              		.loc 1 874 12 view .LVU585
 1941 07f0 9A42     		cmp	r2, r3
 1942 07f2 3AD0     		beq	.L159
 876:Drivers/STM32H7xx_HAL_Driver/Src/stm32h7xx_hal_rcc.c ****           /* Disable PLL1FRACEN */
 1943              		.loc 1 876 11 is_stmt 1 view .LVU586
 1944 07f4 B2F5005F 		cmp	r2, #8192
 1945 07f8 19D2     		bcs	.L202
ARM GAS  /var/folders/g1/j12m_ky910s3_sv7d4yrsdn00000gn/T//ccmnBD4l.s 			page 58


 1946              	.LVL158:
 1947              	.L128:
 878:Drivers/STM32H7xx_HAL_Driver/Src/stm32h7xx_hal_rcc.c ****           /* Get Start Tick*/
 1948              		.loc 1 878 11 view .LVU587
 1949 07fa 1D4A     		ldr	r2, .L209
 1950 07fc D36A     		ldr	r3, [r2, #44]
 1951 07fe 23F00103 		bic	r3, r3, #1
 1952 0802 D362     		str	r3, [r2, #44]
 880:Drivers/STM32H7xx_HAL_Driver/Src/stm32h7xx_hal_rcc.c ****           /* Wait at least 2 CK_REF (PLL input source divided by M) period to make sure next latche
 1953              		.loc 1 880 11 view .LVU588
 880:Drivers/STM32H7xx_HAL_Driver/Src/stm32h7xx_hal_rcc.c ****           /* Wait at least 2 CK_REF (PLL input source divided by M) period to make sure next latche
 1954              		.loc 1 880 23 is_stmt 0 view .LVU589
 1955 0804 FFF7FEFF 		bl	HAL_GetTick
 1956              	.LVL159:
 1957 0808 0546     		mov	r5, r0
 1958              	.LVL160:
 882:Drivers/STM32H7xx_HAL_Driver/Src/stm32h7xx_hal_rcc.c ****           {
 1959              		.loc 1 882 11 is_stmt 1 view .LVU590
 1960              	.L129:
 884:Drivers/STM32H7xx_HAL_Driver/Src/stm32h7xx_hal_rcc.c ****           /* Configure PLL1 PLL1FRACN */
 1961              		.loc 1 884 11 view .LVU591
 882:Drivers/STM32H7xx_HAL_Driver/Src/stm32h7xx_hal_rcc.c ****           {
 1962              		.loc 1 882 46 discriminator 1 view .LVU592
 882:Drivers/STM32H7xx_HAL_Driver/Src/stm32h7xx_hal_rcc.c ****           {
 1963              		.loc 1 882 19 is_stmt 0 discriminator 1 view .LVU593
 1964 080a FFF7FEFF 		bl	HAL_GetTick
 1965              	.LVL161:
 882:Drivers/STM32H7xx_HAL_Driver/Src/stm32h7xx_hal_rcc.c ****           {
 1966              		.loc 1 882 46 discriminator 1 view .LVU594
 1967 080e A842     		cmp	r0, r5
 1968 0810 FBD0     		beq	.L129
 886:Drivers/STM32H7xx_HAL_Driver/Src/stm32h7xx_hal_rcc.c ****           /* Enable PLL1FRACEN to latch new value. */
 1969              		.loc 1 886 11 is_stmt 1 view .LVU595
 1970 0812 174A     		ldr	r2, .L209
 1971 0814 536B     		ldr	r3, [r2, #52]
 1972 0816 6FF3CF03 		bfc	r3, #3, #13
 1973 081a A16C     		ldr	r1, [r4, #72]
 1974 081c 43EAC103 		orr	r3, r3, r1, lsl #3
 1975 0820 5363     		str	r3, [r2, #52]
 888:Drivers/STM32H7xx_HAL_Driver/Src/stm32h7xx_hal_rcc.c ****         }
 1976              		.loc 1 888 11 view .LVU596
 1977 0822 D36A     		ldr	r3, [r2, #44]
 1978 0824 43F00103 		orr	r3, r3, #1
 1979 0828 D362     		str	r3, [r2, #44]
 893:Drivers/STM32H7xx_HAL_Driver/Src/stm32h7xx_hal_rcc.c **** }
 1980              		.loc 1 893 10 is_stmt 0 view .LVU597
 1981 082a 0020     		movs	r0, #0
 1982 082c CDE4     		b	.L36
 1983              	.LVL162:
 1984              	.L202:
 876:Drivers/STM32H7xx_HAL_Driver/Src/stm32h7xx_hal_rcc.c ****           /* Disable PLL1FRACEN */
 1985              		.loc 1 876 11 discriminator 1 view .LVU598
 1986 082e 4FF45B71 		mov	r1, #876
 1987 0832 1048     		ldr	r0, .L209+4
 1988 0834 FFF7FEFF 		bl	assert_failed
 1989              	.LVL163:
 876:Drivers/STM32H7xx_HAL_Driver/Src/stm32h7xx_hal_rcc.c ****           /* Disable PLL1FRACEN */
ARM GAS  /var/folders/g1/j12m_ky910s3_sv7d4yrsdn00000gn/T//ccmnBD4l.s 			page 59


 1990              		.loc 1 876 11 discriminator 1 view .LVU599
 1991 0838 DFE7     		b	.L128
 1992              	.LVL164:
 1993              	.L130:
 1994              	.LCFI2:
 1995              		.cfi_def_cfa_offset 0
 1996              		.cfi_restore 3
 1997              		.cfi_restore 4
 1998              		.cfi_restore 5
 1999              		.cfi_restore 14
 413:Drivers/STM32H7xx_HAL_Driver/Src/stm32h7xx_hal_rcc.c ****   }
 2000              		.loc 1 413 12 view .LVU600
 2001 083a 0120     		movs	r0, #1
 2002              	.LVL165:
 2003              		.loc 1 894 1 view .LVU601
 2004 083c 7047     		bx	lr
 2005              	.LVL166:
 2006              	.L168:
 2007              	.LCFI3:
 2008              		.cfi_def_cfa_offset 16
 2009              		.cfi_offset 3, -16
 2010              		.cfi_offset 4, -12
 2011              		.cfi_offset 5, -8
 2012              		.cfi_offset 14, -4
 2013              	.LBB12:
 431:Drivers/STM32H7xx_HAL_Driver/Src/stm32h7xx_hal_rcc.c ****       }
 2014              		.loc 1 431 16 view .LVU602
 2015 083e 0120     		movs	r0, #1
 2016 0840 C3E4     		b	.L36
 2017              	.LVL167:
 2018              	.L134:
 431:Drivers/STM32H7xx_HAL_Driver/Src/stm32h7xx_hal_rcc.c ****       }
 2019              		.loc 1 431 16 view .LVU603
 2020              	.LBE12:
 2021              	.LBB13:
 485:Drivers/STM32H7xx_HAL_Driver/Src/stm32h7xx_hal_rcc.c ****       }
 2022              		.loc 1 485 16 view .LVU604
 2023 0842 0120     		movs	r0, #1
 2024 0844 C1E4     		b	.L36
 2025              	.LVL168:
 2026              	.L138:
 485:Drivers/STM32H7xx_HAL_Driver/Src/stm32h7xx_hal_rcc.c ****       }
 2027              		.loc 1 485 16 view .LVU605
 2028              	.LBE13:
 2029              	.LBB14:
 566:Drivers/STM32H7xx_HAL_Driver/Src/stm32h7xx_hal_rcc.c ****       }
 2030              		.loc 1 566 16 view .LVU606
 2031 0846 0120     		movs	r0, #1
 2032 0848 BFE4     		b	.L36
 2033              	.LVL169:
 2034              	.L148:
 566:Drivers/STM32H7xx_HAL_Driver/Src/stm32h7xx_hal_rcc.c ****       }
 2035              		.loc 1 566 16 view .LVU607
 2036              	.LBE14:
 893:Drivers/STM32H7xx_HAL_Driver/Src/stm32h7xx_hal_rcc.c **** }
 2037              		.loc 1 893 10 view .LVU608
 2038 084a 0020     		movs	r0, #0
ARM GAS  /var/folders/g1/j12m_ky910s3_sv7d4yrsdn00000gn/T//ccmnBD4l.s 			page 60


 2039 084c BDE4     		b	.L36
 2040              	.LVL170:
 2041              	.L152:
 868:Drivers/STM32H7xx_HAL_Driver/Src/stm32h7xx_hal_rcc.c ****       }
 2042              		.loc 1 868 16 view .LVU609
 2043 084e 0120     		movs	r0, #1
 2044              	.LVL171:
 868:Drivers/STM32H7xx_HAL_Driver/Src/stm32h7xx_hal_rcc.c ****       }
 2045              		.loc 1 868 16 view .LVU610
 2046 0850 BBE4     		b	.L36
 2047              	.LVL172:
 2048              	.L153:
 868:Drivers/STM32H7xx_HAL_Driver/Src/stm32h7xx_hal_rcc.c ****       }
 2049              		.loc 1 868 16 view .LVU611
 2050 0852 0120     		movs	r0, #1
 2051              	.LVL173:
 868:Drivers/STM32H7xx_HAL_Driver/Src/stm32h7xx_hal_rcc.c ****       }
 2052              		.loc 1 868 16 view .LVU612
 2053 0854 B9E4     		b	.L36
 2054              	.LVL174:
 2055              	.L154:
 868:Drivers/STM32H7xx_HAL_Driver/Src/stm32h7xx_hal_rcc.c ****       }
 2056              		.loc 1 868 16 view .LVU613
 2057 0856 0120     		movs	r0, #1
 2058              	.LVL175:
 868:Drivers/STM32H7xx_HAL_Driver/Src/stm32h7xx_hal_rcc.c ****       }
 2059              		.loc 1 868 16 view .LVU614
 2060 0858 B7E4     		b	.L36
 2061              	.LVL176:
 2062              	.L155:
 868:Drivers/STM32H7xx_HAL_Driver/Src/stm32h7xx_hal_rcc.c ****       }
 2063              		.loc 1 868 16 view .LVU615
 2064 085a 0120     		movs	r0, #1
 2065              	.LVL177:
 868:Drivers/STM32H7xx_HAL_Driver/Src/stm32h7xx_hal_rcc.c ****       }
 2066              		.loc 1 868 16 view .LVU616
 2067 085c B5E4     		b	.L36
 2068              	.LVL178:
 2069              	.L156:
 868:Drivers/STM32H7xx_HAL_Driver/Src/stm32h7xx_hal_rcc.c ****       }
 2070              		.loc 1 868 16 view .LVU617
 2071 085e 0120     		movs	r0, #1
 2072              	.LVL179:
 868:Drivers/STM32H7xx_HAL_Driver/Src/stm32h7xx_hal_rcc.c ****       }
 2073              		.loc 1 868 16 view .LVU618
 2074 0860 B3E4     		b	.L36
 2075              	.LVL180:
 2076              	.L157:
 868:Drivers/STM32H7xx_HAL_Driver/Src/stm32h7xx_hal_rcc.c ****       }
 2077              		.loc 1 868 16 view .LVU619
 2078 0862 0120     		movs	r0, #1
 2079              	.LVL181:
 868:Drivers/STM32H7xx_HAL_Driver/Src/stm32h7xx_hal_rcc.c ****       }
 2080              		.loc 1 868 16 view .LVU620
 2081 0864 B1E4     		b	.L36
 2082              	.L158:
 2083 0866 0120     		movs	r0, #1
ARM GAS  /var/folders/g1/j12m_ky910s3_sv7d4yrsdn00000gn/T//ccmnBD4l.s 			page 61


 2084 0868 AFE4     		b	.L36
 2085              	.LVL182:
 2086              	.L159:
 893:Drivers/STM32H7xx_HAL_Driver/Src/stm32h7xx_hal_rcc.c **** }
 2087              		.loc 1 893 10 view .LVU621
 2088 086a 0020     		movs	r0, #0
 2089 086c ADE4     		b	.L36
 2090              	.L210:
 2091 086e 00BF     		.align	2
 2092              	.L209:
 2093 0870 00440258 		.word	1476543488
 2094 0874 00000000 		.word	.LC0
 2095              		.cfi_endproc
 2096              	.LFE145:
 2098              		.section	.text.HAL_RCC_MCOConfig,"ax",%progbits
 2099              		.align	1
 2100              		.global	HAL_RCC_MCOConfig
 2101              		.syntax unified
 2102              		.thumb
 2103              		.thumb_func
 2105              	HAL_RCC_MCOConfig:
 2106              	.LVL183:
 2107              	.LFB147:
 895:Drivers/STM32H7xx_HAL_Driver/Src/stm32h7xx_hal_rcc.c **** 
 896:Drivers/STM32H7xx_HAL_Driver/Src/stm32h7xx_hal_rcc.c **** /**
 897:Drivers/STM32H7xx_HAL_Driver/Src/stm32h7xx_hal_rcc.c ****   * @brief  Initializes the CPU, AHB and APB buses clocks according to the specified
 898:Drivers/STM32H7xx_HAL_Driver/Src/stm32h7xx_hal_rcc.c ****   *         parameters in the RCC_ClkInitStruct.
 899:Drivers/STM32H7xx_HAL_Driver/Src/stm32h7xx_hal_rcc.c ****   * @param  RCC_ClkInitStruct: pointer to an RCC_OscInitTypeDef structure that
 900:Drivers/STM32H7xx_HAL_Driver/Src/stm32h7xx_hal_rcc.c ****   *         contains the configuration information for the RCC peripheral.
 901:Drivers/STM32H7xx_HAL_Driver/Src/stm32h7xx_hal_rcc.c ****   * @param  FLatency: FLASH Latency, this parameter depend on device selected
 902:Drivers/STM32H7xx_HAL_Driver/Src/stm32h7xx_hal_rcc.c ****   *
 903:Drivers/STM32H7xx_HAL_Driver/Src/stm32h7xx_hal_rcc.c ****   * @note   The SystemCoreClock CMSIS variable is used to store System Core Clock Frequency
 904:Drivers/STM32H7xx_HAL_Driver/Src/stm32h7xx_hal_rcc.c ****   *         and updated by HAL_InitTick() function called within this function
 905:Drivers/STM32H7xx_HAL_Driver/Src/stm32h7xx_hal_rcc.c ****   *
 906:Drivers/STM32H7xx_HAL_Driver/Src/stm32h7xx_hal_rcc.c ****   * @note   The HSI is used (enabled by hardware) as system clock source after
 907:Drivers/STM32H7xx_HAL_Driver/Src/stm32h7xx_hal_rcc.c ****   *         start-up from Reset, wake-up from STOP and STANDBY mode, or in case
 908:Drivers/STM32H7xx_HAL_Driver/Src/stm32h7xx_hal_rcc.c ****   *         of failure of the HSE used directly or indirectly as system clock
 909:Drivers/STM32H7xx_HAL_Driver/Src/stm32h7xx_hal_rcc.c ****   *         (if the Clock Security System CSS is enabled).
 910:Drivers/STM32H7xx_HAL_Driver/Src/stm32h7xx_hal_rcc.c ****   *
 911:Drivers/STM32H7xx_HAL_Driver/Src/stm32h7xx_hal_rcc.c ****   * @note   A switch from one clock source to another occurs only if the target
 912:Drivers/STM32H7xx_HAL_Driver/Src/stm32h7xx_hal_rcc.c ****   *         clock source is ready (clock stable after start-up delay or PLL locked).
 913:Drivers/STM32H7xx_HAL_Driver/Src/stm32h7xx_hal_rcc.c ****   *         If a clock source which is not yet ready is selected, the switch will
 914:Drivers/STM32H7xx_HAL_Driver/Src/stm32h7xx_hal_rcc.c ****   *         occur when the clock source will be ready.
 915:Drivers/STM32H7xx_HAL_Driver/Src/stm32h7xx_hal_rcc.c ****   *         You can use HAL_RCC_GetClockConfig() function to know which clock is
 916:Drivers/STM32H7xx_HAL_Driver/Src/stm32h7xx_hal_rcc.c ****   *         currently used as system clock source.
 917:Drivers/STM32H7xx_HAL_Driver/Src/stm32h7xx_hal_rcc.c ****   * @note   Depending on the device voltage range, the software has to set correctly
 918:Drivers/STM32H7xx_HAL_Driver/Src/stm32h7xx_hal_rcc.c ****   *         D1CPRE[3:0] bits to ensure that  Domain1 core clock not exceed the maximum allowed freq
 919:Drivers/STM32H7xx_HAL_Driver/Src/stm32h7xx_hal_rcc.c ****   *         (for more details refer to section above "Initialization/de-initialization functions")
 920:Drivers/STM32H7xx_HAL_Driver/Src/stm32h7xx_hal_rcc.c ****   * @retval None
 921:Drivers/STM32H7xx_HAL_Driver/Src/stm32h7xx_hal_rcc.c ****   */
 922:Drivers/STM32H7xx_HAL_Driver/Src/stm32h7xx_hal_rcc.c **** HAL_StatusTypeDef HAL_RCC_ClockConfig(const RCC_ClkInitTypeDef  *RCC_ClkInitStruct, uint32_t FLaten
 923:Drivers/STM32H7xx_HAL_Driver/Src/stm32h7xx_hal_rcc.c **** {
 924:Drivers/STM32H7xx_HAL_Driver/Src/stm32h7xx_hal_rcc.c ****   HAL_StatusTypeDef halstatus;
 925:Drivers/STM32H7xx_HAL_Driver/Src/stm32h7xx_hal_rcc.c ****   uint32_t tickstart;
 926:Drivers/STM32H7xx_HAL_Driver/Src/stm32h7xx_hal_rcc.c ****   uint32_t common_system_clock;
 927:Drivers/STM32H7xx_HAL_Driver/Src/stm32h7xx_hal_rcc.c **** 
 928:Drivers/STM32H7xx_HAL_Driver/Src/stm32h7xx_hal_rcc.c ****   /* Check Null pointer */
ARM GAS  /var/folders/g1/j12m_ky910s3_sv7d4yrsdn00000gn/T//ccmnBD4l.s 			page 62


 929:Drivers/STM32H7xx_HAL_Driver/Src/stm32h7xx_hal_rcc.c ****   if (RCC_ClkInitStruct == NULL)
 930:Drivers/STM32H7xx_HAL_Driver/Src/stm32h7xx_hal_rcc.c ****   {
 931:Drivers/STM32H7xx_HAL_Driver/Src/stm32h7xx_hal_rcc.c ****     return HAL_ERROR;
 932:Drivers/STM32H7xx_HAL_Driver/Src/stm32h7xx_hal_rcc.c ****   }
 933:Drivers/STM32H7xx_HAL_Driver/Src/stm32h7xx_hal_rcc.c **** 
 934:Drivers/STM32H7xx_HAL_Driver/Src/stm32h7xx_hal_rcc.c ****   /* Check the parameters */
 935:Drivers/STM32H7xx_HAL_Driver/Src/stm32h7xx_hal_rcc.c ****   assert_param(IS_RCC_CLOCKTYPE(RCC_ClkInitStruct->ClockType));
 936:Drivers/STM32H7xx_HAL_Driver/Src/stm32h7xx_hal_rcc.c ****   assert_param(IS_FLASH_LATENCY(FLatency));
 937:Drivers/STM32H7xx_HAL_Driver/Src/stm32h7xx_hal_rcc.c **** 
 938:Drivers/STM32H7xx_HAL_Driver/Src/stm32h7xx_hal_rcc.c ****   /* To correctly read data from FLASH memory, the number of wait states (LATENCY)
 939:Drivers/STM32H7xx_HAL_Driver/Src/stm32h7xx_hal_rcc.c ****     must be correctly programmed according to the frequency of the CPU clock
 940:Drivers/STM32H7xx_HAL_Driver/Src/stm32h7xx_hal_rcc.c ****     (HCLK) and the supply voltage of the device. */
 941:Drivers/STM32H7xx_HAL_Driver/Src/stm32h7xx_hal_rcc.c **** 
 942:Drivers/STM32H7xx_HAL_Driver/Src/stm32h7xx_hal_rcc.c ****   /* Increasing the CPU frequency */
 943:Drivers/STM32H7xx_HAL_Driver/Src/stm32h7xx_hal_rcc.c ****   if (FLatency > __HAL_FLASH_GET_LATENCY())
 944:Drivers/STM32H7xx_HAL_Driver/Src/stm32h7xx_hal_rcc.c ****   {
 945:Drivers/STM32H7xx_HAL_Driver/Src/stm32h7xx_hal_rcc.c ****     /* Program the new number of wait states to the LATENCY bits in the FLASH_ACR register */
 946:Drivers/STM32H7xx_HAL_Driver/Src/stm32h7xx_hal_rcc.c ****     __HAL_FLASH_SET_LATENCY(FLatency);
 947:Drivers/STM32H7xx_HAL_Driver/Src/stm32h7xx_hal_rcc.c **** 
 948:Drivers/STM32H7xx_HAL_Driver/Src/stm32h7xx_hal_rcc.c ****     /* Check that the new number of wait states is taken into account to access the Flash
 949:Drivers/STM32H7xx_HAL_Driver/Src/stm32h7xx_hal_rcc.c ****     memory by reading the FLASH_ACR register */
 950:Drivers/STM32H7xx_HAL_Driver/Src/stm32h7xx_hal_rcc.c ****     if (__HAL_FLASH_GET_LATENCY() != FLatency)
 951:Drivers/STM32H7xx_HAL_Driver/Src/stm32h7xx_hal_rcc.c ****     {
 952:Drivers/STM32H7xx_HAL_Driver/Src/stm32h7xx_hal_rcc.c ****       return HAL_ERROR;
 953:Drivers/STM32H7xx_HAL_Driver/Src/stm32h7xx_hal_rcc.c ****     }
 954:Drivers/STM32H7xx_HAL_Driver/Src/stm32h7xx_hal_rcc.c **** 
 955:Drivers/STM32H7xx_HAL_Driver/Src/stm32h7xx_hal_rcc.c ****   }
 956:Drivers/STM32H7xx_HAL_Driver/Src/stm32h7xx_hal_rcc.c **** 
 957:Drivers/STM32H7xx_HAL_Driver/Src/stm32h7xx_hal_rcc.c ****   /* Increasing the BUS frequency divider */
 958:Drivers/STM32H7xx_HAL_Driver/Src/stm32h7xx_hal_rcc.c ****   /*-------------------------- D1PCLK1/CDPCLK1 Configuration ---------------------------*/
 959:Drivers/STM32H7xx_HAL_Driver/Src/stm32h7xx_hal_rcc.c ****   if (((RCC_ClkInitStruct->ClockType) & RCC_CLOCKTYPE_D1PCLK1) == RCC_CLOCKTYPE_D1PCLK1)
 960:Drivers/STM32H7xx_HAL_Driver/Src/stm32h7xx_hal_rcc.c ****   {
 961:Drivers/STM32H7xx_HAL_Driver/Src/stm32h7xx_hal_rcc.c **** #if defined (RCC_D1CFGR_D1PPRE)
 962:Drivers/STM32H7xx_HAL_Driver/Src/stm32h7xx_hal_rcc.c ****     if ((RCC_ClkInitStruct->APB3CLKDivider) > (RCC->D1CFGR & RCC_D1CFGR_D1PPRE))
 963:Drivers/STM32H7xx_HAL_Driver/Src/stm32h7xx_hal_rcc.c ****     {
 964:Drivers/STM32H7xx_HAL_Driver/Src/stm32h7xx_hal_rcc.c ****       assert_param(IS_RCC_D1PCLK1(RCC_ClkInitStruct->APB3CLKDivider));
 965:Drivers/STM32H7xx_HAL_Driver/Src/stm32h7xx_hal_rcc.c ****       MODIFY_REG(RCC->D1CFGR, RCC_D1CFGR_D1PPRE, RCC_ClkInitStruct->APB3CLKDivider);
 966:Drivers/STM32H7xx_HAL_Driver/Src/stm32h7xx_hal_rcc.c ****     }
 967:Drivers/STM32H7xx_HAL_Driver/Src/stm32h7xx_hal_rcc.c **** #else
 968:Drivers/STM32H7xx_HAL_Driver/Src/stm32h7xx_hal_rcc.c ****     if ((RCC_ClkInitStruct->APB3CLKDivider) > (RCC->CDCFGR1 & RCC_CDCFGR1_CDPPRE))
 969:Drivers/STM32H7xx_HAL_Driver/Src/stm32h7xx_hal_rcc.c ****     {
 970:Drivers/STM32H7xx_HAL_Driver/Src/stm32h7xx_hal_rcc.c ****       assert_param(IS_RCC_CDPCLK1(RCC_ClkInitStruct->APB3CLKDivider));
 971:Drivers/STM32H7xx_HAL_Driver/Src/stm32h7xx_hal_rcc.c ****       MODIFY_REG(RCC->CDCFGR1, RCC_CDCFGR1_CDPPRE, RCC_ClkInitStruct->APB3CLKDivider);
 972:Drivers/STM32H7xx_HAL_Driver/Src/stm32h7xx_hal_rcc.c ****     }
 973:Drivers/STM32H7xx_HAL_Driver/Src/stm32h7xx_hal_rcc.c **** #endif
 974:Drivers/STM32H7xx_HAL_Driver/Src/stm32h7xx_hal_rcc.c ****   }
 975:Drivers/STM32H7xx_HAL_Driver/Src/stm32h7xx_hal_rcc.c **** 
 976:Drivers/STM32H7xx_HAL_Driver/Src/stm32h7xx_hal_rcc.c ****   /*-------------------------- PCLK1 Configuration ---------------------------*/
 977:Drivers/STM32H7xx_HAL_Driver/Src/stm32h7xx_hal_rcc.c ****   if (((RCC_ClkInitStruct->ClockType) & RCC_CLOCKTYPE_PCLK1) == RCC_CLOCKTYPE_PCLK1)
 978:Drivers/STM32H7xx_HAL_Driver/Src/stm32h7xx_hal_rcc.c ****   {
 979:Drivers/STM32H7xx_HAL_Driver/Src/stm32h7xx_hal_rcc.c **** #if defined (RCC_D2CFGR_D2PPRE1)
 980:Drivers/STM32H7xx_HAL_Driver/Src/stm32h7xx_hal_rcc.c ****     if ((RCC_ClkInitStruct->APB1CLKDivider) > (RCC->D2CFGR & RCC_D2CFGR_D2PPRE1))
 981:Drivers/STM32H7xx_HAL_Driver/Src/stm32h7xx_hal_rcc.c ****     {
 982:Drivers/STM32H7xx_HAL_Driver/Src/stm32h7xx_hal_rcc.c ****       assert_param(IS_RCC_PCLK1(RCC_ClkInitStruct->APB1CLKDivider));
 983:Drivers/STM32H7xx_HAL_Driver/Src/stm32h7xx_hal_rcc.c ****       MODIFY_REG(RCC->D2CFGR, RCC_D2CFGR_D2PPRE1, (RCC_ClkInitStruct->APB1CLKDivider));
 984:Drivers/STM32H7xx_HAL_Driver/Src/stm32h7xx_hal_rcc.c ****     }
 985:Drivers/STM32H7xx_HAL_Driver/Src/stm32h7xx_hal_rcc.c **** #else
ARM GAS  /var/folders/g1/j12m_ky910s3_sv7d4yrsdn00000gn/T//ccmnBD4l.s 			page 63


 986:Drivers/STM32H7xx_HAL_Driver/Src/stm32h7xx_hal_rcc.c ****     if ((RCC_ClkInitStruct->APB1CLKDivider) > (RCC->CDCFGR2 & RCC_CDCFGR2_CDPPRE1))
 987:Drivers/STM32H7xx_HAL_Driver/Src/stm32h7xx_hal_rcc.c ****     {
 988:Drivers/STM32H7xx_HAL_Driver/Src/stm32h7xx_hal_rcc.c ****       assert_param(IS_RCC_PCLK1(RCC_ClkInitStruct->APB1CLKDivider));
 989:Drivers/STM32H7xx_HAL_Driver/Src/stm32h7xx_hal_rcc.c ****       MODIFY_REG(RCC->CDCFGR2, RCC_CDCFGR2_CDPPRE1, (RCC_ClkInitStruct->APB1CLKDivider));
 990:Drivers/STM32H7xx_HAL_Driver/Src/stm32h7xx_hal_rcc.c ****     }
 991:Drivers/STM32H7xx_HAL_Driver/Src/stm32h7xx_hal_rcc.c **** #endif
 992:Drivers/STM32H7xx_HAL_Driver/Src/stm32h7xx_hal_rcc.c ****   }
 993:Drivers/STM32H7xx_HAL_Driver/Src/stm32h7xx_hal_rcc.c ****   /*-------------------------- PCLK2 Configuration ---------------------------*/
 994:Drivers/STM32H7xx_HAL_Driver/Src/stm32h7xx_hal_rcc.c ****   if (((RCC_ClkInitStruct->ClockType) & RCC_CLOCKTYPE_PCLK2) == RCC_CLOCKTYPE_PCLK2)
 995:Drivers/STM32H7xx_HAL_Driver/Src/stm32h7xx_hal_rcc.c ****   {
 996:Drivers/STM32H7xx_HAL_Driver/Src/stm32h7xx_hal_rcc.c **** #if defined(RCC_D2CFGR_D2PPRE2)
 997:Drivers/STM32H7xx_HAL_Driver/Src/stm32h7xx_hal_rcc.c ****     if ((RCC_ClkInitStruct->APB2CLKDivider) > (RCC->D2CFGR & RCC_D2CFGR_D2PPRE2))
 998:Drivers/STM32H7xx_HAL_Driver/Src/stm32h7xx_hal_rcc.c ****     {
 999:Drivers/STM32H7xx_HAL_Driver/Src/stm32h7xx_hal_rcc.c ****       assert_param(IS_RCC_PCLK2(RCC_ClkInitStruct->APB2CLKDivider));
1000:Drivers/STM32H7xx_HAL_Driver/Src/stm32h7xx_hal_rcc.c ****       MODIFY_REG(RCC->D2CFGR, RCC_D2CFGR_D2PPRE2, (RCC_ClkInitStruct->APB2CLKDivider));
1001:Drivers/STM32H7xx_HAL_Driver/Src/stm32h7xx_hal_rcc.c ****     }
1002:Drivers/STM32H7xx_HAL_Driver/Src/stm32h7xx_hal_rcc.c **** #else
1003:Drivers/STM32H7xx_HAL_Driver/Src/stm32h7xx_hal_rcc.c ****     if ((RCC_ClkInitStruct->APB2CLKDivider) > (RCC->CDCFGR2 & RCC_CDCFGR2_CDPPRE2))
1004:Drivers/STM32H7xx_HAL_Driver/Src/stm32h7xx_hal_rcc.c ****     {
1005:Drivers/STM32H7xx_HAL_Driver/Src/stm32h7xx_hal_rcc.c ****       assert_param(IS_RCC_PCLK2(RCC_ClkInitStruct->APB2CLKDivider));
1006:Drivers/STM32H7xx_HAL_Driver/Src/stm32h7xx_hal_rcc.c ****       MODIFY_REG(RCC->CDCFGR2, RCC_CDCFGR2_CDPPRE2, (RCC_ClkInitStruct->APB2CLKDivider));
1007:Drivers/STM32H7xx_HAL_Driver/Src/stm32h7xx_hal_rcc.c ****     }
1008:Drivers/STM32H7xx_HAL_Driver/Src/stm32h7xx_hal_rcc.c **** #endif
1009:Drivers/STM32H7xx_HAL_Driver/Src/stm32h7xx_hal_rcc.c ****   }
1010:Drivers/STM32H7xx_HAL_Driver/Src/stm32h7xx_hal_rcc.c **** 
1011:Drivers/STM32H7xx_HAL_Driver/Src/stm32h7xx_hal_rcc.c ****   /*-------------------------- D3PCLK1 Configuration ---------------------------*/
1012:Drivers/STM32H7xx_HAL_Driver/Src/stm32h7xx_hal_rcc.c ****   if (((RCC_ClkInitStruct->ClockType) & RCC_CLOCKTYPE_D3PCLK1) == RCC_CLOCKTYPE_D3PCLK1)
1013:Drivers/STM32H7xx_HAL_Driver/Src/stm32h7xx_hal_rcc.c ****   {
1014:Drivers/STM32H7xx_HAL_Driver/Src/stm32h7xx_hal_rcc.c **** #if defined(RCC_D3CFGR_D3PPRE)
1015:Drivers/STM32H7xx_HAL_Driver/Src/stm32h7xx_hal_rcc.c ****     if ((RCC_ClkInitStruct->APB4CLKDivider) > (RCC->D3CFGR & RCC_D3CFGR_D3PPRE))
1016:Drivers/STM32H7xx_HAL_Driver/Src/stm32h7xx_hal_rcc.c ****     {
1017:Drivers/STM32H7xx_HAL_Driver/Src/stm32h7xx_hal_rcc.c ****       assert_param(IS_RCC_D3PCLK1(RCC_ClkInitStruct->APB4CLKDivider));
1018:Drivers/STM32H7xx_HAL_Driver/Src/stm32h7xx_hal_rcc.c ****       MODIFY_REG(RCC->D3CFGR, RCC_D3CFGR_D3PPRE, (RCC_ClkInitStruct->APB4CLKDivider));
1019:Drivers/STM32H7xx_HAL_Driver/Src/stm32h7xx_hal_rcc.c ****     }
1020:Drivers/STM32H7xx_HAL_Driver/Src/stm32h7xx_hal_rcc.c **** #else
1021:Drivers/STM32H7xx_HAL_Driver/Src/stm32h7xx_hal_rcc.c ****     if ((RCC_ClkInitStruct->APB4CLKDivider) > (RCC->SRDCFGR & RCC_SRDCFGR_SRDPPRE))
1022:Drivers/STM32H7xx_HAL_Driver/Src/stm32h7xx_hal_rcc.c ****     {
1023:Drivers/STM32H7xx_HAL_Driver/Src/stm32h7xx_hal_rcc.c ****       assert_param(IS_RCC_D3PCLK1(RCC_ClkInitStruct->APB4CLKDivider));
1024:Drivers/STM32H7xx_HAL_Driver/Src/stm32h7xx_hal_rcc.c ****       MODIFY_REG(RCC->SRDCFGR, RCC_SRDCFGR_SRDPPRE, (RCC_ClkInitStruct->APB4CLKDivider));
1025:Drivers/STM32H7xx_HAL_Driver/Src/stm32h7xx_hal_rcc.c ****     }
1026:Drivers/STM32H7xx_HAL_Driver/Src/stm32h7xx_hal_rcc.c **** #endif
1027:Drivers/STM32H7xx_HAL_Driver/Src/stm32h7xx_hal_rcc.c ****   }
1028:Drivers/STM32H7xx_HAL_Driver/Src/stm32h7xx_hal_rcc.c **** 
1029:Drivers/STM32H7xx_HAL_Driver/Src/stm32h7xx_hal_rcc.c ****   /*-------------------------- HCLK Configuration --------------------------*/
1030:Drivers/STM32H7xx_HAL_Driver/Src/stm32h7xx_hal_rcc.c ****   if (((RCC_ClkInitStruct->ClockType) & RCC_CLOCKTYPE_HCLK) == RCC_CLOCKTYPE_HCLK)
1031:Drivers/STM32H7xx_HAL_Driver/Src/stm32h7xx_hal_rcc.c ****   {
1032:Drivers/STM32H7xx_HAL_Driver/Src/stm32h7xx_hal_rcc.c **** #if defined (RCC_D1CFGR_HPRE)
1033:Drivers/STM32H7xx_HAL_Driver/Src/stm32h7xx_hal_rcc.c ****     if ((RCC_ClkInitStruct->AHBCLKDivider) > (RCC->D1CFGR & RCC_D1CFGR_HPRE))
1034:Drivers/STM32H7xx_HAL_Driver/Src/stm32h7xx_hal_rcc.c ****     {
1035:Drivers/STM32H7xx_HAL_Driver/Src/stm32h7xx_hal_rcc.c ****       /* Set the new HCLK clock divider */
1036:Drivers/STM32H7xx_HAL_Driver/Src/stm32h7xx_hal_rcc.c ****       assert_param(IS_RCC_HCLK(RCC_ClkInitStruct->AHBCLKDivider));
1037:Drivers/STM32H7xx_HAL_Driver/Src/stm32h7xx_hal_rcc.c ****       MODIFY_REG(RCC->D1CFGR, RCC_D1CFGR_HPRE, RCC_ClkInitStruct->AHBCLKDivider);
1038:Drivers/STM32H7xx_HAL_Driver/Src/stm32h7xx_hal_rcc.c ****     }
1039:Drivers/STM32H7xx_HAL_Driver/Src/stm32h7xx_hal_rcc.c **** #else
1040:Drivers/STM32H7xx_HAL_Driver/Src/stm32h7xx_hal_rcc.c ****     if ((RCC_ClkInitStruct->AHBCLKDivider) > (RCC->CDCFGR1 & RCC_CDCFGR1_HPRE))
1041:Drivers/STM32H7xx_HAL_Driver/Src/stm32h7xx_hal_rcc.c ****     {
1042:Drivers/STM32H7xx_HAL_Driver/Src/stm32h7xx_hal_rcc.c ****       /* Set the new HCLK clock divider */
ARM GAS  /var/folders/g1/j12m_ky910s3_sv7d4yrsdn00000gn/T//ccmnBD4l.s 			page 64


1043:Drivers/STM32H7xx_HAL_Driver/Src/stm32h7xx_hal_rcc.c ****       assert_param(IS_RCC_HCLK(RCC_ClkInitStruct->AHBCLKDivider));
1044:Drivers/STM32H7xx_HAL_Driver/Src/stm32h7xx_hal_rcc.c ****       MODIFY_REG(RCC->CDCFGR1, RCC_CDCFGR1_HPRE, RCC_ClkInitStruct->AHBCLKDivider);
1045:Drivers/STM32H7xx_HAL_Driver/Src/stm32h7xx_hal_rcc.c ****     }
1046:Drivers/STM32H7xx_HAL_Driver/Src/stm32h7xx_hal_rcc.c **** #endif
1047:Drivers/STM32H7xx_HAL_Driver/Src/stm32h7xx_hal_rcc.c ****   }
1048:Drivers/STM32H7xx_HAL_Driver/Src/stm32h7xx_hal_rcc.c **** 
1049:Drivers/STM32H7xx_HAL_Driver/Src/stm32h7xx_hal_rcc.c ****   /*------------------------- SYSCLK Configuration -------------------------*/
1050:Drivers/STM32H7xx_HAL_Driver/Src/stm32h7xx_hal_rcc.c ****   if (((RCC_ClkInitStruct->ClockType) & RCC_CLOCKTYPE_SYSCLK) == RCC_CLOCKTYPE_SYSCLK)
1051:Drivers/STM32H7xx_HAL_Driver/Src/stm32h7xx_hal_rcc.c ****   {
1052:Drivers/STM32H7xx_HAL_Driver/Src/stm32h7xx_hal_rcc.c ****     assert_param(IS_RCC_SYSCLK(RCC_ClkInitStruct->SYSCLKDivider));
1053:Drivers/STM32H7xx_HAL_Driver/Src/stm32h7xx_hal_rcc.c ****     assert_param(IS_RCC_SYSCLKSOURCE(RCC_ClkInitStruct->SYSCLKSource));
1054:Drivers/STM32H7xx_HAL_Driver/Src/stm32h7xx_hal_rcc.c **** #if defined(RCC_D1CFGR_D1CPRE)
1055:Drivers/STM32H7xx_HAL_Driver/Src/stm32h7xx_hal_rcc.c ****     MODIFY_REG(RCC->D1CFGR, RCC_D1CFGR_D1CPRE, RCC_ClkInitStruct->SYSCLKDivider);
1056:Drivers/STM32H7xx_HAL_Driver/Src/stm32h7xx_hal_rcc.c **** #else
1057:Drivers/STM32H7xx_HAL_Driver/Src/stm32h7xx_hal_rcc.c ****     MODIFY_REG(RCC->CDCFGR1, RCC_CDCFGR1_CDCPRE, RCC_ClkInitStruct->SYSCLKDivider);
1058:Drivers/STM32H7xx_HAL_Driver/Src/stm32h7xx_hal_rcc.c **** #endif
1059:Drivers/STM32H7xx_HAL_Driver/Src/stm32h7xx_hal_rcc.c ****     /* HSE is selected as System Clock Source */
1060:Drivers/STM32H7xx_HAL_Driver/Src/stm32h7xx_hal_rcc.c ****     if (RCC_ClkInitStruct->SYSCLKSource == RCC_SYSCLKSOURCE_HSE)
1061:Drivers/STM32H7xx_HAL_Driver/Src/stm32h7xx_hal_rcc.c ****     {
1062:Drivers/STM32H7xx_HAL_Driver/Src/stm32h7xx_hal_rcc.c ****       /* Check the HSE ready flag */
1063:Drivers/STM32H7xx_HAL_Driver/Src/stm32h7xx_hal_rcc.c ****       if (__HAL_RCC_GET_FLAG(RCC_FLAG_HSERDY) == 0U)
1064:Drivers/STM32H7xx_HAL_Driver/Src/stm32h7xx_hal_rcc.c ****       {
1065:Drivers/STM32H7xx_HAL_Driver/Src/stm32h7xx_hal_rcc.c ****         return HAL_ERROR;
1066:Drivers/STM32H7xx_HAL_Driver/Src/stm32h7xx_hal_rcc.c ****       }
1067:Drivers/STM32H7xx_HAL_Driver/Src/stm32h7xx_hal_rcc.c ****     }
1068:Drivers/STM32H7xx_HAL_Driver/Src/stm32h7xx_hal_rcc.c ****     /* PLL is selected as System Clock Source */
1069:Drivers/STM32H7xx_HAL_Driver/Src/stm32h7xx_hal_rcc.c ****     else if (RCC_ClkInitStruct->SYSCLKSource == RCC_SYSCLKSOURCE_PLLCLK)
1070:Drivers/STM32H7xx_HAL_Driver/Src/stm32h7xx_hal_rcc.c ****     {
1071:Drivers/STM32H7xx_HAL_Driver/Src/stm32h7xx_hal_rcc.c ****       /* Check the PLL ready flag */
1072:Drivers/STM32H7xx_HAL_Driver/Src/stm32h7xx_hal_rcc.c ****       if (__HAL_RCC_GET_FLAG(RCC_FLAG_PLLRDY) == 0U)
1073:Drivers/STM32H7xx_HAL_Driver/Src/stm32h7xx_hal_rcc.c ****       {
1074:Drivers/STM32H7xx_HAL_Driver/Src/stm32h7xx_hal_rcc.c ****         return HAL_ERROR;
1075:Drivers/STM32H7xx_HAL_Driver/Src/stm32h7xx_hal_rcc.c ****       }
1076:Drivers/STM32H7xx_HAL_Driver/Src/stm32h7xx_hal_rcc.c ****     }
1077:Drivers/STM32H7xx_HAL_Driver/Src/stm32h7xx_hal_rcc.c ****     /* CSI is selected as System Clock Source */
1078:Drivers/STM32H7xx_HAL_Driver/Src/stm32h7xx_hal_rcc.c ****     else if (RCC_ClkInitStruct->SYSCLKSource == RCC_SYSCLKSOURCE_CSI)
1079:Drivers/STM32H7xx_HAL_Driver/Src/stm32h7xx_hal_rcc.c ****     {
1080:Drivers/STM32H7xx_HAL_Driver/Src/stm32h7xx_hal_rcc.c ****       /* Check the PLL ready flag */
1081:Drivers/STM32H7xx_HAL_Driver/Src/stm32h7xx_hal_rcc.c ****       if (__HAL_RCC_GET_FLAG(RCC_FLAG_CSIRDY) == 0U)
1082:Drivers/STM32H7xx_HAL_Driver/Src/stm32h7xx_hal_rcc.c ****       {
1083:Drivers/STM32H7xx_HAL_Driver/Src/stm32h7xx_hal_rcc.c ****         return HAL_ERROR;
1084:Drivers/STM32H7xx_HAL_Driver/Src/stm32h7xx_hal_rcc.c ****       }
1085:Drivers/STM32H7xx_HAL_Driver/Src/stm32h7xx_hal_rcc.c ****     }
1086:Drivers/STM32H7xx_HAL_Driver/Src/stm32h7xx_hal_rcc.c ****     /* HSI is selected as System Clock Source */
1087:Drivers/STM32H7xx_HAL_Driver/Src/stm32h7xx_hal_rcc.c ****     else
1088:Drivers/STM32H7xx_HAL_Driver/Src/stm32h7xx_hal_rcc.c ****     {
1089:Drivers/STM32H7xx_HAL_Driver/Src/stm32h7xx_hal_rcc.c ****       /* Check the HSI ready flag */
1090:Drivers/STM32H7xx_HAL_Driver/Src/stm32h7xx_hal_rcc.c ****       if (__HAL_RCC_GET_FLAG(RCC_FLAG_HSIRDY) == 0U)
1091:Drivers/STM32H7xx_HAL_Driver/Src/stm32h7xx_hal_rcc.c ****       {
1092:Drivers/STM32H7xx_HAL_Driver/Src/stm32h7xx_hal_rcc.c ****         return HAL_ERROR;
1093:Drivers/STM32H7xx_HAL_Driver/Src/stm32h7xx_hal_rcc.c ****       }
1094:Drivers/STM32H7xx_HAL_Driver/Src/stm32h7xx_hal_rcc.c ****     }
1095:Drivers/STM32H7xx_HAL_Driver/Src/stm32h7xx_hal_rcc.c ****     MODIFY_REG(RCC->CFGR, RCC_CFGR_SW, RCC_ClkInitStruct->SYSCLKSource);
1096:Drivers/STM32H7xx_HAL_Driver/Src/stm32h7xx_hal_rcc.c **** 
1097:Drivers/STM32H7xx_HAL_Driver/Src/stm32h7xx_hal_rcc.c ****     /* Get Start Tick*/
1098:Drivers/STM32H7xx_HAL_Driver/Src/stm32h7xx_hal_rcc.c ****     tickstart = HAL_GetTick();
1099:Drivers/STM32H7xx_HAL_Driver/Src/stm32h7xx_hal_rcc.c **** 
ARM GAS  /var/folders/g1/j12m_ky910s3_sv7d4yrsdn00000gn/T//ccmnBD4l.s 			page 65


1100:Drivers/STM32H7xx_HAL_Driver/Src/stm32h7xx_hal_rcc.c ****     while (__HAL_RCC_GET_SYSCLK_SOURCE() != (RCC_ClkInitStruct->SYSCLKSource << RCC_CFGR_SWS_Pos))
1101:Drivers/STM32H7xx_HAL_Driver/Src/stm32h7xx_hal_rcc.c ****     {
1102:Drivers/STM32H7xx_HAL_Driver/Src/stm32h7xx_hal_rcc.c ****       if ((HAL_GetTick() - tickstart) > CLOCKSWITCH_TIMEOUT_VALUE)
1103:Drivers/STM32H7xx_HAL_Driver/Src/stm32h7xx_hal_rcc.c ****       {
1104:Drivers/STM32H7xx_HAL_Driver/Src/stm32h7xx_hal_rcc.c ****         return HAL_TIMEOUT;
1105:Drivers/STM32H7xx_HAL_Driver/Src/stm32h7xx_hal_rcc.c ****       }
1106:Drivers/STM32H7xx_HAL_Driver/Src/stm32h7xx_hal_rcc.c ****     }
1107:Drivers/STM32H7xx_HAL_Driver/Src/stm32h7xx_hal_rcc.c **** 
1108:Drivers/STM32H7xx_HAL_Driver/Src/stm32h7xx_hal_rcc.c ****   }
1109:Drivers/STM32H7xx_HAL_Driver/Src/stm32h7xx_hal_rcc.c **** 
1110:Drivers/STM32H7xx_HAL_Driver/Src/stm32h7xx_hal_rcc.c ****   /* Decreasing the BUS frequency divider */
1111:Drivers/STM32H7xx_HAL_Driver/Src/stm32h7xx_hal_rcc.c ****   /*-------------------------- HCLK Configuration --------------------------*/
1112:Drivers/STM32H7xx_HAL_Driver/Src/stm32h7xx_hal_rcc.c ****   if (((RCC_ClkInitStruct->ClockType) & RCC_CLOCKTYPE_HCLK) == RCC_CLOCKTYPE_HCLK)
1113:Drivers/STM32H7xx_HAL_Driver/Src/stm32h7xx_hal_rcc.c ****   {
1114:Drivers/STM32H7xx_HAL_Driver/Src/stm32h7xx_hal_rcc.c **** #if defined(RCC_D1CFGR_HPRE)
1115:Drivers/STM32H7xx_HAL_Driver/Src/stm32h7xx_hal_rcc.c ****     if ((RCC_ClkInitStruct->AHBCLKDivider) < (RCC->D1CFGR & RCC_D1CFGR_HPRE))
1116:Drivers/STM32H7xx_HAL_Driver/Src/stm32h7xx_hal_rcc.c ****     {
1117:Drivers/STM32H7xx_HAL_Driver/Src/stm32h7xx_hal_rcc.c ****       /* Set the new HCLK clock divider */
1118:Drivers/STM32H7xx_HAL_Driver/Src/stm32h7xx_hal_rcc.c ****       assert_param(IS_RCC_HCLK(RCC_ClkInitStruct->AHBCLKDivider));
1119:Drivers/STM32H7xx_HAL_Driver/Src/stm32h7xx_hal_rcc.c ****       MODIFY_REG(RCC->D1CFGR, RCC_D1CFGR_HPRE, RCC_ClkInitStruct->AHBCLKDivider);
1120:Drivers/STM32H7xx_HAL_Driver/Src/stm32h7xx_hal_rcc.c ****     }
1121:Drivers/STM32H7xx_HAL_Driver/Src/stm32h7xx_hal_rcc.c **** #else
1122:Drivers/STM32H7xx_HAL_Driver/Src/stm32h7xx_hal_rcc.c ****     if ((RCC_ClkInitStruct->AHBCLKDivider) < (RCC->CDCFGR1 & RCC_CDCFGR1_HPRE))
1123:Drivers/STM32H7xx_HAL_Driver/Src/stm32h7xx_hal_rcc.c ****     {
1124:Drivers/STM32H7xx_HAL_Driver/Src/stm32h7xx_hal_rcc.c ****       /* Set the new HCLK clock divider */
1125:Drivers/STM32H7xx_HAL_Driver/Src/stm32h7xx_hal_rcc.c ****       assert_param(IS_RCC_HCLK(RCC_ClkInitStruct->AHBCLKDivider));
1126:Drivers/STM32H7xx_HAL_Driver/Src/stm32h7xx_hal_rcc.c ****       MODIFY_REG(RCC->CDCFGR1, RCC_CDCFGR1_HPRE, RCC_ClkInitStruct->AHBCLKDivider);
1127:Drivers/STM32H7xx_HAL_Driver/Src/stm32h7xx_hal_rcc.c ****     }
1128:Drivers/STM32H7xx_HAL_Driver/Src/stm32h7xx_hal_rcc.c **** #endif
1129:Drivers/STM32H7xx_HAL_Driver/Src/stm32h7xx_hal_rcc.c ****   }
1130:Drivers/STM32H7xx_HAL_Driver/Src/stm32h7xx_hal_rcc.c **** 
1131:Drivers/STM32H7xx_HAL_Driver/Src/stm32h7xx_hal_rcc.c ****   /* Decreasing the number of wait states because of lower CPU frequency */
1132:Drivers/STM32H7xx_HAL_Driver/Src/stm32h7xx_hal_rcc.c ****   if (FLatency < __HAL_FLASH_GET_LATENCY())
1133:Drivers/STM32H7xx_HAL_Driver/Src/stm32h7xx_hal_rcc.c ****   {
1134:Drivers/STM32H7xx_HAL_Driver/Src/stm32h7xx_hal_rcc.c ****     /* Program the new number of wait states to the LATENCY bits in the FLASH_ACR register */
1135:Drivers/STM32H7xx_HAL_Driver/Src/stm32h7xx_hal_rcc.c ****     __HAL_FLASH_SET_LATENCY(FLatency);
1136:Drivers/STM32H7xx_HAL_Driver/Src/stm32h7xx_hal_rcc.c **** 
1137:Drivers/STM32H7xx_HAL_Driver/Src/stm32h7xx_hal_rcc.c ****     /* Check that the new number of wait states is taken into account to access the Flash
1138:Drivers/STM32H7xx_HAL_Driver/Src/stm32h7xx_hal_rcc.c ****     memory by reading the FLASH_ACR register */
1139:Drivers/STM32H7xx_HAL_Driver/Src/stm32h7xx_hal_rcc.c ****     if (__HAL_FLASH_GET_LATENCY() != FLatency)
1140:Drivers/STM32H7xx_HAL_Driver/Src/stm32h7xx_hal_rcc.c ****     {
1141:Drivers/STM32H7xx_HAL_Driver/Src/stm32h7xx_hal_rcc.c ****       return HAL_ERROR;
1142:Drivers/STM32H7xx_HAL_Driver/Src/stm32h7xx_hal_rcc.c ****     }
1143:Drivers/STM32H7xx_HAL_Driver/Src/stm32h7xx_hal_rcc.c ****   }
1144:Drivers/STM32H7xx_HAL_Driver/Src/stm32h7xx_hal_rcc.c **** 
1145:Drivers/STM32H7xx_HAL_Driver/Src/stm32h7xx_hal_rcc.c ****   /*-------------------------- D1PCLK1/CDPCLK Configuration ---------------------------*/
1146:Drivers/STM32H7xx_HAL_Driver/Src/stm32h7xx_hal_rcc.c ****   if (((RCC_ClkInitStruct->ClockType) & RCC_CLOCKTYPE_D1PCLK1) == RCC_CLOCKTYPE_D1PCLK1)
1147:Drivers/STM32H7xx_HAL_Driver/Src/stm32h7xx_hal_rcc.c ****   {
1148:Drivers/STM32H7xx_HAL_Driver/Src/stm32h7xx_hal_rcc.c **** #if defined(RCC_D1CFGR_D1PPRE)
1149:Drivers/STM32H7xx_HAL_Driver/Src/stm32h7xx_hal_rcc.c ****     if ((RCC_ClkInitStruct->APB3CLKDivider) < (RCC->D1CFGR & RCC_D1CFGR_D1PPRE))
1150:Drivers/STM32H7xx_HAL_Driver/Src/stm32h7xx_hal_rcc.c ****     {
1151:Drivers/STM32H7xx_HAL_Driver/Src/stm32h7xx_hal_rcc.c ****       assert_param(IS_RCC_D1PCLK1(RCC_ClkInitStruct->APB3CLKDivider));
1152:Drivers/STM32H7xx_HAL_Driver/Src/stm32h7xx_hal_rcc.c ****       MODIFY_REG(RCC->D1CFGR, RCC_D1CFGR_D1PPRE, RCC_ClkInitStruct->APB3CLKDivider);
1153:Drivers/STM32H7xx_HAL_Driver/Src/stm32h7xx_hal_rcc.c ****     }
1154:Drivers/STM32H7xx_HAL_Driver/Src/stm32h7xx_hal_rcc.c **** #else
1155:Drivers/STM32H7xx_HAL_Driver/Src/stm32h7xx_hal_rcc.c ****     if ((RCC_ClkInitStruct->APB3CLKDivider) < (RCC->CDCFGR1 & RCC_CDCFGR1_CDPPRE))
1156:Drivers/STM32H7xx_HAL_Driver/Src/stm32h7xx_hal_rcc.c ****     {
ARM GAS  /var/folders/g1/j12m_ky910s3_sv7d4yrsdn00000gn/T//ccmnBD4l.s 			page 66


1157:Drivers/STM32H7xx_HAL_Driver/Src/stm32h7xx_hal_rcc.c ****       assert_param(IS_RCC_CDPCLK1(RCC_ClkInitStruct->APB3CLKDivider));
1158:Drivers/STM32H7xx_HAL_Driver/Src/stm32h7xx_hal_rcc.c ****       MODIFY_REG(RCC->CDCFGR1, RCC_CDCFGR1_CDPPRE, RCC_ClkInitStruct->APB3CLKDivider);
1159:Drivers/STM32H7xx_HAL_Driver/Src/stm32h7xx_hal_rcc.c ****     }
1160:Drivers/STM32H7xx_HAL_Driver/Src/stm32h7xx_hal_rcc.c **** #endif
1161:Drivers/STM32H7xx_HAL_Driver/Src/stm32h7xx_hal_rcc.c ****   }
1162:Drivers/STM32H7xx_HAL_Driver/Src/stm32h7xx_hal_rcc.c **** 
1163:Drivers/STM32H7xx_HAL_Driver/Src/stm32h7xx_hal_rcc.c ****   /*-------------------------- PCLK1 Configuration ---------------------------*/
1164:Drivers/STM32H7xx_HAL_Driver/Src/stm32h7xx_hal_rcc.c ****   if (((RCC_ClkInitStruct->ClockType) & RCC_CLOCKTYPE_PCLK1) == RCC_CLOCKTYPE_PCLK1)
1165:Drivers/STM32H7xx_HAL_Driver/Src/stm32h7xx_hal_rcc.c ****   {
1166:Drivers/STM32H7xx_HAL_Driver/Src/stm32h7xx_hal_rcc.c **** #if defined(RCC_D2CFGR_D2PPRE1)
1167:Drivers/STM32H7xx_HAL_Driver/Src/stm32h7xx_hal_rcc.c ****     if ((RCC_ClkInitStruct->APB1CLKDivider) < (RCC->D2CFGR & RCC_D2CFGR_D2PPRE1))
1168:Drivers/STM32H7xx_HAL_Driver/Src/stm32h7xx_hal_rcc.c ****     {
1169:Drivers/STM32H7xx_HAL_Driver/Src/stm32h7xx_hal_rcc.c ****       assert_param(IS_RCC_PCLK1(RCC_ClkInitStruct->APB1CLKDivider));
1170:Drivers/STM32H7xx_HAL_Driver/Src/stm32h7xx_hal_rcc.c ****       MODIFY_REG(RCC->D2CFGR, RCC_D2CFGR_D2PPRE1, (RCC_ClkInitStruct->APB1CLKDivider));
1171:Drivers/STM32H7xx_HAL_Driver/Src/stm32h7xx_hal_rcc.c ****     }
1172:Drivers/STM32H7xx_HAL_Driver/Src/stm32h7xx_hal_rcc.c **** #else
1173:Drivers/STM32H7xx_HAL_Driver/Src/stm32h7xx_hal_rcc.c ****     if ((RCC_ClkInitStruct->APB1CLKDivider) < (RCC->CDCFGR2 & RCC_CDCFGR2_CDPPRE1))
1174:Drivers/STM32H7xx_HAL_Driver/Src/stm32h7xx_hal_rcc.c ****     {
1175:Drivers/STM32H7xx_HAL_Driver/Src/stm32h7xx_hal_rcc.c ****       assert_param(IS_RCC_PCLK1(RCC_ClkInitStruct->APB1CLKDivider));
1176:Drivers/STM32H7xx_HAL_Driver/Src/stm32h7xx_hal_rcc.c ****       MODIFY_REG(RCC->CDCFGR2, RCC_CDCFGR2_CDPPRE1, (RCC_ClkInitStruct->APB1CLKDivider));
1177:Drivers/STM32H7xx_HAL_Driver/Src/stm32h7xx_hal_rcc.c ****     }
1178:Drivers/STM32H7xx_HAL_Driver/Src/stm32h7xx_hal_rcc.c **** #endif
1179:Drivers/STM32H7xx_HAL_Driver/Src/stm32h7xx_hal_rcc.c ****   }
1180:Drivers/STM32H7xx_HAL_Driver/Src/stm32h7xx_hal_rcc.c **** 
1181:Drivers/STM32H7xx_HAL_Driver/Src/stm32h7xx_hal_rcc.c ****   /*-------------------------- PCLK2 Configuration ---------------------------*/
1182:Drivers/STM32H7xx_HAL_Driver/Src/stm32h7xx_hal_rcc.c ****   if (((RCC_ClkInitStruct->ClockType) & RCC_CLOCKTYPE_PCLK2) == RCC_CLOCKTYPE_PCLK2)
1183:Drivers/STM32H7xx_HAL_Driver/Src/stm32h7xx_hal_rcc.c ****   {
1184:Drivers/STM32H7xx_HAL_Driver/Src/stm32h7xx_hal_rcc.c **** #if defined (RCC_D2CFGR_D2PPRE2)
1185:Drivers/STM32H7xx_HAL_Driver/Src/stm32h7xx_hal_rcc.c ****     if ((RCC_ClkInitStruct->APB2CLKDivider) < (RCC->D2CFGR & RCC_D2CFGR_D2PPRE2))
1186:Drivers/STM32H7xx_HAL_Driver/Src/stm32h7xx_hal_rcc.c ****     {
1187:Drivers/STM32H7xx_HAL_Driver/Src/stm32h7xx_hal_rcc.c ****       assert_param(IS_RCC_PCLK2(RCC_ClkInitStruct->APB2CLKDivider));
1188:Drivers/STM32H7xx_HAL_Driver/Src/stm32h7xx_hal_rcc.c ****       MODIFY_REG(RCC->D2CFGR, RCC_D2CFGR_D2PPRE2, (RCC_ClkInitStruct->APB2CLKDivider));
1189:Drivers/STM32H7xx_HAL_Driver/Src/stm32h7xx_hal_rcc.c ****     }
1190:Drivers/STM32H7xx_HAL_Driver/Src/stm32h7xx_hal_rcc.c **** #else
1191:Drivers/STM32H7xx_HAL_Driver/Src/stm32h7xx_hal_rcc.c ****     if ((RCC_ClkInitStruct->APB2CLKDivider) < (RCC->CDCFGR2 & RCC_CDCFGR2_CDPPRE2))
1192:Drivers/STM32H7xx_HAL_Driver/Src/stm32h7xx_hal_rcc.c ****     {
1193:Drivers/STM32H7xx_HAL_Driver/Src/stm32h7xx_hal_rcc.c ****       assert_param(IS_RCC_PCLK2(RCC_ClkInitStruct->APB2CLKDivider));
1194:Drivers/STM32H7xx_HAL_Driver/Src/stm32h7xx_hal_rcc.c ****       MODIFY_REG(RCC->CDCFGR2, RCC_CDCFGR2_CDPPRE2, (RCC_ClkInitStruct->APB2CLKDivider));
1195:Drivers/STM32H7xx_HAL_Driver/Src/stm32h7xx_hal_rcc.c ****     }
1196:Drivers/STM32H7xx_HAL_Driver/Src/stm32h7xx_hal_rcc.c **** #endif
1197:Drivers/STM32H7xx_HAL_Driver/Src/stm32h7xx_hal_rcc.c ****   }
1198:Drivers/STM32H7xx_HAL_Driver/Src/stm32h7xx_hal_rcc.c **** 
1199:Drivers/STM32H7xx_HAL_Driver/Src/stm32h7xx_hal_rcc.c ****   /*-------------------------- D3PCLK1/SRDPCLK1 Configuration ---------------------------*/
1200:Drivers/STM32H7xx_HAL_Driver/Src/stm32h7xx_hal_rcc.c ****   if (((RCC_ClkInitStruct->ClockType) & RCC_CLOCKTYPE_D3PCLK1) == RCC_CLOCKTYPE_D3PCLK1)
1201:Drivers/STM32H7xx_HAL_Driver/Src/stm32h7xx_hal_rcc.c ****   {
1202:Drivers/STM32H7xx_HAL_Driver/Src/stm32h7xx_hal_rcc.c **** #if defined(RCC_D3CFGR_D3PPRE)
1203:Drivers/STM32H7xx_HAL_Driver/Src/stm32h7xx_hal_rcc.c ****     if ((RCC_ClkInitStruct->APB4CLKDivider) < (RCC->D3CFGR & RCC_D3CFGR_D3PPRE))
1204:Drivers/STM32H7xx_HAL_Driver/Src/stm32h7xx_hal_rcc.c ****     {
1205:Drivers/STM32H7xx_HAL_Driver/Src/stm32h7xx_hal_rcc.c ****       assert_param(IS_RCC_D3PCLK1(RCC_ClkInitStruct->APB4CLKDivider));
1206:Drivers/STM32H7xx_HAL_Driver/Src/stm32h7xx_hal_rcc.c ****       MODIFY_REG(RCC->D3CFGR, RCC_D3CFGR_D3PPRE, (RCC_ClkInitStruct->APB4CLKDivider));
1207:Drivers/STM32H7xx_HAL_Driver/Src/stm32h7xx_hal_rcc.c ****     }
1208:Drivers/STM32H7xx_HAL_Driver/Src/stm32h7xx_hal_rcc.c **** #else
1209:Drivers/STM32H7xx_HAL_Driver/Src/stm32h7xx_hal_rcc.c ****     if ((RCC_ClkInitStruct->APB4CLKDivider) < (RCC->SRDCFGR & RCC_SRDCFGR_SRDPPRE))
1210:Drivers/STM32H7xx_HAL_Driver/Src/stm32h7xx_hal_rcc.c ****     {
1211:Drivers/STM32H7xx_HAL_Driver/Src/stm32h7xx_hal_rcc.c ****       assert_param(IS_RCC_SRDPCLK1(RCC_ClkInitStruct->APB4CLKDivider));
1212:Drivers/STM32H7xx_HAL_Driver/Src/stm32h7xx_hal_rcc.c ****       MODIFY_REG(RCC->SRDCFGR, RCC_SRDCFGR_SRDPPRE, (RCC_ClkInitStruct->APB4CLKDivider));
1213:Drivers/STM32H7xx_HAL_Driver/Src/stm32h7xx_hal_rcc.c ****     }
ARM GAS  /var/folders/g1/j12m_ky910s3_sv7d4yrsdn00000gn/T//ccmnBD4l.s 			page 67


1214:Drivers/STM32H7xx_HAL_Driver/Src/stm32h7xx_hal_rcc.c **** #endif
1215:Drivers/STM32H7xx_HAL_Driver/Src/stm32h7xx_hal_rcc.c ****   }
1216:Drivers/STM32H7xx_HAL_Driver/Src/stm32h7xx_hal_rcc.c **** 
1217:Drivers/STM32H7xx_HAL_Driver/Src/stm32h7xx_hal_rcc.c ****   /* Update the SystemCoreClock global variable */
1218:Drivers/STM32H7xx_HAL_Driver/Src/stm32h7xx_hal_rcc.c **** #if defined(RCC_D1CFGR_D1CPRE)
1219:Drivers/STM32H7xx_HAL_Driver/Src/stm32h7xx_hal_rcc.c ****   common_system_clock = HAL_RCC_GetSysClockFreq() >> ((D1CorePrescTable[(RCC->D1CFGR & RCC_D1CFGR_D
1220:Drivers/STM32H7xx_HAL_Driver/Src/stm32h7xx_hal_rcc.c **** #else
1221:Drivers/STM32H7xx_HAL_Driver/Src/stm32h7xx_hal_rcc.c ****   common_system_clock = HAL_RCC_GetSysClockFreq() >> ((D1CorePrescTable[(RCC->CDCFGR1 & RCC_CDCFGR1
1222:Drivers/STM32H7xx_HAL_Driver/Src/stm32h7xx_hal_rcc.c **** #endif
1223:Drivers/STM32H7xx_HAL_Driver/Src/stm32h7xx_hal_rcc.c **** 
1224:Drivers/STM32H7xx_HAL_Driver/Src/stm32h7xx_hal_rcc.c **** #if defined(RCC_D1CFGR_HPRE)
1225:Drivers/STM32H7xx_HAL_Driver/Src/stm32h7xx_hal_rcc.c ****   SystemD2Clock = (common_system_clock >> ((D1CorePrescTable[(RCC->D1CFGR & RCC_D1CFGR_HPRE) >> RCC
1226:Drivers/STM32H7xx_HAL_Driver/Src/stm32h7xx_hal_rcc.c **** #else
1227:Drivers/STM32H7xx_HAL_Driver/Src/stm32h7xx_hal_rcc.c ****   SystemD2Clock = (common_system_clock >> ((D1CorePrescTable[(RCC->CDCFGR1 & RCC_CDCFGR1_HPRE) >> R
1228:Drivers/STM32H7xx_HAL_Driver/Src/stm32h7xx_hal_rcc.c **** #endif
1229:Drivers/STM32H7xx_HAL_Driver/Src/stm32h7xx_hal_rcc.c **** 
1230:Drivers/STM32H7xx_HAL_Driver/Src/stm32h7xx_hal_rcc.c **** #if defined(DUAL_CORE) && defined(CORE_CM4)
1231:Drivers/STM32H7xx_HAL_Driver/Src/stm32h7xx_hal_rcc.c ****   SystemCoreClock = SystemD2Clock;
1232:Drivers/STM32H7xx_HAL_Driver/Src/stm32h7xx_hal_rcc.c **** #else
1233:Drivers/STM32H7xx_HAL_Driver/Src/stm32h7xx_hal_rcc.c ****   SystemCoreClock = common_system_clock;
1234:Drivers/STM32H7xx_HAL_Driver/Src/stm32h7xx_hal_rcc.c **** #endif /* DUAL_CORE && CORE_CM4 */
1235:Drivers/STM32H7xx_HAL_Driver/Src/stm32h7xx_hal_rcc.c **** 
1236:Drivers/STM32H7xx_HAL_Driver/Src/stm32h7xx_hal_rcc.c ****   /* Configure the source of time base considering new system clocks settings*/
1237:Drivers/STM32H7xx_HAL_Driver/Src/stm32h7xx_hal_rcc.c ****   halstatus = HAL_InitTick(uwTickPrio);
1238:Drivers/STM32H7xx_HAL_Driver/Src/stm32h7xx_hal_rcc.c **** 
1239:Drivers/STM32H7xx_HAL_Driver/Src/stm32h7xx_hal_rcc.c ****   return halstatus;
1240:Drivers/STM32H7xx_HAL_Driver/Src/stm32h7xx_hal_rcc.c **** }
1241:Drivers/STM32H7xx_HAL_Driver/Src/stm32h7xx_hal_rcc.c **** 
1242:Drivers/STM32H7xx_HAL_Driver/Src/stm32h7xx_hal_rcc.c **** /**
1243:Drivers/STM32H7xx_HAL_Driver/Src/stm32h7xx_hal_rcc.c ****   * @}
1244:Drivers/STM32H7xx_HAL_Driver/Src/stm32h7xx_hal_rcc.c ****   */
1245:Drivers/STM32H7xx_HAL_Driver/Src/stm32h7xx_hal_rcc.c **** 
1246:Drivers/STM32H7xx_HAL_Driver/Src/stm32h7xx_hal_rcc.c **** /** @defgroup RCC_Exported_Functions_Group2 Peripheral Control functions
1247:Drivers/STM32H7xx_HAL_Driver/Src/stm32h7xx_hal_rcc.c ****  *  @brief   RCC clocks control functions
1248:Drivers/STM32H7xx_HAL_Driver/Src/stm32h7xx_hal_rcc.c ****  *
1249:Drivers/STM32H7xx_HAL_Driver/Src/stm32h7xx_hal_rcc.c **** @verbatim
1250:Drivers/STM32H7xx_HAL_Driver/Src/stm32h7xx_hal_rcc.c ****  ===============================================================================
1251:Drivers/STM32H7xx_HAL_Driver/Src/stm32h7xx_hal_rcc.c ****                       ##### Peripheral Control functions #####
1252:Drivers/STM32H7xx_HAL_Driver/Src/stm32h7xx_hal_rcc.c ****  ===============================================================================
1253:Drivers/STM32H7xx_HAL_Driver/Src/stm32h7xx_hal_rcc.c ****     [..]
1254:Drivers/STM32H7xx_HAL_Driver/Src/stm32h7xx_hal_rcc.c ****     This subsection provides a set of functions allowing to control the RCC Clocks
1255:Drivers/STM32H7xx_HAL_Driver/Src/stm32h7xx_hal_rcc.c ****     frequencies.
1256:Drivers/STM32H7xx_HAL_Driver/Src/stm32h7xx_hal_rcc.c **** 
1257:Drivers/STM32H7xx_HAL_Driver/Src/stm32h7xx_hal_rcc.c **** @endverbatim
1258:Drivers/STM32H7xx_HAL_Driver/Src/stm32h7xx_hal_rcc.c ****   * @{
1259:Drivers/STM32H7xx_HAL_Driver/Src/stm32h7xx_hal_rcc.c ****   */
1260:Drivers/STM32H7xx_HAL_Driver/Src/stm32h7xx_hal_rcc.c **** 
1261:Drivers/STM32H7xx_HAL_Driver/Src/stm32h7xx_hal_rcc.c **** /**
1262:Drivers/STM32H7xx_HAL_Driver/Src/stm32h7xx_hal_rcc.c ****   * @brief  Selects the clock source to output on MCO1 pin(PA8) or on MCO2 pin(PC9).
1263:Drivers/STM32H7xx_HAL_Driver/Src/stm32h7xx_hal_rcc.c ****   * @note   PA8/PC9 should be configured in alternate function mode.
1264:Drivers/STM32H7xx_HAL_Driver/Src/stm32h7xx_hal_rcc.c ****   * @param  RCC_MCOx: specifies the output direction for the clock source.
1265:Drivers/STM32H7xx_HAL_Driver/Src/stm32h7xx_hal_rcc.c ****   *          This parameter can be one of the following values:
1266:Drivers/STM32H7xx_HAL_Driver/Src/stm32h7xx_hal_rcc.c ****   *            @arg RCC_MCO1: Clock source to output on MCO1 pin(PA8).
1267:Drivers/STM32H7xx_HAL_Driver/Src/stm32h7xx_hal_rcc.c ****   *            @arg RCC_MCO2: Clock source to output on MCO2 pin(PC9).
1268:Drivers/STM32H7xx_HAL_Driver/Src/stm32h7xx_hal_rcc.c ****   * @param  RCC_MCOSource: specifies the clock source to output.
1269:Drivers/STM32H7xx_HAL_Driver/Src/stm32h7xx_hal_rcc.c ****   *          This parameter can be one of the following values:
1270:Drivers/STM32H7xx_HAL_Driver/Src/stm32h7xx_hal_rcc.c ****   *            @arg RCC_MCO1SOURCE_HSI: HSI clock selected as MCO1 source
ARM GAS  /var/folders/g1/j12m_ky910s3_sv7d4yrsdn00000gn/T//ccmnBD4l.s 			page 68


1271:Drivers/STM32H7xx_HAL_Driver/Src/stm32h7xx_hal_rcc.c ****   *            @arg RCC_MCO1SOURCE_LSE: LSE clock selected as MCO1 source
1272:Drivers/STM32H7xx_HAL_Driver/Src/stm32h7xx_hal_rcc.c ****   *            @arg RCC_MCO1SOURCE_HSE: HSE clock selected as MCO1 source
1273:Drivers/STM32H7xx_HAL_Driver/Src/stm32h7xx_hal_rcc.c ****   *            @arg RCC_MCO1SOURCE_PLL1QCLK:  PLL1Q clock selected as MCO1 source
1274:Drivers/STM32H7xx_HAL_Driver/Src/stm32h7xx_hal_rcc.c ****   *            @arg RCC_MCO1SOURCE_HSI48: HSI48 (48MHZ) selected as MCO1 source
1275:Drivers/STM32H7xx_HAL_Driver/Src/stm32h7xx_hal_rcc.c ****   *            @arg RCC_MCO2SOURCE_SYSCLK: System clock (SYSCLK) selected as MCO2 source
1276:Drivers/STM32H7xx_HAL_Driver/Src/stm32h7xx_hal_rcc.c ****   *            @arg RCC_MCO2SOURCE_PLL2PCLK: PLL2P clock selected as MCO2 source
1277:Drivers/STM32H7xx_HAL_Driver/Src/stm32h7xx_hal_rcc.c ****   *            @arg RCC_MCO2SOURCE_HSE: HSE clock selected as MCO2 source
1278:Drivers/STM32H7xx_HAL_Driver/Src/stm32h7xx_hal_rcc.c ****   *            @arg RCC_MCO2SOURCE_PLLCLK:  PLL1P clock selected as MCO2 source
1279:Drivers/STM32H7xx_HAL_Driver/Src/stm32h7xx_hal_rcc.c ****   *            @arg RCC_MCO2SOURCE_CSICLK:  CSI clock selected as MCO2 source
1280:Drivers/STM32H7xx_HAL_Driver/Src/stm32h7xx_hal_rcc.c ****   *            @arg RCC_MCO2SOURCE_LSICLK:  LSI clock selected as MCO2 source
1281:Drivers/STM32H7xx_HAL_Driver/Src/stm32h7xx_hal_rcc.c ****   * @param  RCC_MCODiv: specifies the MCOx pre-scaler.
1282:Drivers/STM32H7xx_HAL_Driver/Src/stm32h7xx_hal_rcc.c ****   *          This parameter can be one of the following values:
1283:Drivers/STM32H7xx_HAL_Driver/Src/stm32h7xx_hal_rcc.c ****   *            @arg RCC_MCODIV_1 up to RCC_MCODIV_15  : divider applied to MCOx clock
1284:Drivers/STM32H7xx_HAL_Driver/Src/stm32h7xx_hal_rcc.c ****   * @retval None
1285:Drivers/STM32H7xx_HAL_Driver/Src/stm32h7xx_hal_rcc.c ****   */
1286:Drivers/STM32H7xx_HAL_Driver/Src/stm32h7xx_hal_rcc.c **** void HAL_RCC_MCOConfig(uint32_t RCC_MCOx, uint32_t RCC_MCOSource, uint32_t RCC_MCODiv)
1287:Drivers/STM32H7xx_HAL_Driver/Src/stm32h7xx_hal_rcc.c **** {
 2108              		.loc 1 1287 1 is_stmt 1 view -0
 2109              		.cfi_startproc
 2110              		@ args = 0, pretend = 0, frame = 32
 2111              		@ frame_needed = 0, uses_anonymous_args = 0
 2112              		.loc 1 1287 1 is_stmt 0 view .LVU623
 2113 0000 70B5     		push	{r4, r5, r6, lr}
 2114              	.LCFI4:
 2115              		.cfi_def_cfa_offset 16
 2116              		.cfi_offset 4, -16
 2117              		.cfi_offset 5, -12
 2118              		.cfi_offset 6, -8
 2119              		.cfi_offset 14, -4
 2120 0002 88B0     		sub	sp, sp, #32
 2121              	.LCFI5:
 2122              		.cfi_def_cfa_offset 48
 2123 0004 0646     		mov	r6, r0
 2124 0006 0D46     		mov	r5, r1
 2125 0008 1446     		mov	r4, r2
1288:Drivers/STM32H7xx_HAL_Driver/Src/stm32h7xx_hal_rcc.c ****   GPIO_InitTypeDef GPIO_InitStruct;
 2126              		.loc 1 1288 3 is_stmt 1 view .LVU624
1289:Drivers/STM32H7xx_HAL_Driver/Src/stm32h7xx_hal_rcc.c ****   /* Check the parameters */
1290:Drivers/STM32H7xx_HAL_Driver/Src/stm32h7xx_hal_rcc.c ****   assert_param(IS_RCC_MCO(RCC_MCOx));
 2127              		.loc 1 1290 3 view .LVU625
 2128 000a 0128     		cmp	r0, #1
 2129 000c 6DD8     		bhi	.L219
 2130              	.LVL184:
 2131              	.L212:
1291:Drivers/STM32H7xx_HAL_Driver/Src/stm32h7xx_hal_rcc.c ****   assert_param(IS_RCC_MCODIV(RCC_MCODiv));
 2132              		.loc 1 1291 3 view .LVU626
 2133 000e B4F5802F 		cmp	r4, #262144
 2134 0012 18BF     		it	ne
 2135 0014 B4F5002F 		cmpne	r4, #524288
 2136 0018 32D0     		beq	.L213
 2137              		.loc 1 1291 3 is_stmt 0 discriminator 1 view .LVU627
 2138 001a B4F58013 		subs	r3, r4, #1048576
 2139 001e 18BF     		it	ne
 2140 0020 0123     		movne	r3, #1
 2141 0022 B4F5402F 		cmp	r4, #786432
 2142 0026 2BD0     		beq	.L213
 2143 0028 53B3     		cbz	r3, .L213
ARM GAS  /var/folders/g1/j12m_ky910s3_sv7d4yrsdn00000gn/T//ccmnBD4l.s 			page 69


 2144              		.loc 1 1291 3 discriminator 2 view .LVU628
 2145 002a B4F5C013 		subs	r3, r4, #1572864
 2146 002e 18BF     		it	ne
 2147 0030 0123     		movne	r3, #1
 2148 0032 B4F5A01F 		cmp	r4, #1310720
 2149 0036 23D0     		beq	.L213
 2150 0038 13B3     		cbz	r3, .L213
 2151              		.loc 1 1291 3 discriminator 3 view .LVU629
 2152 003a B4F50013 		subs	r3, r4, #2097152
 2153 003e 18BF     		it	ne
 2154 0040 0123     		movne	r3, #1
 2155 0042 B4F5E01F 		cmp	r4, #1835008
 2156 0046 1BD0     		beq	.L213
 2157 0048 D3B1     		cbz	r3, .L213
 2158              		.loc 1 1291 3 discriminator 4 view .LVU630
 2159 004a B4F52013 		subs	r3, r4, #2621440
 2160 004e 18BF     		it	ne
 2161 0050 0123     		movne	r3, #1
 2162 0052 B4F5101F 		cmp	r4, #2359296
 2163 0056 13D0     		beq	.L213
 2164 0058 93B1     		cbz	r3, .L213
 2165              		.loc 1 1291 3 discriminator 5 view .LVU631
 2166 005a B4F54013 		subs	r3, r4, #3145728
 2167 005e 18BF     		it	ne
 2168 0060 0123     		movne	r3, #1
 2169 0062 B4F5301F 		cmp	r4, #2883584
 2170 0066 0BD0     		beq	.L213
 2171 0068 53B1     		cbz	r3, .L213
 2172              		.loc 1 1291 3 discriminator 6 view .LVU632
 2173 006a B4F56013 		subs	r3, r4, #3670016
 2174 006e 18BF     		it	ne
 2175 0070 0123     		movne	r3, #1
 2176 0072 B4F5501F 		cmp	r4, #3407872
 2177 0076 03D0     		beq	.L213
 2178 0078 13B1     		cbz	r3, .L213
 2179              		.loc 1 1291 3 discriminator 7 view .LVU633
 2180 007a B4F5701F 		cmp	r4, #3932160
 2181 007e 3AD1     		bne	.L220
 2182              	.L213:
1292:Drivers/STM32H7xx_HAL_Driver/Src/stm32h7xx_hal_rcc.c ****   /* RCC_MCO1 */
1293:Drivers/STM32H7xx_HAL_Driver/Src/stm32h7xx_hal_rcc.c ****   if (RCC_MCOx == RCC_MCO1)
 2183              		.loc 1 1293 3 is_stmt 1 view .LVU634
 2184              		.loc 1 1293 6 is_stmt 0 view .LVU635
 2185 0080 002E     		cmp	r6, #0
 2186 0082 44D1     		bne	.L214
1294:Drivers/STM32H7xx_HAL_Driver/Src/stm32h7xx_hal_rcc.c ****   {
1295:Drivers/STM32H7xx_HAL_Driver/Src/stm32h7xx_hal_rcc.c ****     assert_param(IS_RCC_MCO1SOURCE(RCC_MCOSource));
 2187              		.loc 1 1295 5 is_stmt 1 view .LVU636
 2188 0084 002D     		cmp	r5, #0
 2189 0086 18BF     		it	ne
 2190 0088 B5F5800F 		cmpne	r5, #4194304
 2191 008c 0AD0     		beq	.L215
 2192              		.loc 1 1295 5 is_stmt 0 discriminator 1 view .LVU637
 2193 008e B5F54003 		subs	r3, r5, #12582912
 2194 0092 18BF     		it	ne
 2195 0094 0123     		movne	r3, #1
 2196 0096 B5F5000F 		cmp	r5, #8388608
ARM GAS  /var/folders/g1/j12m_ky910s3_sv7d4yrsdn00000gn/T//ccmnBD4l.s 			page 70


 2197 009a 03D0     		beq	.L215
 2198 009c 13B1     		cbz	r3, .L215
 2199              		.loc 1 1295 5 discriminator 2 view .LVU638
 2200 009e B5F1807F 		cmp	r5, #16777216
 2201 00a2 2ED1     		bne	.L221
 2202              	.L215:
1296:Drivers/STM32H7xx_HAL_Driver/Src/stm32h7xx_hal_rcc.c **** 
1297:Drivers/STM32H7xx_HAL_Driver/Src/stm32h7xx_hal_rcc.c ****     /* MCO1 Clock Enable */
1298:Drivers/STM32H7xx_HAL_Driver/Src/stm32h7xx_hal_rcc.c ****     MCO1_CLK_ENABLE();
 2203              		.loc 1 1298 5 is_stmt 1 view .LVU639
 2204              	.LBB15:
 2205              		.loc 1 1298 5 view .LVU640
 2206              		.loc 1 1298 5 view .LVU641
 2207 00a4 394E     		ldr	r6, .L223
 2208              	.LVL185:
 2209              		.loc 1 1298 5 is_stmt 0 view .LVU642
 2210 00a6 D6F8E030 		ldr	r3, [r6, #224]
 2211 00aa 43F00103 		orr	r3, r3, #1
 2212 00ae C6F8E030 		str	r3, [r6, #224]
 2213              		.loc 1 1298 5 is_stmt 1 view .LVU643
 2214 00b2 D6F8E030 		ldr	r3, [r6, #224]
 2215 00b6 03F00103 		and	r3, r3, #1
 2216 00ba 0193     		str	r3, [sp, #4]
 2217              		.loc 1 1298 5 view .LVU644
 2218 00bc 019B     		ldr	r3, [sp, #4]
 2219              	.LBE15:
 2220              		.loc 1 1298 5 view .LVU645
1299:Drivers/STM32H7xx_HAL_Driver/Src/stm32h7xx_hal_rcc.c **** 
1300:Drivers/STM32H7xx_HAL_Driver/Src/stm32h7xx_hal_rcc.c ****     /* Configure the MCO1 pin in alternate function mode */
1301:Drivers/STM32H7xx_HAL_Driver/Src/stm32h7xx_hal_rcc.c ****     GPIO_InitStruct.Pin = MCO1_PIN;
 2221              		.loc 1 1301 5 view .LVU646
 2222              		.loc 1 1301 25 is_stmt 0 view .LVU647
 2223 00be 4FF48073 		mov	r3, #256
 2224 00c2 0393     		str	r3, [sp, #12]
1302:Drivers/STM32H7xx_HAL_Driver/Src/stm32h7xx_hal_rcc.c ****     GPIO_InitStruct.Mode = GPIO_MODE_AF_PP;
 2225              		.loc 1 1302 5 is_stmt 1 view .LVU648
 2226              		.loc 1 1302 26 is_stmt 0 view .LVU649
 2227 00c4 0223     		movs	r3, #2
 2228 00c6 0493     		str	r3, [sp, #16]
1303:Drivers/STM32H7xx_HAL_Driver/Src/stm32h7xx_hal_rcc.c ****     GPIO_InitStruct.Speed = GPIO_SPEED_FREQ_VERY_HIGH;
 2229              		.loc 1 1303 5 is_stmt 1 view .LVU650
 2230              		.loc 1 1303 27 is_stmt 0 view .LVU651
 2231 00c8 0323     		movs	r3, #3
 2232 00ca 0693     		str	r3, [sp, #24]
1304:Drivers/STM32H7xx_HAL_Driver/Src/stm32h7xx_hal_rcc.c ****     GPIO_InitStruct.Pull = GPIO_NOPULL;
 2233              		.loc 1 1304 5 is_stmt 1 view .LVU652
 2234              		.loc 1 1304 26 is_stmt 0 view .LVU653
 2235 00cc 0023     		movs	r3, #0
 2236 00ce 0593     		str	r3, [sp, #20]
1305:Drivers/STM32H7xx_HAL_Driver/Src/stm32h7xx_hal_rcc.c ****     GPIO_InitStruct.Alternate = GPIO_AF0_MCO;
 2237              		.loc 1 1305 5 is_stmt 1 view .LVU654
 2238              		.loc 1 1305 31 is_stmt 0 view .LVU655
 2239 00d0 0793     		str	r3, [sp, #28]
1306:Drivers/STM32H7xx_HAL_Driver/Src/stm32h7xx_hal_rcc.c ****     HAL_GPIO_Init(MCO1_GPIO_PORT, &GPIO_InitStruct);
 2240              		.loc 1 1306 5 is_stmt 1 view .LVU656
 2241 00d2 03A9     		add	r1, sp, #12
 2242 00d4 2E48     		ldr	r0, .L223+4
ARM GAS  /var/folders/g1/j12m_ky910s3_sv7d4yrsdn00000gn/T//ccmnBD4l.s 			page 71


 2243 00d6 FFF7FEFF 		bl	HAL_GPIO_Init
 2244              	.LVL186:
1307:Drivers/STM32H7xx_HAL_Driver/Src/stm32h7xx_hal_rcc.c **** 
1308:Drivers/STM32H7xx_HAL_Driver/Src/stm32h7xx_hal_rcc.c ****     /* Mask MCO1 and MCO1PRE[3:0] bits then Select MCO1 clock source and pre-scaler */
1309:Drivers/STM32H7xx_HAL_Driver/Src/stm32h7xx_hal_rcc.c ****     MODIFY_REG(RCC->CFGR, (RCC_CFGR_MCO1 | RCC_CFGR_MCO1PRE), (RCC_MCOSource | RCC_MCODiv));
 2245              		.loc 1 1309 5 view .LVU657
 2246 00da 3369     		ldr	r3, [r6, #16]
 2247 00dc 23F0FE73 		bic	r3, r3, #33292288
 2248 00e0 2C43     		orrs	r4, r4, r5
 2249              	.LVL187:
 2250              		.loc 1 1309 5 is_stmt 0 view .LVU658
 2251 00e2 1C43     		orrs	r4, r4, r3
 2252 00e4 3461     		str	r4, [r6, #16]
 2253              	.LVL188:
 2254              	.L211:
1310:Drivers/STM32H7xx_HAL_Driver/Src/stm32h7xx_hal_rcc.c ****   }
1311:Drivers/STM32H7xx_HAL_Driver/Src/stm32h7xx_hal_rcc.c ****   else
1312:Drivers/STM32H7xx_HAL_Driver/Src/stm32h7xx_hal_rcc.c ****   {
1313:Drivers/STM32H7xx_HAL_Driver/Src/stm32h7xx_hal_rcc.c ****     assert_param(IS_RCC_MCO2SOURCE(RCC_MCOSource));
1314:Drivers/STM32H7xx_HAL_Driver/Src/stm32h7xx_hal_rcc.c **** 
1315:Drivers/STM32H7xx_HAL_Driver/Src/stm32h7xx_hal_rcc.c ****     /* MCO2 Clock Enable */
1316:Drivers/STM32H7xx_HAL_Driver/Src/stm32h7xx_hal_rcc.c ****     MCO2_CLK_ENABLE();
1317:Drivers/STM32H7xx_HAL_Driver/Src/stm32h7xx_hal_rcc.c **** 
1318:Drivers/STM32H7xx_HAL_Driver/Src/stm32h7xx_hal_rcc.c ****     /* Configure the MCO2 pin in alternate function mode */
1319:Drivers/STM32H7xx_HAL_Driver/Src/stm32h7xx_hal_rcc.c ****     GPIO_InitStruct.Pin = MCO2_PIN;
1320:Drivers/STM32H7xx_HAL_Driver/Src/stm32h7xx_hal_rcc.c ****     GPIO_InitStruct.Mode = GPIO_MODE_AF_PP;
1321:Drivers/STM32H7xx_HAL_Driver/Src/stm32h7xx_hal_rcc.c ****     GPIO_InitStruct.Speed = GPIO_SPEED_FREQ_VERY_HIGH;
1322:Drivers/STM32H7xx_HAL_Driver/Src/stm32h7xx_hal_rcc.c ****     GPIO_InitStruct.Pull = GPIO_NOPULL;
1323:Drivers/STM32H7xx_HAL_Driver/Src/stm32h7xx_hal_rcc.c ****     GPIO_InitStruct.Alternate = GPIO_AF0_MCO;
1324:Drivers/STM32H7xx_HAL_Driver/Src/stm32h7xx_hal_rcc.c ****     HAL_GPIO_Init(MCO2_GPIO_PORT, &GPIO_InitStruct);
1325:Drivers/STM32H7xx_HAL_Driver/Src/stm32h7xx_hal_rcc.c **** 
1326:Drivers/STM32H7xx_HAL_Driver/Src/stm32h7xx_hal_rcc.c ****     /* Mask MCO2 and MCO2PRE[3:0] bits then Select MCO2 clock source and pre-scaler */
1327:Drivers/STM32H7xx_HAL_Driver/Src/stm32h7xx_hal_rcc.c ****     MODIFY_REG(RCC->CFGR, (RCC_CFGR_MCO2 | RCC_CFGR_MCO2PRE), (RCC_MCOSource | (RCC_MCODiv << 7U)))
1328:Drivers/STM32H7xx_HAL_Driver/Src/stm32h7xx_hal_rcc.c ****   }
1329:Drivers/STM32H7xx_HAL_Driver/Src/stm32h7xx_hal_rcc.c **** }
 2255              		.loc 1 1329 1 view .LVU659
 2256 00e6 08B0     		add	sp, sp, #32
 2257              	.LCFI6:
 2258              		.cfi_remember_state
 2259              		.cfi_def_cfa_offset 16
 2260              		@ sp needed
 2261 00e8 70BD     		pop	{r4, r5, r6, pc}
 2262              	.LVL189:
 2263              	.L219:
 2264              	.LCFI7:
 2265              		.cfi_restore_state
1290:Drivers/STM32H7xx_HAL_Driver/Src/stm32h7xx_hal_rcc.c ****   assert_param(IS_RCC_MCODIV(RCC_MCODiv));
 2266              		.loc 1 1290 3 discriminator 1 view .LVU660
 2267 00ea 40F20A51 		movw	r1, #1290
 2268              	.LVL190:
1290:Drivers/STM32H7xx_HAL_Driver/Src/stm32h7xx_hal_rcc.c ****   assert_param(IS_RCC_MCODIV(RCC_MCODiv));
 2269              		.loc 1 1290 3 discriminator 1 view .LVU661
 2270 00ee 2948     		ldr	r0, .L223+8
 2271              	.LVL191:
1290:Drivers/STM32H7xx_HAL_Driver/Src/stm32h7xx_hal_rcc.c ****   assert_param(IS_RCC_MCODIV(RCC_MCODiv));
 2272              		.loc 1 1290 3 discriminator 1 view .LVU662
 2273 00f0 FFF7FEFF 		bl	assert_failed
ARM GAS  /var/folders/g1/j12m_ky910s3_sv7d4yrsdn00000gn/T//ccmnBD4l.s 			page 72


 2274              	.LVL192:
1290:Drivers/STM32H7xx_HAL_Driver/Src/stm32h7xx_hal_rcc.c ****   assert_param(IS_RCC_MCODIV(RCC_MCODiv));
 2275              		.loc 1 1290 3 discriminator 1 view .LVU663
 2276 00f4 8BE7     		b	.L212
 2277              	.L220:
1291:Drivers/STM32H7xx_HAL_Driver/Src/stm32h7xx_hal_rcc.c ****   /* RCC_MCO1 */
 2278              		.loc 1 1291 3 discriminator 8 view .LVU664
 2279 00f6 40F20B51 		movw	r1, #1291
 2280 00fa 2648     		ldr	r0, .L223+8
 2281 00fc FFF7FEFF 		bl	assert_failed
 2282              	.LVL193:
 2283 0100 BEE7     		b	.L213
 2284              	.L221:
1295:Drivers/STM32H7xx_HAL_Driver/Src/stm32h7xx_hal_rcc.c **** 
 2285              		.loc 1 1295 5 discriminator 3 view .LVU665
 2286 0102 40F20F51 		movw	r1, #1295
 2287 0106 2348     		ldr	r0, .L223+8
 2288 0108 FFF7FEFF 		bl	assert_failed
 2289              	.LVL194:
 2290 010c CAE7     		b	.L215
 2291              	.L214:
1313:Drivers/STM32H7xx_HAL_Driver/Src/stm32h7xx_hal_rcc.c **** 
 2292              		.loc 1 1313 5 is_stmt 1 view .LVU666
 2293 010e 002D     		cmp	r5, #0
 2294 0110 18BF     		it	ne
 2295 0112 B5F1005F 		cmpne	r5, #536870912
 2296 0116 0FD0     		beq	.L217
1313:Drivers/STM32H7xx_HAL_Driver/Src/stm32h7xx_hal_rcc.c **** 
 2297              		.loc 1 1313 5 is_stmt 0 discriminator 1 view .LVU667
 2298 0118 B5F1C043 		subs	r3, r5, #1610612736
 2299 011c 18BF     		it	ne
 2300 011e 0123     		movne	r3, #1
 2301 0120 B5F1804F 		cmp	r5, #1073741824
 2302 0124 08D0     		beq	.L217
 2303 0126 3BB1     		cbz	r3, .L217
1313:Drivers/STM32H7xx_HAL_Driver/Src/stm32h7xx_hal_rcc.c **** 
 2304              		.loc 1 1313 5 discriminator 2 view .LVU668
 2305 0128 B5F12043 		subs	r3, r5, #-1610612736
 2306 012c 18BF     		it	ne
 2307 012e 0123     		movne	r3, #1
 2308 0130 B5F1004F 		cmp	r5, #-2147483648
 2309 0134 00D0     		beq	.L217
 2310 0136 13BB     		cbnz	r3, .L222
 2311              	.L217:
1316:Drivers/STM32H7xx_HAL_Driver/Src/stm32h7xx_hal_rcc.c **** 
 2312              		.loc 1 1316 5 is_stmt 1 view .LVU669
 2313              	.LBB16:
1316:Drivers/STM32H7xx_HAL_Driver/Src/stm32h7xx_hal_rcc.c **** 
 2314              		.loc 1 1316 5 view .LVU670
1316:Drivers/STM32H7xx_HAL_Driver/Src/stm32h7xx_hal_rcc.c **** 
 2315              		.loc 1 1316 5 view .LVU671
 2316 0138 144E     		ldr	r6, .L223
 2317              	.LVL195:
1316:Drivers/STM32H7xx_HAL_Driver/Src/stm32h7xx_hal_rcc.c **** 
 2318              		.loc 1 1316 5 is_stmt 0 view .LVU672
 2319 013a D6F8E030 		ldr	r3, [r6, #224]
 2320 013e 43F00403 		orr	r3, r3, #4
ARM GAS  /var/folders/g1/j12m_ky910s3_sv7d4yrsdn00000gn/T//ccmnBD4l.s 			page 73


 2321 0142 C6F8E030 		str	r3, [r6, #224]
1316:Drivers/STM32H7xx_HAL_Driver/Src/stm32h7xx_hal_rcc.c **** 
 2322              		.loc 1 1316 5 is_stmt 1 view .LVU673
 2323 0146 D6F8E030 		ldr	r3, [r6, #224]
 2324 014a 03F00403 		and	r3, r3, #4
 2325 014e 0293     		str	r3, [sp, #8]
1316:Drivers/STM32H7xx_HAL_Driver/Src/stm32h7xx_hal_rcc.c **** 
 2326              		.loc 1 1316 5 view .LVU674
 2327 0150 029B     		ldr	r3, [sp, #8]
 2328              	.LBE16:
1316:Drivers/STM32H7xx_HAL_Driver/Src/stm32h7xx_hal_rcc.c **** 
 2329              		.loc 1 1316 5 view .LVU675
1319:Drivers/STM32H7xx_HAL_Driver/Src/stm32h7xx_hal_rcc.c ****     GPIO_InitStruct.Mode = GPIO_MODE_AF_PP;
 2330              		.loc 1 1319 5 view .LVU676
1319:Drivers/STM32H7xx_HAL_Driver/Src/stm32h7xx_hal_rcc.c ****     GPIO_InitStruct.Mode = GPIO_MODE_AF_PP;
 2331              		.loc 1 1319 25 is_stmt 0 view .LVU677
 2332 0152 4FF40073 		mov	r3, #512
 2333 0156 0393     		str	r3, [sp, #12]
1320:Drivers/STM32H7xx_HAL_Driver/Src/stm32h7xx_hal_rcc.c ****     GPIO_InitStruct.Speed = GPIO_SPEED_FREQ_VERY_HIGH;
 2334              		.loc 1 1320 5 is_stmt 1 view .LVU678
1320:Drivers/STM32H7xx_HAL_Driver/Src/stm32h7xx_hal_rcc.c ****     GPIO_InitStruct.Speed = GPIO_SPEED_FREQ_VERY_HIGH;
 2335              		.loc 1 1320 26 is_stmt 0 view .LVU679
 2336 0158 0223     		movs	r3, #2
 2337 015a 0493     		str	r3, [sp, #16]
1321:Drivers/STM32H7xx_HAL_Driver/Src/stm32h7xx_hal_rcc.c ****     GPIO_InitStruct.Pull = GPIO_NOPULL;
 2338              		.loc 1 1321 5 is_stmt 1 view .LVU680
1321:Drivers/STM32H7xx_HAL_Driver/Src/stm32h7xx_hal_rcc.c ****     GPIO_InitStruct.Pull = GPIO_NOPULL;
 2339              		.loc 1 1321 27 is_stmt 0 view .LVU681
 2340 015c 0323     		movs	r3, #3
 2341 015e 0693     		str	r3, [sp, #24]
1322:Drivers/STM32H7xx_HAL_Driver/Src/stm32h7xx_hal_rcc.c ****     GPIO_InitStruct.Alternate = GPIO_AF0_MCO;
 2342              		.loc 1 1322 5 is_stmt 1 view .LVU682
1322:Drivers/STM32H7xx_HAL_Driver/Src/stm32h7xx_hal_rcc.c ****     GPIO_InitStruct.Alternate = GPIO_AF0_MCO;
 2343              		.loc 1 1322 26 is_stmt 0 view .LVU683
 2344 0160 0023     		movs	r3, #0
 2345 0162 0593     		str	r3, [sp, #20]
1323:Drivers/STM32H7xx_HAL_Driver/Src/stm32h7xx_hal_rcc.c ****     HAL_GPIO_Init(MCO2_GPIO_PORT, &GPIO_InitStruct);
 2346              		.loc 1 1323 5 is_stmt 1 view .LVU684
1323:Drivers/STM32H7xx_HAL_Driver/Src/stm32h7xx_hal_rcc.c ****     HAL_GPIO_Init(MCO2_GPIO_PORT, &GPIO_InitStruct);
 2347              		.loc 1 1323 31 is_stmt 0 view .LVU685
 2348 0164 0793     		str	r3, [sp, #28]
1324:Drivers/STM32H7xx_HAL_Driver/Src/stm32h7xx_hal_rcc.c **** 
 2349              		.loc 1 1324 5 is_stmt 1 view .LVU686
 2350 0166 03A9     		add	r1, sp, #12
 2351 0168 0B48     		ldr	r0, .L223+12
 2352 016a FFF7FEFF 		bl	HAL_GPIO_Init
 2353              	.LVL196:
1327:Drivers/STM32H7xx_HAL_Driver/Src/stm32h7xx_hal_rcc.c ****   }
 2354              		.loc 1 1327 5 view .LVU687
 2355 016e 3369     		ldr	r3, [r6, #16]
 2356 0170 23F07E43 		bic	r3, r3, #-33554432
 2357 0174 45EAC415 		orr	r5, r5, r4, lsl #7
 2358              	.LVL197:
1327:Drivers/STM32H7xx_HAL_Driver/Src/stm32h7xx_hal_rcc.c ****   }
 2359              		.loc 1 1327 5 is_stmt 0 view .LVU688
 2360 0178 2B43     		orrs	r3, r3, r5
 2361 017a 3361     		str	r3, [r6, #16]
ARM GAS  /var/folders/g1/j12m_ky910s3_sv7d4yrsdn00000gn/T//ccmnBD4l.s 			page 74


 2362              		.loc 1 1329 1 view .LVU689
 2363 017c B3E7     		b	.L211
 2364              	.LVL198:
 2365              	.L222:
1313:Drivers/STM32H7xx_HAL_Driver/Src/stm32h7xx_hal_rcc.c **** 
 2366              		.loc 1 1313 5 discriminator 3 view .LVU690
 2367 017e 40F22151 		movw	r1, #1313
 2368 0182 0448     		ldr	r0, .L223+8
 2369 0184 FFF7FEFF 		bl	assert_failed
 2370              	.LVL199:
 2371 0188 D6E7     		b	.L217
 2372              	.L224:
 2373 018a 00BF     		.align	2
 2374              	.L223:
 2375 018c 00440258 		.word	1476543488
 2376 0190 00000258 		.word	1476526080
 2377 0194 00000000 		.word	.LC0
 2378 0198 00080258 		.word	1476528128
 2379              		.cfi_endproc
 2380              	.LFE147:
 2382              		.section	.text.HAL_RCC_EnableCSS,"ax",%progbits
 2383              		.align	1
 2384              		.global	HAL_RCC_EnableCSS
 2385              		.syntax unified
 2386              		.thumb
 2387              		.thumb_func
 2389              	HAL_RCC_EnableCSS:
 2390              	.LFB148:
1330:Drivers/STM32H7xx_HAL_Driver/Src/stm32h7xx_hal_rcc.c **** 
1331:Drivers/STM32H7xx_HAL_Driver/Src/stm32h7xx_hal_rcc.c **** /**
1332:Drivers/STM32H7xx_HAL_Driver/Src/stm32h7xx_hal_rcc.c ****   * @brief  Enables the Clock Security System.
1333:Drivers/STM32H7xx_HAL_Driver/Src/stm32h7xx_hal_rcc.c ****   * @note   If a failure is detected on the HSE oscillator clock, this oscillator
1334:Drivers/STM32H7xx_HAL_Driver/Src/stm32h7xx_hal_rcc.c ****   *         is automatically disabled and an interrupt is generated to inform the
1335:Drivers/STM32H7xx_HAL_Driver/Src/stm32h7xx_hal_rcc.c ****   *         software about the failure (Clock Security System Interrupt, CSSI),
1336:Drivers/STM32H7xx_HAL_Driver/Src/stm32h7xx_hal_rcc.c ****   *         allowing the MCU to perform rescue operations. The CSSI is linked to
1337:Drivers/STM32H7xx_HAL_Driver/Src/stm32h7xx_hal_rcc.c ****   *         the Cortex-M NMI (Non-Mask-able Interrupt) exception vector.
1338:Drivers/STM32H7xx_HAL_Driver/Src/stm32h7xx_hal_rcc.c ****   * @retval None
1339:Drivers/STM32H7xx_HAL_Driver/Src/stm32h7xx_hal_rcc.c ****   */
1340:Drivers/STM32H7xx_HAL_Driver/Src/stm32h7xx_hal_rcc.c **** void HAL_RCC_EnableCSS(void)
1341:Drivers/STM32H7xx_HAL_Driver/Src/stm32h7xx_hal_rcc.c **** {
 2391              		.loc 1 1341 1 is_stmt 1 view -0
 2392              		.cfi_startproc
 2393              		@ args = 0, pretend = 0, frame = 0
 2394              		@ frame_needed = 0, uses_anonymous_args = 0
 2395              		@ link register save eliminated.
1342:Drivers/STM32H7xx_HAL_Driver/Src/stm32h7xx_hal_rcc.c ****   SET_BIT(RCC->CR, RCC_CR_CSSHSEON) ;
 2396              		.loc 1 1342 3 view .LVU692
 2397 0000 024A     		ldr	r2, .L226
 2398 0002 1368     		ldr	r3, [r2]
 2399 0004 43F40023 		orr	r3, r3, #524288
 2400 0008 1360     		str	r3, [r2]
1343:Drivers/STM32H7xx_HAL_Driver/Src/stm32h7xx_hal_rcc.c **** }
 2401              		.loc 1 1343 1 is_stmt 0 view .LVU693
 2402 000a 7047     		bx	lr
 2403              	.L227:
 2404              		.align	2
 2405              	.L226:
ARM GAS  /var/folders/g1/j12m_ky910s3_sv7d4yrsdn00000gn/T//ccmnBD4l.s 			page 75


 2406 000c 00440258 		.word	1476543488
 2407              		.cfi_endproc
 2408              	.LFE148:
 2410              		.section	.text.HAL_RCC_DisableCSS,"ax",%progbits
 2411              		.align	1
 2412              		.global	HAL_RCC_DisableCSS
 2413              		.syntax unified
 2414              		.thumb
 2415              		.thumb_func
 2417              	HAL_RCC_DisableCSS:
 2418              	.LFB149:
1344:Drivers/STM32H7xx_HAL_Driver/Src/stm32h7xx_hal_rcc.c **** 
1345:Drivers/STM32H7xx_HAL_Driver/Src/stm32h7xx_hal_rcc.c **** /**
1346:Drivers/STM32H7xx_HAL_Driver/Src/stm32h7xx_hal_rcc.c ****   * @brief  Disables the Clock Security System.
1347:Drivers/STM32H7xx_HAL_Driver/Src/stm32h7xx_hal_rcc.c ****   * @retval None
1348:Drivers/STM32H7xx_HAL_Driver/Src/stm32h7xx_hal_rcc.c ****   */
1349:Drivers/STM32H7xx_HAL_Driver/Src/stm32h7xx_hal_rcc.c **** void HAL_RCC_DisableCSS(void)
1350:Drivers/STM32H7xx_HAL_Driver/Src/stm32h7xx_hal_rcc.c **** {
 2419              		.loc 1 1350 1 is_stmt 1 view -0
 2420              		.cfi_startproc
 2421              		@ args = 0, pretend = 0, frame = 0
 2422              		@ frame_needed = 0, uses_anonymous_args = 0
 2423              		@ link register save eliminated.
1351:Drivers/STM32H7xx_HAL_Driver/Src/stm32h7xx_hal_rcc.c ****   CLEAR_BIT(RCC->CR, RCC_CR_CSSHSEON);
 2424              		.loc 1 1351 3 view .LVU695
 2425 0000 024A     		ldr	r2, .L229
 2426 0002 1368     		ldr	r3, [r2]
 2427 0004 23F40023 		bic	r3, r3, #524288
 2428 0008 1360     		str	r3, [r2]
1352:Drivers/STM32H7xx_HAL_Driver/Src/stm32h7xx_hal_rcc.c **** }
 2429              		.loc 1 1352 1 is_stmt 0 view .LVU696
 2430 000a 7047     		bx	lr
 2431              	.L230:
 2432              		.align	2
 2433              	.L229:
 2434 000c 00440258 		.word	1476543488
 2435              		.cfi_endproc
 2436              	.LFE149:
 2438              		.section	.text.HAL_RCC_GetSysClockFreq,"ax",%progbits
 2439              		.align	1
 2440              		.global	HAL_RCC_GetSysClockFreq
 2441              		.syntax unified
 2442              		.thumb
 2443              		.thumb_func
 2445              	HAL_RCC_GetSysClockFreq:
 2446              	.LFB150:
1353:Drivers/STM32H7xx_HAL_Driver/Src/stm32h7xx_hal_rcc.c **** 
1354:Drivers/STM32H7xx_HAL_Driver/Src/stm32h7xx_hal_rcc.c **** /**
1355:Drivers/STM32H7xx_HAL_Driver/Src/stm32h7xx_hal_rcc.c ****   * @brief  Returns the SYSCLK frequency
1356:Drivers/STM32H7xx_HAL_Driver/Src/stm32h7xx_hal_rcc.c ****   *
1357:Drivers/STM32H7xx_HAL_Driver/Src/stm32h7xx_hal_rcc.c ****   * @note   The system frequency computed by this function is not the real
1358:Drivers/STM32H7xx_HAL_Driver/Src/stm32h7xx_hal_rcc.c ****   *         frequency in the chip. It is calculated based on the predefined
1359:Drivers/STM32H7xx_HAL_Driver/Src/stm32h7xx_hal_rcc.c ****   *         constant and the selected clock source:
1360:Drivers/STM32H7xx_HAL_Driver/Src/stm32h7xx_hal_rcc.c ****   * @note     If SYSCLK source is CSI, function returns values based on CSI_VALUE(*)
1361:Drivers/STM32H7xx_HAL_Driver/Src/stm32h7xx_hal_rcc.c ****   * @note     If SYSCLK source is HSI, function returns values based on HSI_VALUE(**)
1362:Drivers/STM32H7xx_HAL_Driver/Src/stm32h7xx_hal_rcc.c ****   * @note     If SYSCLK source is HSE, function returns values based on HSE_VALUE(***)
1363:Drivers/STM32H7xx_HAL_Driver/Src/stm32h7xx_hal_rcc.c ****   * @note     If SYSCLK source is PLL, function returns values based on CSI_VALUE(*),
ARM GAS  /var/folders/g1/j12m_ky910s3_sv7d4yrsdn00000gn/T//ccmnBD4l.s 			page 76


1364:Drivers/STM32H7xx_HAL_Driver/Src/stm32h7xx_hal_rcc.c ****   *           HSI_VALUE(**) or HSE_VALUE(***) multiplied/divided by the PLL factors.
1365:Drivers/STM32H7xx_HAL_Driver/Src/stm32h7xx_hal_rcc.c ****   * @note     (*) CSI_VALUE is a constant defined in stm32h7xx_hal_conf.h file (default value
1366:Drivers/STM32H7xx_HAL_Driver/Src/stm32h7xx_hal_rcc.c ****   *               4 MHz) but the real value may vary depending on the variations
1367:Drivers/STM32H7xx_HAL_Driver/Src/stm32h7xx_hal_rcc.c ****   *               in voltage and temperature.
1368:Drivers/STM32H7xx_HAL_Driver/Src/stm32h7xx_hal_rcc.c ****   * @note     (**) HSI_VALUE is a constant defined in stm32h7xx_hal_conf.h file (default value
1369:Drivers/STM32H7xx_HAL_Driver/Src/stm32h7xx_hal_rcc.c ****   *               64 MHz) but the real value may vary depending on the variations
1370:Drivers/STM32H7xx_HAL_Driver/Src/stm32h7xx_hal_rcc.c ****   *               in voltage and temperature.
1371:Drivers/STM32H7xx_HAL_Driver/Src/stm32h7xx_hal_rcc.c ****   * @note     (***) HSE_VALUE is a constant defined in stm32h7xx_hal_conf.h file (default value
1372:Drivers/STM32H7xx_HAL_Driver/Src/stm32h7xx_hal_rcc.c ****   *                25 MHz), user has to ensure that HSE_VALUE is same as the real
1373:Drivers/STM32H7xx_HAL_Driver/Src/stm32h7xx_hal_rcc.c ****   *                frequency of the crystal used. Otherwise, this function may
1374:Drivers/STM32H7xx_HAL_Driver/Src/stm32h7xx_hal_rcc.c ****   *                have wrong result.
1375:Drivers/STM32H7xx_HAL_Driver/Src/stm32h7xx_hal_rcc.c ****   *
1376:Drivers/STM32H7xx_HAL_Driver/Src/stm32h7xx_hal_rcc.c ****   * @note   The result of this function could be not correct when using fractional
1377:Drivers/STM32H7xx_HAL_Driver/Src/stm32h7xx_hal_rcc.c ****   *         value for HSE crystal.
1378:Drivers/STM32H7xx_HAL_Driver/Src/stm32h7xx_hal_rcc.c ****   *
1379:Drivers/STM32H7xx_HAL_Driver/Src/stm32h7xx_hal_rcc.c ****   * @note   This function can be used by the user application to compute the
1380:Drivers/STM32H7xx_HAL_Driver/Src/stm32h7xx_hal_rcc.c ****   *         baud rate for the communication peripherals or configure other parameters.
1381:Drivers/STM32H7xx_HAL_Driver/Src/stm32h7xx_hal_rcc.c ****   *
1382:Drivers/STM32H7xx_HAL_Driver/Src/stm32h7xx_hal_rcc.c ****   * @note   Each time SYSCLK changes, this function must be called to update the
1383:Drivers/STM32H7xx_HAL_Driver/Src/stm32h7xx_hal_rcc.c ****   *         right SYSCLK value. Otherwise, any configuration based on this function will be incorre
1384:Drivers/STM32H7xx_HAL_Driver/Src/stm32h7xx_hal_rcc.c ****   *
1385:Drivers/STM32H7xx_HAL_Driver/Src/stm32h7xx_hal_rcc.c ****   *
1386:Drivers/STM32H7xx_HAL_Driver/Src/stm32h7xx_hal_rcc.c ****   * @retval SYSCLK frequency
1387:Drivers/STM32H7xx_HAL_Driver/Src/stm32h7xx_hal_rcc.c ****   */
1388:Drivers/STM32H7xx_HAL_Driver/Src/stm32h7xx_hal_rcc.c **** uint32_t HAL_RCC_GetSysClockFreq(void)
1389:Drivers/STM32H7xx_HAL_Driver/Src/stm32h7xx_hal_rcc.c **** {
 2447              		.loc 1 1389 1 is_stmt 1 view -0
 2448              		.cfi_startproc
 2449              		@ args = 0, pretend = 0, frame = 0
 2450              		@ frame_needed = 0, uses_anonymous_args = 0
 2451              		@ link register save eliminated.
1390:Drivers/STM32H7xx_HAL_Driver/Src/stm32h7xx_hal_rcc.c ****   uint32_t pllp, pllsource, pllm, pllfracen, hsivalue;
 2452              		.loc 1 1390 3 view .LVU698
1391:Drivers/STM32H7xx_HAL_Driver/Src/stm32h7xx_hal_rcc.c ****   float_t fracn1, pllvco;
 2453              		.loc 1 1391 3 view .LVU699
1392:Drivers/STM32H7xx_HAL_Driver/Src/stm32h7xx_hal_rcc.c ****   uint32_t sysclockfreq;
 2454              		.loc 1 1392 3 view .LVU700
1393:Drivers/STM32H7xx_HAL_Driver/Src/stm32h7xx_hal_rcc.c **** 
1394:Drivers/STM32H7xx_HAL_Driver/Src/stm32h7xx_hal_rcc.c ****   /* Get SYSCLK source -------------------------------------------------------*/
1395:Drivers/STM32H7xx_HAL_Driver/Src/stm32h7xx_hal_rcc.c **** 
1396:Drivers/STM32H7xx_HAL_Driver/Src/stm32h7xx_hal_rcc.c ****   switch (RCC->CFGR & RCC_CFGR_SWS)
 2455              		.loc 1 1396 3 view .LVU701
 2456              		.loc 1 1396 14 is_stmt 0 view .LVU702
 2457 0000 754B     		ldr	r3, .L245
 2458 0002 1B69     		ldr	r3, [r3, #16]
 2459              		.loc 1 1396 21 view .LVU703
 2460 0004 03F03803 		and	r3, r3, #56
 2461              		.loc 1 1396 3 view .LVU704
 2462 0008 102B     		cmp	r3, #16
 2463 000a 00F0DE80 		beq	.L239
 2464 000e 182B     		cmp	r3, #24
 2465 0010 0FD0     		beq	.L233
 2466 0012 002B     		cmp	r3, #0
 2467 0014 40F0DB80 		bne	.L240
1397:Drivers/STM32H7xx_HAL_Driver/Src/stm32h7xx_hal_rcc.c ****   {
1398:Drivers/STM32H7xx_HAL_Driver/Src/stm32h7xx_hal_rcc.c ****     case RCC_CFGR_SWS_HSI:  /* HSI used as system clock source */
1399:Drivers/STM32H7xx_HAL_Driver/Src/stm32h7xx_hal_rcc.c **** 
ARM GAS  /var/folders/g1/j12m_ky910s3_sv7d4yrsdn00000gn/T//ccmnBD4l.s 			page 77


1400:Drivers/STM32H7xx_HAL_Driver/Src/stm32h7xx_hal_rcc.c ****       if (__HAL_RCC_GET_FLAG(RCC_FLAG_HSIDIV) != 0U)
 2468              		.loc 1 1400 7 is_stmt 1 view .LVU705
 2469              		.loc 1 1400 11 is_stmt 0 view .LVU706
 2470 0018 6F4B     		ldr	r3, .L245
 2471 001a 1B68     		ldr	r3, [r3]
 2472              		.loc 1 1400 10 view .LVU707
 2473 001c 13F0200F 		tst	r3, #32
 2474 0020 00F0D780 		beq	.L241
1401:Drivers/STM32H7xx_HAL_Driver/Src/stm32h7xx_hal_rcc.c ****       {
1402:Drivers/STM32H7xx_HAL_Driver/Src/stm32h7xx_hal_rcc.c ****         sysclockfreq = (uint32_t)(HSI_VALUE >> (__HAL_RCC_GET_HSI_DIVIDER() >> 3));
 2475              		.loc 1 1402 9 is_stmt 1 view .LVU708
 2476              		.loc 1 1402 49 is_stmt 0 view .LVU709
 2477 0024 6C4B     		ldr	r3, .L245
 2478 0026 1B68     		ldr	r3, [r3]
 2479              		.loc 1 1402 77 view .LVU710
 2480 0028 C3F3C103 		ubfx	r3, r3, #3, #2
 2481              		.loc 1 1402 22 view .LVU711
 2482 002c 6B48     		ldr	r0, .L245+4
 2483 002e D840     		lsrs	r0, r0, r3
 2484              	.LVL200:
 2485              		.loc 1 1402 22 view .LVU712
 2486 0030 7047     		bx	lr
 2487              	.LVL201:
 2488              	.L233:
1389:Drivers/STM32H7xx_HAL_Driver/Src/stm32h7xx_hal_rcc.c ****   uint32_t pllp, pllsource, pllm, pllfracen, hsivalue;
 2489              		.loc 1 1389 1 view .LVU713
 2490 0032 10B4     		push	{r4}
 2491              	.LCFI8:
 2492              		.cfi_def_cfa_offset 4
 2493              		.cfi_offset 4, -4
1403:Drivers/STM32H7xx_HAL_Driver/Src/stm32h7xx_hal_rcc.c ****       }
1404:Drivers/STM32H7xx_HAL_Driver/Src/stm32h7xx_hal_rcc.c ****       else
1405:Drivers/STM32H7xx_HAL_Driver/Src/stm32h7xx_hal_rcc.c ****       {
1406:Drivers/STM32H7xx_HAL_Driver/Src/stm32h7xx_hal_rcc.c ****         sysclockfreq = (uint32_t) HSI_VALUE;
1407:Drivers/STM32H7xx_HAL_Driver/Src/stm32h7xx_hal_rcc.c ****       }
1408:Drivers/STM32H7xx_HAL_Driver/Src/stm32h7xx_hal_rcc.c **** 
1409:Drivers/STM32H7xx_HAL_Driver/Src/stm32h7xx_hal_rcc.c ****       break;
1410:Drivers/STM32H7xx_HAL_Driver/Src/stm32h7xx_hal_rcc.c **** 
1411:Drivers/STM32H7xx_HAL_Driver/Src/stm32h7xx_hal_rcc.c ****     case RCC_CFGR_SWS_CSI:  /* CSI used as system clock  source */
1412:Drivers/STM32H7xx_HAL_Driver/Src/stm32h7xx_hal_rcc.c ****       sysclockfreq = CSI_VALUE;
1413:Drivers/STM32H7xx_HAL_Driver/Src/stm32h7xx_hal_rcc.c ****       break;
1414:Drivers/STM32H7xx_HAL_Driver/Src/stm32h7xx_hal_rcc.c **** 
1415:Drivers/STM32H7xx_HAL_Driver/Src/stm32h7xx_hal_rcc.c ****     case RCC_CFGR_SWS_HSE:  /* HSE used as system clock  source */
1416:Drivers/STM32H7xx_HAL_Driver/Src/stm32h7xx_hal_rcc.c ****       sysclockfreq = HSE_VALUE;
1417:Drivers/STM32H7xx_HAL_Driver/Src/stm32h7xx_hal_rcc.c ****       break;
1418:Drivers/STM32H7xx_HAL_Driver/Src/stm32h7xx_hal_rcc.c **** 
1419:Drivers/STM32H7xx_HAL_Driver/Src/stm32h7xx_hal_rcc.c ****     case RCC_CFGR_SWS_PLL1:  /* PLL1 used as system clock  source */
1420:Drivers/STM32H7xx_HAL_Driver/Src/stm32h7xx_hal_rcc.c **** 
1421:Drivers/STM32H7xx_HAL_Driver/Src/stm32h7xx_hal_rcc.c ****       /* PLL_VCO = (HSE_VALUE or HSI_VALUE or CSI_VALUE/ PLLM) * PLLN
1422:Drivers/STM32H7xx_HAL_Driver/Src/stm32h7xx_hal_rcc.c ****       SYSCLK = PLL_VCO / PLLR
1423:Drivers/STM32H7xx_HAL_Driver/Src/stm32h7xx_hal_rcc.c ****       */
1424:Drivers/STM32H7xx_HAL_Driver/Src/stm32h7xx_hal_rcc.c ****       pllsource = (RCC->PLLCKSELR & RCC_PLLCKSELR_PLLSRC);
 2494              		.loc 1 1424 7 is_stmt 1 view .LVU714
 2495              		.loc 1 1424 23 is_stmt 0 view .LVU715
 2496 0034 684B     		ldr	r3, .L245
 2497 0036 9A6A     		ldr	r2, [r3, #40]
 2498              		.loc 1 1424 17 view .LVU716
ARM GAS  /var/folders/g1/j12m_ky910s3_sv7d4yrsdn00000gn/T//ccmnBD4l.s 			page 78


 2499 0038 02F00302 		and	r2, r2, #3
 2500              	.LVL202:
1425:Drivers/STM32H7xx_HAL_Driver/Src/stm32h7xx_hal_rcc.c ****       pllm = ((RCC->PLLCKSELR & RCC_PLLCKSELR_DIVM1) >> 4)  ;
 2501              		.loc 1 1425 7 is_stmt 1 view .LVU717
 2502              		.loc 1 1425 19 is_stmt 0 view .LVU718
 2503 003c 9C6A     		ldr	r4, [r3, #40]
 2504              		.loc 1 1425 12 view .LVU719
 2505 003e C4F30510 		ubfx	r0, r4, #4, #6
 2506              	.LVL203:
1426:Drivers/STM32H7xx_HAL_Driver/Src/stm32h7xx_hal_rcc.c ****       pllfracen = ((RCC-> PLLCFGR & RCC_PLLCFGR_PLL1FRACEN) >> RCC_PLLCFGR_PLL1FRACEN_Pos);
 2507              		.loc 1 1426 7 is_stmt 1 view .LVU720
 2508              		.loc 1 1426 24 is_stmt 0 view .LVU721
 2509 0042 D96A     		ldr	r1, [r3, #44]
 2510              		.loc 1 1426 17 view .LVU722
 2511 0044 01F00101 		and	r1, r1, #1
 2512              	.LVL204:
1427:Drivers/STM32H7xx_HAL_Driver/Src/stm32h7xx_hal_rcc.c ****       fracn1 = (float_t)(uint32_t)(pllfracen * ((RCC->PLL1FRACR & RCC_PLL1FRACR_FRACN1) >> 3));
 2513              		.loc 1 1427 7 is_stmt 1 view .LVU723
 2514              		.loc 1 1427 53 is_stmt 0 view .LVU724
 2515 0048 5B6B     		ldr	r3, [r3, #52]
 2516              		.loc 1 1427 89 view .LVU725
 2517 004a C3F3CC03 		ubfx	r3, r3, #3, #13
 2518              		.loc 1 1427 25 view .LVU726
 2519 004e 01FB03F3 		mul	r3, r1, r3
 2520              		.loc 1 1427 14 view .LVU727
 2521 0052 07EE903A 		vmov	s15, r3	@ int
 2522 0056 F8EE677A 		vcvt.f32.u32	s15, s15
 2523              	.LVL205:
1428:Drivers/STM32H7xx_HAL_Driver/Src/stm32h7xx_hal_rcc.c **** 
1429:Drivers/STM32H7xx_HAL_Driver/Src/stm32h7xx_hal_rcc.c ****       if (pllm != 0U)
 2524              		.loc 1 1429 7 is_stmt 1 view .LVU728
 2525              		.loc 1 1429 10 is_stmt 0 view .LVU729
 2526 005a 14F47C7F 		tst	r4, #1008
 2527 005e 77D0     		beq	.L231
1430:Drivers/STM32H7xx_HAL_Driver/Src/stm32h7xx_hal_rcc.c ****       {
1431:Drivers/STM32H7xx_HAL_Driver/Src/stm32h7xx_hal_rcc.c ****         switch (pllsource)
 2528              		.loc 1 1431 9 is_stmt 1 view .LVU730
 2529 0060 012A     		cmp	r2, #1
 2530 0062 4AD0     		beq	.L234
 2531 0064 022A     		cmp	r2, #2
 2532 0066 76D0     		beq	.L235
 2533 0068 002A     		cmp	r2, #0
 2534 006a 40F09180 		bne	.L236
1432:Drivers/STM32H7xx_HAL_Driver/Src/stm32h7xx_hal_rcc.c ****         {
1433:Drivers/STM32H7xx_HAL_Driver/Src/stm32h7xx_hal_rcc.c ****           case RCC_PLLSOURCE_HSI:  /* HSI used as PLL clock source */
1434:Drivers/STM32H7xx_HAL_Driver/Src/stm32h7xx_hal_rcc.c **** 
1435:Drivers/STM32H7xx_HAL_Driver/Src/stm32h7xx_hal_rcc.c ****             if (__HAL_RCC_GET_FLAG(RCC_FLAG_HSIDIV) != 0U)
 2535              		.loc 1 1435 13 view .LVU731
 2536              		.loc 1 1435 17 is_stmt 0 view .LVU732
 2537 006e 5A4B     		ldr	r3, .L245
 2538 0070 1B68     		ldr	r3, [r3]
 2539              		.loc 1 1435 16 view .LVU733
 2540 0072 13F0200F 		tst	r3, #32
 2541 0076 23D0     		beq	.L237
1436:Drivers/STM32H7xx_HAL_Driver/Src/stm32h7xx_hal_rcc.c ****             {
1437:Drivers/STM32H7xx_HAL_Driver/Src/stm32h7xx_hal_rcc.c ****               hsivalue = (HSI_VALUE >> (__HAL_RCC_GET_HSI_DIVIDER() >> 3));
 2542              		.loc 1 1437 15 is_stmt 1 view .LVU734
ARM GAS  /var/folders/g1/j12m_ky910s3_sv7d4yrsdn00000gn/T//ccmnBD4l.s 			page 79


 2543              		.loc 1 1437 41 is_stmt 0 view .LVU735
 2544 0078 5749     		ldr	r1, .L245
 2545              	.LVL206:
 2546              		.loc 1 1437 41 view .LVU736
 2547 007a 0A68     		ldr	r2, [r1]
 2548              	.LVL207:
 2549              		.loc 1 1437 69 view .LVU737
 2550 007c C2F3C102 		ubfx	r2, r2, #3, #2
 2551              		.loc 1 1437 24 view .LVU738
 2552 0080 564B     		ldr	r3, .L245+4
 2553 0082 D340     		lsrs	r3, r3, r2
 2554              	.LVL208:
1438:Drivers/STM32H7xx_HAL_Driver/Src/stm32h7xx_hal_rcc.c ****               pllvco = ((float_t)hsivalue / (float_t)pllm) * ((float_t)(uint32_t)(RCC->PLL1DIVR & R
 2555              		.loc 1 1438 15 is_stmt 1 view .LVU739
 2556              		.loc 1 1438 25 is_stmt 0 view .LVU740
 2557 0084 07EE103A 		vmov	s14, r3	@ int
 2558 0088 F8EE476A 		vcvt.f32.u32	s13, s14
 2559              		.loc 1 1438 45 view .LVU741
 2560 008c 07EE100A 		vmov	s14, r0	@ int
 2561 0090 B8EE476A 		vcvt.f32.u32	s12, s14
 2562              		.loc 1 1438 43 view .LVU742
 2563 0094 86EE867A 		vdiv.f32	s14, s13, s12
 2564              		.loc 1 1438 86 view .LVU743
 2565 0098 0B6B     		ldr	r3, [r1, #48]
 2566              	.LVL209:
 2567              		.loc 1 1438 72 view .LVU744
 2568 009a C3F30803 		ubfx	r3, r3, #0, #9
 2569              		.loc 1 1438 63 view .LVU745
 2570 009e 06EE903A 		vmov	s13, r3	@ int
 2571 00a2 F8EE666A 		vcvt.f32.u32	s13, s13
 2572              		.loc 1 1438 126 view .LVU746
 2573 00a6 9FED4E6A 		vldr.32	s12, .L245+8
 2574 00aa 67EE867A 		vmul.f32	s15, s15, s12
 2575              	.LVL210:
 2576              		.loc 1 1438 116 view .LVU747
 2577 00ae 76EEA77A 		vadd.f32	s15, s13, s15
 2578              		.loc 1 1438 145 view .LVU748
 2579 00b2 F7EE006A 		vmov.f32	s13, #1.0e+0
 2580 00b6 77EEA67A 		vadd.f32	s15, s15, s13
 2581              		.loc 1 1438 22 view .LVU749
 2582 00ba 27EE277A 		vmul.f32	s14, s14, s15
 2583              	.LVL211:
 2584              		.loc 1 1438 22 view .LVU750
 2585 00be 38E0     		b	.L238
 2586              	.LVL212:
 2587              	.L237:
1439:Drivers/STM32H7xx_HAL_Driver/Src/stm32h7xx_hal_rcc.c ****             }
1440:Drivers/STM32H7xx_HAL_Driver/Src/stm32h7xx_hal_rcc.c ****             else
1441:Drivers/STM32H7xx_HAL_Driver/Src/stm32h7xx_hal_rcc.c ****             {
1442:Drivers/STM32H7xx_HAL_Driver/Src/stm32h7xx_hal_rcc.c ****               pllvco = ((float_t)HSI_VALUE / (float_t)pllm) * ((float_t)(uint32_t)(RCC->PLL1DIVR & 
 2588              		.loc 1 1442 15 is_stmt 1 view .LVU751
 2589              		.loc 1 1442 46 is_stmt 0 view .LVU752
 2590 00c0 07EE100A 		vmov	s14, r0	@ int
 2591 00c4 F8EE476A 		vcvt.f32.u32	s13, s14
 2592              		.loc 1 1442 44 view .LVU753
 2593 00c8 9FED466A 		vldr.32	s12, .L245+12
 2594 00cc 86EE267A 		vdiv.f32	s14, s12, s13
ARM GAS  /var/folders/g1/j12m_ky910s3_sv7d4yrsdn00000gn/T//ccmnBD4l.s 			page 80


 2595              		.loc 1 1442 87 view .LVU754
 2596 00d0 414B     		ldr	r3, .L245
 2597 00d2 1B6B     		ldr	r3, [r3, #48]
 2598              		.loc 1 1442 73 view .LVU755
 2599 00d4 C3F30803 		ubfx	r3, r3, #0, #9
 2600              		.loc 1 1442 64 view .LVU756
 2601 00d8 06EE903A 		vmov	s13, r3	@ int
 2602 00dc F8EE666A 		vcvt.f32.u32	s13, s13
 2603              		.loc 1 1442 127 view .LVU757
 2604 00e0 9FED3F6A 		vldr.32	s12, .L245+8
 2605 00e4 67EE867A 		vmul.f32	s15, s15, s12
 2606              	.LVL213:
 2607              		.loc 1 1442 117 view .LVU758
 2608 00e8 76EEA77A 		vadd.f32	s15, s13, s15
 2609              		.loc 1 1442 146 view .LVU759
 2610 00ec F7EE006A 		vmov.f32	s13, #1.0e+0
 2611 00f0 77EEA67A 		vadd.f32	s15, s15, s13
 2612              		.loc 1 1442 22 view .LVU760
 2613 00f4 27EE277A 		vmul.f32	s14, s14, s15
 2614              	.LVL214:
 2615              		.loc 1 1442 22 view .LVU761
 2616 00f8 1BE0     		b	.L238
 2617              	.LVL215:
 2618              	.L234:
1443:Drivers/STM32H7xx_HAL_Driver/Src/stm32h7xx_hal_rcc.c ****             }
1444:Drivers/STM32H7xx_HAL_Driver/Src/stm32h7xx_hal_rcc.c ****             break;
1445:Drivers/STM32H7xx_HAL_Driver/Src/stm32h7xx_hal_rcc.c **** 
1446:Drivers/STM32H7xx_HAL_Driver/Src/stm32h7xx_hal_rcc.c ****           case RCC_PLLSOURCE_CSI:  /* CSI used as PLL clock source */
1447:Drivers/STM32H7xx_HAL_Driver/Src/stm32h7xx_hal_rcc.c ****             pllvco = ((float_t)CSI_VALUE / (float_t)pllm) * ((float_t)(uint32_t)(RCC->PLL1DIVR & RC
 2619              		.loc 1 1447 13 is_stmt 1 view .LVU762
 2620              		.loc 1 1447 44 is_stmt 0 view .LVU763
 2621 00fa 07EE100A 		vmov	s14, r0	@ int
 2622 00fe F8EE476A 		vcvt.f32.u32	s13, s14
 2623              		.loc 1 1447 42 view .LVU764
 2624 0102 9FED396A 		vldr.32	s12, .L245+16
 2625 0106 86EE267A 		vdiv.f32	s14, s12, s13
 2626              		.loc 1 1447 85 view .LVU765
 2627 010a 334B     		ldr	r3, .L245
 2628 010c 1B6B     		ldr	r3, [r3, #48]
 2629              		.loc 1 1447 71 view .LVU766
 2630 010e C3F30803 		ubfx	r3, r3, #0, #9
 2631              		.loc 1 1447 62 view .LVU767
 2632 0112 06EE903A 		vmov	s13, r3	@ int
 2633 0116 F8EE666A 		vcvt.f32.u32	s13, s13
 2634              		.loc 1 1447 125 view .LVU768
 2635 011a 9FED316A 		vldr.32	s12, .L245+8
 2636 011e 67EE867A 		vmul.f32	s15, s15, s12
 2637              	.LVL216:
 2638              		.loc 1 1447 115 view .LVU769
 2639 0122 76EEA77A 		vadd.f32	s15, s13, s15
 2640              		.loc 1 1447 144 view .LVU770
 2641 0126 F7EE006A 		vmov.f32	s13, #1.0e+0
 2642 012a 77EEA67A 		vadd.f32	s15, s15, s13
 2643              		.loc 1 1447 20 view .LVU771
 2644 012e 27EE277A 		vmul.f32	s14, s14, s15
 2645              	.LVL217:
1448:Drivers/STM32H7xx_HAL_Driver/Src/stm32h7xx_hal_rcc.c ****             break;
ARM GAS  /var/folders/g1/j12m_ky910s3_sv7d4yrsdn00000gn/T//ccmnBD4l.s 			page 81


 2646              		.loc 1 1448 13 is_stmt 1 view .LVU772
 2647              	.L238:
1449:Drivers/STM32H7xx_HAL_Driver/Src/stm32h7xx_hal_rcc.c **** 
1450:Drivers/STM32H7xx_HAL_Driver/Src/stm32h7xx_hal_rcc.c ****           case RCC_PLLSOURCE_HSE:  /* HSE used as PLL clock source */
1451:Drivers/STM32H7xx_HAL_Driver/Src/stm32h7xx_hal_rcc.c ****             pllvco = ((float_t)HSE_VALUE / (float_t)pllm) * ((float_t)(uint32_t)(RCC->PLL1DIVR & RC
1452:Drivers/STM32H7xx_HAL_Driver/Src/stm32h7xx_hal_rcc.c ****             break;
1453:Drivers/STM32H7xx_HAL_Driver/Src/stm32h7xx_hal_rcc.c **** 
1454:Drivers/STM32H7xx_HAL_Driver/Src/stm32h7xx_hal_rcc.c ****           default:
1455:Drivers/STM32H7xx_HAL_Driver/Src/stm32h7xx_hal_rcc.c ****             pllvco = ((float_t)CSI_VALUE / (float_t)pllm) * ((float_t)(uint32_t)(RCC->PLL1DIVR & RC
1456:Drivers/STM32H7xx_HAL_Driver/Src/stm32h7xx_hal_rcc.c ****             break;
1457:Drivers/STM32H7xx_HAL_Driver/Src/stm32h7xx_hal_rcc.c ****         }
1458:Drivers/STM32H7xx_HAL_Driver/Src/stm32h7xx_hal_rcc.c ****         pllp = (((RCC->PLL1DIVR & RCC_PLL1DIVR_P1) >> 9) + 1U) ;
 2648              		.loc 1 1458 9 view .LVU773
 2649              		.loc 1 1458 22 is_stmt 0 view .LVU774
 2650 0132 294B     		ldr	r3, .L245
 2651 0134 1B6B     		ldr	r3, [r3, #48]
 2652              		.loc 1 1458 52 view .LVU775
 2653 0136 C3F34623 		ubfx	r3, r3, #9, #7
 2654              		.loc 1 1458 14 view .LVU776
 2655 013a 0133     		adds	r3, r3, #1
 2656              	.LVL218:
1459:Drivers/STM32H7xx_HAL_Driver/Src/stm32h7xx_hal_rcc.c ****         sysclockfreq = (uint32_t)(float_t)(pllvco / (float_t)pllp);
 2657              		.loc 1 1459 9 is_stmt 1 view .LVU777
 2658              		.loc 1 1459 53 is_stmt 0 view .LVU778
 2659 013c 07EE903A 		vmov	s15, r3	@ int
 2660 0140 F8EE677A 		vcvt.f32.u32	s15, s15
 2661              		.loc 1 1459 34 view .LVU779
 2662 0144 C7EE276A 		vdiv.f32	s13, s14, s15
 2663              		.loc 1 1459 22 view .LVU780
 2664 0148 FCEEE67A 		vcvt.u32.f32	s15, s13
 2665 014c 17EE900A 		vmov	r0, s15	@ int
 2666              	.LVL219:
 2667              	.L231:
1460:Drivers/STM32H7xx_HAL_Driver/Src/stm32h7xx_hal_rcc.c ****       }
1461:Drivers/STM32H7xx_HAL_Driver/Src/stm32h7xx_hal_rcc.c ****       else
1462:Drivers/STM32H7xx_HAL_Driver/Src/stm32h7xx_hal_rcc.c ****       {
1463:Drivers/STM32H7xx_HAL_Driver/Src/stm32h7xx_hal_rcc.c ****         sysclockfreq = 0U;
1464:Drivers/STM32H7xx_HAL_Driver/Src/stm32h7xx_hal_rcc.c ****       }
1465:Drivers/STM32H7xx_HAL_Driver/Src/stm32h7xx_hal_rcc.c ****       break;
1466:Drivers/STM32H7xx_HAL_Driver/Src/stm32h7xx_hal_rcc.c **** 
1467:Drivers/STM32H7xx_HAL_Driver/Src/stm32h7xx_hal_rcc.c ****     default:
1468:Drivers/STM32H7xx_HAL_Driver/Src/stm32h7xx_hal_rcc.c ****       sysclockfreq = CSI_VALUE;
1469:Drivers/STM32H7xx_HAL_Driver/Src/stm32h7xx_hal_rcc.c ****       break;
1470:Drivers/STM32H7xx_HAL_Driver/Src/stm32h7xx_hal_rcc.c ****   }
1471:Drivers/STM32H7xx_HAL_Driver/Src/stm32h7xx_hal_rcc.c **** 
1472:Drivers/STM32H7xx_HAL_Driver/Src/stm32h7xx_hal_rcc.c ****   return sysclockfreq;
1473:Drivers/STM32H7xx_HAL_Driver/Src/stm32h7xx_hal_rcc.c **** }
 2668              		.loc 1 1473 1 view .LVU781
 2669 0150 5DF8044B 		ldr	r4, [sp], #4
 2670              	.LCFI9:
 2671              		.cfi_remember_state
 2672              		.cfi_restore 4
 2673              		.cfi_def_cfa_offset 0
 2674              	.LVL220:
 2675              		.loc 1 1473 1 view .LVU782
 2676 0154 7047     		bx	lr
 2677              	.LVL221:
ARM GAS  /var/folders/g1/j12m_ky910s3_sv7d4yrsdn00000gn/T//ccmnBD4l.s 			page 82


 2678              	.L235:
 2679              	.LCFI10:
 2680              		.cfi_restore_state
1451:Drivers/STM32H7xx_HAL_Driver/Src/stm32h7xx_hal_rcc.c ****             break;
 2681              		.loc 1 1451 13 is_stmt 1 view .LVU783
1451:Drivers/STM32H7xx_HAL_Driver/Src/stm32h7xx_hal_rcc.c ****             break;
 2682              		.loc 1 1451 44 is_stmt 0 view .LVU784
 2683 0156 07EE100A 		vmov	s14, r0	@ int
 2684 015a F8EE476A 		vcvt.f32.u32	s13, s14
1451:Drivers/STM32H7xx_HAL_Driver/Src/stm32h7xx_hal_rcc.c ****             break;
 2685              		.loc 1 1451 42 view .LVU785
 2686 015e 9FED236A 		vldr.32	s12, .L245+20
 2687 0162 86EE267A 		vdiv.f32	s14, s12, s13
1451:Drivers/STM32H7xx_HAL_Driver/Src/stm32h7xx_hal_rcc.c ****             break;
 2688              		.loc 1 1451 85 view .LVU786
 2689 0166 1C4B     		ldr	r3, .L245
 2690 0168 1B6B     		ldr	r3, [r3, #48]
1451:Drivers/STM32H7xx_HAL_Driver/Src/stm32h7xx_hal_rcc.c ****             break;
 2691              		.loc 1 1451 71 view .LVU787
 2692 016a C3F30803 		ubfx	r3, r3, #0, #9
1451:Drivers/STM32H7xx_HAL_Driver/Src/stm32h7xx_hal_rcc.c ****             break;
 2693              		.loc 1 1451 62 view .LVU788
 2694 016e 06EE903A 		vmov	s13, r3	@ int
 2695 0172 F8EE666A 		vcvt.f32.u32	s13, s13
1451:Drivers/STM32H7xx_HAL_Driver/Src/stm32h7xx_hal_rcc.c ****             break;
 2696              		.loc 1 1451 125 view .LVU789
 2697 0176 9FED1A6A 		vldr.32	s12, .L245+8
 2698 017a 67EE867A 		vmul.f32	s15, s15, s12
 2699              	.LVL222:
1451:Drivers/STM32H7xx_HAL_Driver/Src/stm32h7xx_hal_rcc.c ****             break;
 2700              		.loc 1 1451 115 view .LVU790
 2701 017e 76EEA77A 		vadd.f32	s15, s13, s15
1451:Drivers/STM32H7xx_HAL_Driver/Src/stm32h7xx_hal_rcc.c ****             break;
 2702              		.loc 1 1451 144 view .LVU791
 2703 0182 F7EE006A 		vmov.f32	s13, #1.0e+0
 2704 0186 77EEA67A 		vadd.f32	s15, s15, s13
1451:Drivers/STM32H7xx_HAL_Driver/Src/stm32h7xx_hal_rcc.c ****             break;
 2705              		.loc 1 1451 20 view .LVU792
 2706 018a 27EE277A 		vmul.f32	s14, s14, s15
 2707              	.LVL223:
1452:Drivers/STM32H7xx_HAL_Driver/Src/stm32h7xx_hal_rcc.c **** 
 2708              		.loc 1 1452 13 is_stmt 1 view .LVU793
 2709 018e D0E7     		b	.L238
 2710              	.LVL224:
 2711              	.L236:
1455:Drivers/STM32H7xx_HAL_Driver/Src/stm32h7xx_hal_rcc.c ****             break;
 2712              		.loc 1 1455 13 view .LVU794
1455:Drivers/STM32H7xx_HAL_Driver/Src/stm32h7xx_hal_rcc.c ****             break;
 2713              		.loc 1 1455 44 is_stmt 0 view .LVU795
 2714 0190 07EE100A 		vmov	s14, r0	@ int
 2715 0194 F8EE476A 		vcvt.f32.u32	s13, s14
1455:Drivers/STM32H7xx_HAL_Driver/Src/stm32h7xx_hal_rcc.c ****             break;
 2716              		.loc 1 1455 42 view .LVU796
 2717 0198 9FED136A 		vldr.32	s12, .L245+16
 2718 019c 86EE267A 		vdiv.f32	s14, s12, s13
1455:Drivers/STM32H7xx_HAL_Driver/Src/stm32h7xx_hal_rcc.c ****             break;
 2719              		.loc 1 1455 85 view .LVU797
ARM GAS  /var/folders/g1/j12m_ky910s3_sv7d4yrsdn00000gn/T//ccmnBD4l.s 			page 83


 2720 01a0 0D4B     		ldr	r3, .L245
 2721 01a2 1B6B     		ldr	r3, [r3, #48]
1455:Drivers/STM32H7xx_HAL_Driver/Src/stm32h7xx_hal_rcc.c ****             break;
 2722              		.loc 1 1455 71 view .LVU798
 2723 01a4 C3F30803 		ubfx	r3, r3, #0, #9
1455:Drivers/STM32H7xx_HAL_Driver/Src/stm32h7xx_hal_rcc.c ****             break;
 2724              		.loc 1 1455 62 view .LVU799
 2725 01a8 06EE903A 		vmov	s13, r3	@ int
 2726 01ac F8EE666A 		vcvt.f32.u32	s13, s13
1455:Drivers/STM32H7xx_HAL_Driver/Src/stm32h7xx_hal_rcc.c ****             break;
 2727              		.loc 1 1455 125 view .LVU800
 2728 01b0 9FED0B6A 		vldr.32	s12, .L245+8
 2729 01b4 67EE867A 		vmul.f32	s15, s15, s12
 2730              	.LVL225:
1455:Drivers/STM32H7xx_HAL_Driver/Src/stm32h7xx_hal_rcc.c ****             break;
 2731              		.loc 1 1455 115 view .LVU801
 2732 01b8 76EEA77A 		vadd.f32	s15, s13, s15
1455:Drivers/STM32H7xx_HAL_Driver/Src/stm32h7xx_hal_rcc.c ****             break;
 2733              		.loc 1 1455 144 view .LVU802
 2734 01bc F7EE006A 		vmov.f32	s13, #1.0e+0
 2735 01c0 77EEA67A 		vadd.f32	s15, s15, s13
1455:Drivers/STM32H7xx_HAL_Driver/Src/stm32h7xx_hal_rcc.c ****             break;
 2736              		.loc 1 1455 20 view .LVU803
 2737 01c4 27EE277A 		vmul.f32	s14, s14, s15
 2738              	.LVL226:
1456:Drivers/STM32H7xx_HAL_Driver/Src/stm32h7xx_hal_rcc.c ****         }
 2739              		.loc 1 1456 13 is_stmt 1 view .LVU804
 2740 01c8 B3E7     		b	.L238
 2741              	.LVL227:
 2742              	.L239:
 2743              	.LCFI11:
 2744              		.cfi_def_cfa_offset 0
 2745              		.cfi_restore 4
1416:Drivers/STM32H7xx_HAL_Driver/Src/stm32h7xx_hal_rcc.c ****       break;
 2746              		.loc 1 1416 20 is_stmt 0 view .LVU805
 2747 01ca 0948     		ldr	r0, .L245+24
 2748 01cc 7047     		bx	lr
 2749              	.L240:
1396:Drivers/STM32H7xx_HAL_Driver/Src/stm32h7xx_hal_rcc.c ****   {
 2750              		.loc 1 1396 3 view .LVU806
 2751 01ce 0948     		ldr	r0, .L245+28
 2752 01d0 7047     		bx	lr
 2753              	.L241:
1406:Drivers/STM32H7xx_HAL_Driver/Src/stm32h7xx_hal_rcc.c ****       }
 2754              		.loc 1 1406 22 view .LVU807
 2755 01d2 0248     		ldr	r0, .L245+4
 2756              	.LVL228:
1472:Drivers/STM32H7xx_HAL_Driver/Src/stm32h7xx_hal_rcc.c **** }
 2757              		.loc 1 1472 3 is_stmt 1 view .LVU808
 2758              		.loc 1 1473 1 is_stmt 0 view .LVU809
 2759 01d4 7047     		bx	lr
 2760              	.L246:
 2761 01d6 00BF     		.align	2
 2762              	.L245:
 2763 01d8 00440258 		.word	1476543488
 2764 01dc 0090D003 		.word	64000000
 2765 01e0 00000039 		.word	956301312
ARM GAS  /var/folders/g1/j12m_ky910s3_sv7d4yrsdn00000gn/T//ccmnBD4l.s 			page 84


 2766 01e4 0024744C 		.word	1282679808
 2767 01e8 0024744A 		.word	1249125376
 2768 01ec 20BCBE4B 		.word	1270791200
 2769 01f0 40787D01 		.word	25000000
 2770 01f4 00093D00 		.word	4000000
 2771              		.cfi_endproc
 2772              	.LFE150:
 2774              		.section	.text.HAL_RCC_ClockConfig,"ax",%progbits
 2775              		.align	1
 2776              		.global	HAL_RCC_ClockConfig
 2777              		.syntax unified
 2778              		.thumb
 2779              		.thumb_func
 2781              	HAL_RCC_ClockConfig:
 2782              	.LVL229:
 2783              	.LFB146:
 923:Drivers/STM32H7xx_HAL_Driver/Src/stm32h7xx_hal_rcc.c ****   HAL_StatusTypeDef halstatus;
 2784              		.loc 1 923 1 is_stmt 1 view -0
 2785              		.cfi_startproc
 2786              		@ args = 0, pretend = 0, frame = 0
 2787              		@ frame_needed = 0, uses_anonymous_args = 0
 924:Drivers/STM32H7xx_HAL_Driver/Src/stm32h7xx_hal_rcc.c ****   uint32_t tickstart;
 2788              		.loc 1 924 3 view .LVU811
 925:Drivers/STM32H7xx_HAL_Driver/Src/stm32h7xx_hal_rcc.c ****   uint32_t common_system_clock;
 2789              		.loc 1 925 3 view .LVU812
 926:Drivers/STM32H7xx_HAL_Driver/Src/stm32h7xx_hal_rcc.c **** 
 2790              		.loc 1 926 3 view .LVU813
 929:Drivers/STM32H7xx_HAL_Driver/Src/stm32h7xx_hal_rcc.c ****   {
 2791              		.loc 1 929 3 view .LVU814
 929:Drivers/STM32H7xx_HAL_Driver/Src/stm32h7xx_hal_rcc.c ****   {
 2792              		.loc 1 929 6 is_stmt 0 view .LVU815
 2793 0000 0028     		cmp	r0, #0
 2794 0002 00F02A82 		beq	.L282
 923:Drivers/STM32H7xx_HAL_Driver/Src/stm32h7xx_hal_rcc.c ****   HAL_StatusTypeDef halstatus;
 2795              		.loc 1 923 1 view .LVU816
 2796 0006 70B5     		push	{r4, r5, r6, lr}
 2797              	.LCFI12:
 2798              		.cfi_def_cfa_offset 16
 2799              		.cfi_offset 4, -16
 2800              		.cfi_offset 5, -12
 2801              		.cfi_offset 6, -8
 2802              		.cfi_offset 14, -4
 2803 0008 0D46     		mov	r5, r1
 2804 000a 0446     		mov	r4, r0
 935:Drivers/STM32H7xx_HAL_Driver/Src/stm32h7xx_hal_rcc.c ****   assert_param(IS_FLASH_LATENCY(FLatency));
 2805              		.loc 1 935 3 is_stmt 1 view .LVU817
 2806 000c 0368     		ldr	r3, [r0]
 2807 000e 013B     		subs	r3, r3, #1
 2808 0010 3E2B     		cmp	r3, #62
 2809 0012 00F2DD80 		bhi	.L294
 2810              	.LVL230:
 2811              	.L249:
 936:Drivers/STM32H7xx_HAL_Driver/Src/stm32h7xx_hal_rcc.c **** 
 2812              		.loc 1 936 3 view .LVU818
 2813 0016 0F2D     		cmp	r5, #15
 2814 0018 00F2E080 		bhi	.L295
 2815              	.L250:
ARM GAS  /var/folders/g1/j12m_ky910s3_sv7d4yrsdn00000gn/T//ccmnBD4l.s 			page 85


 943:Drivers/STM32H7xx_HAL_Driver/Src/stm32h7xx_hal_rcc.c ****   {
 2816              		.loc 1 943 3 view .LVU819
 943:Drivers/STM32H7xx_HAL_Driver/Src/stm32h7xx_hal_rcc.c ****   {
 2817              		.loc 1 943 18 is_stmt 0 view .LVU820
 2818 001c 9E4B     		ldr	r3, .L312
 2819 001e 1B68     		ldr	r3, [r3]
 2820 0020 03F00F03 		and	r3, r3, #15
 943:Drivers/STM32H7xx_HAL_Driver/Src/stm32h7xx_hal_rcc.c ****   {
 2821              		.loc 1 943 6 view .LVU821
 2822 0024 AB42     		cmp	r3, r5
 2823 0026 0BD2     		bcs	.L251
 946:Drivers/STM32H7xx_HAL_Driver/Src/stm32h7xx_hal_rcc.c **** 
 2824              		.loc 1 946 5 is_stmt 1 view .LVU822
 2825 0028 9B4A     		ldr	r2, .L312
 2826 002a 1368     		ldr	r3, [r2]
 2827 002c 23F00F03 		bic	r3, r3, #15
 2828 0030 2B43     		orrs	r3, r3, r5
 2829 0032 1360     		str	r3, [r2]
 950:Drivers/STM32H7xx_HAL_Driver/Src/stm32h7xx_hal_rcc.c ****     {
 2830              		.loc 1 950 5 view .LVU823
 950:Drivers/STM32H7xx_HAL_Driver/Src/stm32h7xx_hal_rcc.c ****     {
 2831              		.loc 1 950 9 is_stmt 0 view .LVU824
 2832 0034 1368     		ldr	r3, [r2]
 2833 0036 03F00F03 		and	r3, r3, #15
 950:Drivers/STM32H7xx_HAL_Driver/Src/stm32h7xx_hal_rcc.c ****     {
 2834              		.loc 1 950 8 view .LVU825
 2835 003a AB42     		cmp	r3, r5
 2836 003c 40F00F82 		bne	.L283
 2837              	.L251:
 959:Drivers/STM32H7xx_HAL_Driver/Src/stm32h7xx_hal_rcc.c ****   {
 2838              		.loc 1 959 3 is_stmt 1 view .LVU826
 959:Drivers/STM32H7xx_HAL_Driver/Src/stm32h7xx_hal_rcc.c ****   {
 2839              		.loc 1 959 26 is_stmt 0 view .LVU827
 2840 0040 2368     		ldr	r3, [r4]
 959:Drivers/STM32H7xx_HAL_Driver/Src/stm32h7xx_hal_rcc.c ****   {
 2841              		.loc 1 959 6 view .LVU828
 2842 0042 13F0040F 		tst	r3, #4
 2843 0046 18D0     		beq	.L252
 962:Drivers/STM32H7xx_HAL_Driver/Src/stm32h7xx_hal_rcc.c ****     {
 2844              		.loc 1 962 5 is_stmt 1 view .LVU829
 962:Drivers/STM32H7xx_HAL_Driver/Src/stm32h7xx_hal_rcc.c ****     {
 2845              		.loc 1 962 27 is_stmt 0 view .LVU830
 2846 0048 2269     		ldr	r2, [r4, #16]
 962:Drivers/STM32H7xx_HAL_Driver/Src/stm32h7xx_hal_rcc.c ****     {
 2847              		.loc 1 962 51 view .LVU831
 2848 004a 944B     		ldr	r3, .L312+4
 2849 004c 9B69     		ldr	r3, [r3, #24]
 962:Drivers/STM32H7xx_HAL_Driver/Src/stm32h7xx_hal_rcc.c ****     {
 2850              		.loc 1 962 60 view .LVU832
 2851 004e 03F07003 		and	r3, r3, #112
 962:Drivers/STM32H7xx_HAL_Driver/Src/stm32h7xx_hal_rcc.c ****     {
 2852              		.loc 1 962 8 view .LVU833
 2853 0052 9A42     		cmp	r2, r3
 2854 0054 11D9     		bls	.L252
 964:Drivers/STM32H7xx_HAL_Driver/Src/stm32h7xx_hal_rcc.c ****       MODIFY_REG(RCC->D1CFGR, RCC_D1CFGR_D1PPRE, RCC_ClkInitStruct->APB3CLKDivider);
 2855              		.loc 1 964 7 is_stmt 1 view .LVU834
 2856 0056 002A     		cmp	r2, #0
ARM GAS  /var/folders/g1/j12m_ky910s3_sv7d4yrsdn00000gn/T//ccmnBD4l.s 			page 86


 2857 0058 18BF     		it	ne
 2858 005a 402A     		cmpne	r2, #64
 2859 005c 06D0     		beq	.L253
 964:Drivers/STM32H7xx_HAL_Driver/Src/stm32h7xx_hal_rcc.c ****       MODIFY_REG(RCC->D1CFGR, RCC_D1CFGR_D1PPRE, RCC_ClkInitStruct->APB3CLKDivider);
 2860              		.loc 1 964 7 is_stmt 0 discriminator 1 view .LVU835
 2861 005e 502A     		cmp	r2, #80
 2862 0060 04D0     		beq	.L253
 964:Drivers/STM32H7xx_HAL_Driver/Src/stm32h7xx_hal_rcc.c ****       MODIFY_REG(RCC->D1CFGR, RCC_D1CFGR_D1PPRE, RCC_ClkInitStruct->APB3CLKDivider);
 2863              		.loc 1 964 7 discriminator 2 view .LVU836
 2864 0062 602A     		cmp	r2, #96
 2865 0064 02D0     		beq	.L253
 964:Drivers/STM32H7xx_HAL_Driver/Src/stm32h7xx_hal_rcc.c ****       MODIFY_REG(RCC->D1CFGR, RCC_D1CFGR_D1PPRE, RCC_ClkInitStruct->APB3CLKDivider);
 2866              		.loc 1 964 7 discriminator 3 view .LVU837
 2867 0066 702A     		cmp	r2, #112
 2868 0068 40F0BE80 		bne	.L296
 2869              	.L253:
 965:Drivers/STM32H7xx_HAL_Driver/Src/stm32h7xx_hal_rcc.c ****     }
 2870              		.loc 1 965 7 is_stmt 1 view .LVU838
 2871 006c 8B4A     		ldr	r2, .L312+4
 2872 006e 9369     		ldr	r3, [r2, #24]
 2873 0070 23F07003 		bic	r3, r3, #112
 2874 0074 2169     		ldr	r1, [r4, #16]
 2875 0076 0B43     		orrs	r3, r3, r1
 2876 0078 9361     		str	r3, [r2, #24]
 2877              	.L252:
 977:Drivers/STM32H7xx_HAL_Driver/Src/stm32h7xx_hal_rcc.c ****   {
 2878              		.loc 1 977 3 view .LVU839
 977:Drivers/STM32H7xx_HAL_Driver/Src/stm32h7xx_hal_rcc.c ****   {
 2879              		.loc 1 977 26 is_stmt 0 view .LVU840
 2880 007a 2368     		ldr	r3, [r4]
 977:Drivers/STM32H7xx_HAL_Driver/Src/stm32h7xx_hal_rcc.c ****   {
 2881              		.loc 1 977 6 view .LVU841
 2882 007c 13F0080F 		tst	r3, #8
 2883 0080 18D0     		beq	.L254
 980:Drivers/STM32H7xx_HAL_Driver/Src/stm32h7xx_hal_rcc.c ****     {
 2884              		.loc 1 980 5 is_stmt 1 view .LVU842
 980:Drivers/STM32H7xx_HAL_Driver/Src/stm32h7xx_hal_rcc.c ****     {
 2885              		.loc 1 980 27 is_stmt 0 view .LVU843
 2886 0082 6269     		ldr	r2, [r4, #20]
 980:Drivers/STM32H7xx_HAL_Driver/Src/stm32h7xx_hal_rcc.c ****     {
 2887              		.loc 1 980 51 view .LVU844
 2888 0084 854B     		ldr	r3, .L312+4
 2889 0086 DB69     		ldr	r3, [r3, #28]
 980:Drivers/STM32H7xx_HAL_Driver/Src/stm32h7xx_hal_rcc.c ****     {
 2890              		.loc 1 980 60 view .LVU845
 2891 0088 03F07003 		and	r3, r3, #112
 980:Drivers/STM32H7xx_HAL_Driver/Src/stm32h7xx_hal_rcc.c ****     {
 2892              		.loc 1 980 8 view .LVU846
 2893 008c 9A42     		cmp	r2, r3
 2894 008e 11D9     		bls	.L254
 982:Drivers/STM32H7xx_HAL_Driver/Src/stm32h7xx_hal_rcc.c ****       MODIFY_REG(RCC->D2CFGR, RCC_D2CFGR_D2PPRE1, (RCC_ClkInitStruct->APB1CLKDivider));
 2895              		.loc 1 982 7 is_stmt 1 view .LVU847
 2896 0090 002A     		cmp	r2, #0
 2897 0092 18BF     		it	ne
 2898 0094 402A     		cmpne	r2, #64
 2899 0096 06D0     		beq	.L255
 982:Drivers/STM32H7xx_HAL_Driver/Src/stm32h7xx_hal_rcc.c ****       MODIFY_REG(RCC->D2CFGR, RCC_D2CFGR_D2PPRE1, (RCC_ClkInitStruct->APB1CLKDivider));
ARM GAS  /var/folders/g1/j12m_ky910s3_sv7d4yrsdn00000gn/T//ccmnBD4l.s 			page 87


 2900              		.loc 1 982 7 is_stmt 0 discriminator 1 view .LVU848
 2901 0098 502A     		cmp	r2, #80
 2902 009a 04D0     		beq	.L255
 982:Drivers/STM32H7xx_HAL_Driver/Src/stm32h7xx_hal_rcc.c ****       MODIFY_REG(RCC->D2CFGR, RCC_D2CFGR_D2PPRE1, (RCC_ClkInitStruct->APB1CLKDivider));
 2903              		.loc 1 982 7 discriminator 2 view .LVU849
 2904 009c 602A     		cmp	r2, #96
 2905 009e 02D0     		beq	.L255
 982:Drivers/STM32H7xx_HAL_Driver/Src/stm32h7xx_hal_rcc.c ****       MODIFY_REG(RCC->D2CFGR, RCC_D2CFGR_D2PPRE1, (RCC_ClkInitStruct->APB1CLKDivider));
 2906              		.loc 1 982 7 discriminator 3 view .LVU850
 2907 00a0 702A     		cmp	r2, #112
 2908 00a2 40F0A780 		bne	.L297
 2909              	.L255:
 983:Drivers/STM32H7xx_HAL_Driver/Src/stm32h7xx_hal_rcc.c ****     }
 2910              		.loc 1 983 7 is_stmt 1 view .LVU851
 2911 00a6 7D4A     		ldr	r2, .L312+4
 2912 00a8 D369     		ldr	r3, [r2, #28]
 2913 00aa 23F07003 		bic	r3, r3, #112
 2914 00ae 6169     		ldr	r1, [r4, #20]
 2915 00b0 0B43     		orrs	r3, r3, r1
 2916 00b2 D361     		str	r3, [r2, #28]
 2917              	.L254:
 994:Drivers/STM32H7xx_HAL_Driver/Src/stm32h7xx_hal_rcc.c ****   {
 2918              		.loc 1 994 3 view .LVU852
 994:Drivers/STM32H7xx_HAL_Driver/Src/stm32h7xx_hal_rcc.c ****   {
 2919              		.loc 1 994 26 is_stmt 0 view .LVU853
 2920 00b4 2368     		ldr	r3, [r4]
 994:Drivers/STM32H7xx_HAL_Driver/Src/stm32h7xx_hal_rcc.c ****   {
 2921              		.loc 1 994 6 view .LVU854
 2922 00b6 13F0100F 		tst	r3, #16
 2923 00ba 1CD0     		beq	.L256
 997:Drivers/STM32H7xx_HAL_Driver/Src/stm32h7xx_hal_rcc.c ****     {
 2924              		.loc 1 997 5 is_stmt 1 view .LVU855
 997:Drivers/STM32H7xx_HAL_Driver/Src/stm32h7xx_hal_rcc.c ****     {
 2925              		.loc 1 997 27 is_stmt 0 view .LVU856
 2926 00bc A269     		ldr	r2, [r4, #24]
 997:Drivers/STM32H7xx_HAL_Driver/Src/stm32h7xx_hal_rcc.c ****     {
 2927              		.loc 1 997 51 view .LVU857
 2928 00be 774B     		ldr	r3, .L312+4
 2929 00c0 DB69     		ldr	r3, [r3, #28]
 997:Drivers/STM32H7xx_HAL_Driver/Src/stm32h7xx_hal_rcc.c ****     {
 2930              		.loc 1 997 60 view .LVU858
 2931 00c2 03F4E063 		and	r3, r3, #1792
 997:Drivers/STM32H7xx_HAL_Driver/Src/stm32h7xx_hal_rcc.c ****     {
 2932              		.loc 1 997 8 view .LVU859
 2933 00c6 9A42     		cmp	r2, r3
 2934 00c8 15D9     		bls	.L256
 999:Drivers/STM32H7xx_HAL_Driver/Src/stm32h7xx_hal_rcc.c ****       MODIFY_REG(RCC->D2CFGR, RCC_D2CFGR_D2PPRE2, (RCC_ClkInitStruct->APB2CLKDivider));
 2935              		.loc 1 999 7 is_stmt 1 view .LVU860
 2936 00ca 002A     		cmp	r2, #0
 2937 00cc 18BF     		it	ne
 2938 00ce B2F5806F 		cmpne	r2, #1024
 2939 00d2 09D0     		beq	.L257
 999:Drivers/STM32H7xx_HAL_Driver/Src/stm32h7xx_hal_rcc.c ****       MODIFY_REG(RCC->D2CFGR, RCC_D2CFGR_D2PPRE2, (RCC_ClkInitStruct->APB2CLKDivider));
 2940              		.loc 1 999 7 is_stmt 0 discriminator 1 view .LVU861
 2941 00d4 B2F5A06F 		cmp	r2, #1280
 2942 00d8 06D0     		beq	.L257
 999:Drivers/STM32H7xx_HAL_Driver/Src/stm32h7xx_hal_rcc.c ****       MODIFY_REG(RCC->D2CFGR, RCC_D2CFGR_D2PPRE2, (RCC_ClkInitStruct->APB2CLKDivider));
ARM GAS  /var/folders/g1/j12m_ky910s3_sv7d4yrsdn00000gn/T//ccmnBD4l.s 			page 88


 2943              		.loc 1 999 7 discriminator 2 view .LVU862
 2944 00da B2F5C06F 		cmp	r2, #1536
 2945 00de 03D0     		beq	.L257
 999:Drivers/STM32H7xx_HAL_Driver/Src/stm32h7xx_hal_rcc.c ****       MODIFY_REG(RCC->D2CFGR, RCC_D2CFGR_D2PPRE2, (RCC_ClkInitStruct->APB2CLKDivider));
 2946              		.loc 1 999 7 discriminator 3 view .LVU863
 2947 00e0 B2F5E06F 		cmp	r2, #1792
 2948 00e4 40F08C80 		bne	.L298
 2949              	.L257:
1000:Drivers/STM32H7xx_HAL_Driver/Src/stm32h7xx_hal_rcc.c ****     }
 2950              		.loc 1 1000 7 is_stmt 1 view .LVU864
 2951 00e8 6C4A     		ldr	r2, .L312+4
 2952 00ea D369     		ldr	r3, [r2, #28]
 2953 00ec 23F4E063 		bic	r3, r3, #1792
 2954 00f0 A169     		ldr	r1, [r4, #24]
 2955 00f2 0B43     		orrs	r3, r3, r1
 2956 00f4 D361     		str	r3, [r2, #28]
 2957              	.L256:
1012:Drivers/STM32H7xx_HAL_Driver/Src/stm32h7xx_hal_rcc.c ****   {
 2958              		.loc 1 1012 3 view .LVU865
1012:Drivers/STM32H7xx_HAL_Driver/Src/stm32h7xx_hal_rcc.c ****   {
 2959              		.loc 1 1012 26 is_stmt 0 view .LVU866
 2960 00f6 2368     		ldr	r3, [r4]
1012:Drivers/STM32H7xx_HAL_Driver/Src/stm32h7xx_hal_rcc.c ****   {
 2961              		.loc 1 1012 6 view .LVU867
 2962 00f8 13F0200F 		tst	r3, #32
 2963 00fc 17D0     		beq	.L258
1015:Drivers/STM32H7xx_HAL_Driver/Src/stm32h7xx_hal_rcc.c ****     {
 2964              		.loc 1 1015 5 is_stmt 1 view .LVU868
1015:Drivers/STM32H7xx_HAL_Driver/Src/stm32h7xx_hal_rcc.c ****     {
 2965              		.loc 1 1015 27 is_stmt 0 view .LVU869
 2966 00fe E269     		ldr	r2, [r4, #28]
1015:Drivers/STM32H7xx_HAL_Driver/Src/stm32h7xx_hal_rcc.c ****     {
 2967              		.loc 1 1015 51 view .LVU870
 2968 0100 664B     		ldr	r3, .L312+4
 2969 0102 1B6A     		ldr	r3, [r3, #32]
1015:Drivers/STM32H7xx_HAL_Driver/Src/stm32h7xx_hal_rcc.c ****     {
 2970              		.loc 1 1015 60 view .LVU871
 2971 0104 03F07003 		and	r3, r3, #112
1015:Drivers/STM32H7xx_HAL_Driver/Src/stm32h7xx_hal_rcc.c ****     {
 2972              		.loc 1 1015 8 view .LVU872
 2973 0108 9A42     		cmp	r2, r3
 2974 010a 10D9     		bls	.L258
1017:Drivers/STM32H7xx_HAL_Driver/Src/stm32h7xx_hal_rcc.c ****       MODIFY_REG(RCC->D3CFGR, RCC_D3CFGR_D3PPRE, (RCC_ClkInitStruct->APB4CLKDivider));
 2975              		.loc 1 1017 7 is_stmt 1 view .LVU873
 2976 010c 002A     		cmp	r2, #0
 2977 010e 18BF     		it	ne
 2978 0110 402A     		cmpne	r2, #64
 2979 0112 05D0     		beq	.L259
1017:Drivers/STM32H7xx_HAL_Driver/Src/stm32h7xx_hal_rcc.c ****       MODIFY_REG(RCC->D3CFGR, RCC_D3CFGR_D3PPRE, (RCC_ClkInitStruct->APB4CLKDivider));
 2980              		.loc 1 1017 7 is_stmt 0 discriminator 1 view .LVU874
 2981 0114 502A     		cmp	r2, #80
 2982 0116 03D0     		beq	.L259
1017:Drivers/STM32H7xx_HAL_Driver/Src/stm32h7xx_hal_rcc.c ****       MODIFY_REG(RCC->D3CFGR, RCC_D3CFGR_D3PPRE, (RCC_ClkInitStruct->APB4CLKDivider));
 2983              		.loc 1 1017 7 discriminator 2 view .LVU875
 2984 0118 602A     		cmp	r2, #96
 2985 011a 01D0     		beq	.L259
1017:Drivers/STM32H7xx_HAL_Driver/Src/stm32h7xx_hal_rcc.c ****       MODIFY_REG(RCC->D3CFGR, RCC_D3CFGR_D3PPRE, (RCC_ClkInitStruct->APB4CLKDivider));
ARM GAS  /var/folders/g1/j12m_ky910s3_sv7d4yrsdn00000gn/T//ccmnBD4l.s 			page 89


 2986              		.loc 1 1017 7 discriminator 3 view .LVU876
 2987 011c 702A     		cmp	r2, #112
 2988 011e 75D1     		bne	.L299
 2989              	.L259:
1018:Drivers/STM32H7xx_HAL_Driver/Src/stm32h7xx_hal_rcc.c ****     }
 2990              		.loc 1 1018 7 is_stmt 1 view .LVU877
 2991 0120 5E4A     		ldr	r2, .L312+4
 2992 0122 136A     		ldr	r3, [r2, #32]
 2993 0124 23F07003 		bic	r3, r3, #112
 2994 0128 E169     		ldr	r1, [r4, #28]
 2995 012a 0B43     		orrs	r3, r3, r1
 2996 012c 1362     		str	r3, [r2, #32]
 2997              	.L258:
1030:Drivers/STM32H7xx_HAL_Driver/Src/stm32h7xx_hal_rcc.c ****   {
 2998              		.loc 1 1030 3 view .LVU878
1030:Drivers/STM32H7xx_HAL_Driver/Src/stm32h7xx_hal_rcc.c ****   {
 2999              		.loc 1 1030 26 is_stmt 0 view .LVU879
 3000 012e 2368     		ldr	r3, [r4]
1030:Drivers/STM32H7xx_HAL_Driver/Src/stm32h7xx_hal_rcc.c ****   {
 3001              		.loc 1 1030 6 view .LVU880
 3002 0130 13F0020F 		tst	r3, #2
 3003 0134 14D0     		beq	.L260
1033:Drivers/STM32H7xx_HAL_Driver/Src/stm32h7xx_hal_rcc.c ****     {
 3004              		.loc 1 1033 5 is_stmt 1 view .LVU881
1033:Drivers/STM32H7xx_HAL_Driver/Src/stm32h7xx_hal_rcc.c ****     {
 3005              		.loc 1 1033 27 is_stmt 0 view .LVU882
 3006 0136 E268     		ldr	r2, [r4, #12]
1033:Drivers/STM32H7xx_HAL_Driver/Src/stm32h7xx_hal_rcc.c ****     {
 3007              		.loc 1 1033 50 view .LVU883
 3008 0138 584B     		ldr	r3, .L312+4
 3009 013a 9B69     		ldr	r3, [r3, #24]
1033:Drivers/STM32H7xx_HAL_Driver/Src/stm32h7xx_hal_rcc.c ****     {
 3010              		.loc 1 1033 59 view .LVU884
 3011 013c 03F00F03 		and	r3, r3, #15
1033:Drivers/STM32H7xx_HAL_Driver/Src/stm32h7xx_hal_rcc.c ****     {
 3012              		.loc 1 1033 8 view .LVU885
 3013 0140 9A42     		cmp	r2, r3
 3014 0142 0DD9     		bls	.L260
1036:Drivers/STM32H7xx_HAL_Driver/Src/stm32h7xx_hal_rcc.c ****       MODIFY_REG(RCC->D1CFGR, RCC_D1CFGR_HPRE, RCC_ClkInitStruct->AHBCLKDivider);
 3015              		.loc 1 1036 7 is_stmt 1 view .LVU886
 3016 0144 002A     		cmp	r2, #0
 3017 0146 18BF     		it	ne
 3018 0148 082A     		cmpne	r2, #8
 3019 014a 02D0     		beq	.L261
 3020 014c 093A     		subs	r2, r2, #9
 3021 014e 062A     		cmp	r2, #6
 3022 0150 62D8     		bhi	.L300
 3023              	.L261:
1037:Drivers/STM32H7xx_HAL_Driver/Src/stm32h7xx_hal_rcc.c ****     }
 3024              		.loc 1 1037 7 view .LVU887
 3025 0152 524A     		ldr	r2, .L312+4
 3026 0154 9369     		ldr	r3, [r2, #24]
 3027 0156 23F00F03 		bic	r3, r3, #15
 3028 015a E168     		ldr	r1, [r4, #12]
 3029 015c 0B43     		orrs	r3, r3, r1
 3030 015e 9361     		str	r3, [r2, #24]
 3031              	.L260:
ARM GAS  /var/folders/g1/j12m_ky910s3_sv7d4yrsdn00000gn/T//ccmnBD4l.s 			page 90


1050:Drivers/STM32H7xx_HAL_Driver/Src/stm32h7xx_hal_rcc.c ****   {
 3032              		.loc 1 1050 3 view .LVU888
1050:Drivers/STM32H7xx_HAL_Driver/Src/stm32h7xx_hal_rcc.c ****   {
 3033              		.loc 1 1050 26 is_stmt 0 view .LVU889
 3034 0160 2368     		ldr	r3, [r4]
1050:Drivers/STM32H7xx_HAL_Driver/Src/stm32h7xx_hal_rcc.c ****   {
 3035              		.loc 1 1050 6 view .LVU890
 3036 0162 13F0010F 		tst	r3, #1
 3037 0166 00F09D80 		beq	.L262
1052:Drivers/STM32H7xx_HAL_Driver/Src/stm32h7xx_hal_rcc.c ****     assert_param(IS_RCC_SYSCLKSOURCE(RCC_ClkInitStruct->SYSCLKSource));
 3038              		.loc 1 1052 5 is_stmt 1 view .LVU891
 3039 016a A368     		ldr	r3, [r4, #8]
 3040 016c 002B     		cmp	r3, #0
 3041 016e 18BF     		it	ne
 3042 0170 B3F5006F 		cmpne	r3, #2048
 3043 0174 14D0     		beq	.L263
1052:Drivers/STM32H7xx_HAL_Driver/Src/stm32h7xx_hal_rcc.c ****     assert_param(IS_RCC_SYSCLKSOURCE(RCC_ClkInitStruct->SYSCLKSource));
 3044              		.loc 1 1052 5 is_stmt 0 discriminator 1 view .LVU892
 3045 0176 B3F5106F 		cmp	r3, #2304
 3046 017a 11D0     		beq	.L263
1052:Drivers/STM32H7xx_HAL_Driver/Src/stm32h7xx_hal_rcc.c ****     assert_param(IS_RCC_SYSCLKSOURCE(RCC_ClkInitStruct->SYSCLKSource));
 3047              		.loc 1 1052 5 discriminator 2 view .LVU893
 3048 017c B3F5206F 		cmp	r3, #2560
 3049 0180 0ED0     		beq	.L263
1052:Drivers/STM32H7xx_HAL_Driver/Src/stm32h7xx_hal_rcc.c ****     assert_param(IS_RCC_SYSCLKSOURCE(RCC_ClkInitStruct->SYSCLKSource));
 3050              		.loc 1 1052 5 discriminator 3 view .LVU894
 3051 0182 B3F5306F 		cmp	r3, #2816
 3052 0186 0BD0     		beq	.L263
1052:Drivers/STM32H7xx_HAL_Driver/Src/stm32h7xx_hal_rcc.c ****     assert_param(IS_RCC_SYSCLKSOURCE(RCC_ClkInitStruct->SYSCLKSource));
 3053              		.loc 1 1052 5 discriminator 4 view .LVU895
 3054 0188 B3F5406F 		cmp	r3, #3072
 3055 018c 08D0     		beq	.L263
1052:Drivers/STM32H7xx_HAL_Driver/Src/stm32h7xx_hal_rcc.c ****     assert_param(IS_RCC_SYSCLKSOURCE(RCC_ClkInitStruct->SYSCLKSource));
 3056              		.loc 1 1052 5 discriminator 5 view .LVU896
 3057 018e B3F5506F 		cmp	r3, #3328
 3058 0192 05D0     		beq	.L263
1052:Drivers/STM32H7xx_HAL_Driver/Src/stm32h7xx_hal_rcc.c ****     assert_param(IS_RCC_SYSCLKSOURCE(RCC_ClkInitStruct->SYSCLKSource));
 3059              		.loc 1 1052 5 discriminator 6 view .LVU897
 3060 0194 B3F5606F 		cmp	r3, #3584
 3061 0198 02D0     		beq	.L263
1052:Drivers/STM32H7xx_HAL_Driver/Src/stm32h7xx_hal_rcc.c ****     assert_param(IS_RCC_SYSCLKSOURCE(RCC_ClkInitStruct->SYSCLKSource));
 3062              		.loc 1 1052 5 discriminator 7 view .LVU898
 3063 019a B3F5706F 		cmp	r3, #3840
 3064 019e 41D1     		bne	.L301
 3065              	.L263:
1053:Drivers/STM32H7xx_HAL_Driver/Src/stm32h7xx_hal_rcc.c **** #if defined(RCC_D1CFGR_D1CPRE)
 3066              		.loc 1 1053 5 is_stmt 1 view .LVU899
 3067 01a0 6368     		ldr	r3, [r4, #4]
 3068 01a2 032B     		cmp	r3, #3
 3069 01a4 44D8     		bhi	.L302
 3070              	.L264:
1055:Drivers/STM32H7xx_HAL_Driver/Src/stm32h7xx_hal_rcc.c **** #else
 3071              		.loc 1 1055 5 view .LVU900
 3072 01a6 3D4A     		ldr	r2, .L312+4
 3073 01a8 9369     		ldr	r3, [r2, #24]
 3074 01aa 23F47063 		bic	r3, r3, #3840
 3075 01ae A168     		ldr	r1, [r4, #8]
ARM GAS  /var/folders/g1/j12m_ky910s3_sv7d4yrsdn00000gn/T//ccmnBD4l.s 			page 91


 3076 01b0 0B43     		orrs	r3, r3, r1
 3077 01b2 9361     		str	r3, [r2, #24]
1060:Drivers/STM32H7xx_HAL_Driver/Src/stm32h7xx_hal_rcc.c ****     {
 3078              		.loc 1 1060 5 view .LVU901
1060:Drivers/STM32H7xx_HAL_Driver/Src/stm32h7xx_hal_rcc.c ****     {
 3079              		.loc 1 1060 26 is_stmt 0 view .LVU902
 3080 01b4 6368     		ldr	r3, [r4, #4]
1060:Drivers/STM32H7xx_HAL_Driver/Src/stm32h7xx_hal_rcc.c ****     {
 3081              		.loc 1 1060 8 view .LVU903
 3082 01b6 022B     		cmp	r3, #2
 3083 01b8 40D0     		beq	.L303
1069:Drivers/STM32H7xx_HAL_Driver/Src/stm32h7xx_hal_rcc.c ****     {
 3084              		.loc 1 1069 10 is_stmt 1 view .LVU904
1069:Drivers/STM32H7xx_HAL_Driver/Src/stm32h7xx_hal_rcc.c ****     {
 3085              		.loc 1 1069 13 is_stmt 0 view .LVU905
 3086 01ba 032B     		cmp	r3, #3
 3087 01bc 5DD0     		beq	.L304
1078:Drivers/STM32H7xx_HAL_Driver/Src/stm32h7xx_hal_rcc.c ****     {
 3088              		.loc 1 1078 10 is_stmt 1 view .LVU906
1078:Drivers/STM32H7xx_HAL_Driver/Src/stm32h7xx_hal_rcc.c ****     {
 3089              		.loc 1 1078 13 is_stmt 0 view .LVU907
 3090 01be 012B     		cmp	r3, #1
 3091 01c0 62D0     		beq	.L305
1090:Drivers/STM32H7xx_HAL_Driver/Src/stm32h7xx_hal_rcc.c ****       {
 3092              		.loc 1 1090 7 is_stmt 1 view .LVU908
1090:Drivers/STM32H7xx_HAL_Driver/Src/stm32h7xx_hal_rcc.c ****       {
 3093              		.loc 1 1090 11 is_stmt 0 view .LVU909
 3094 01c2 364A     		ldr	r2, .L312+4
 3095 01c4 1268     		ldr	r2, [r2]
1090:Drivers/STM32H7xx_HAL_Driver/Src/stm32h7xx_hal_rcc.c ****       {
 3096              		.loc 1 1090 10 view .LVU910
 3097 01c6 12F0040F 		tst	r2, #4
 3098 01ca 3CD1     		bne	.L266
1092:Drivers/STM32H7xx_HAL_Driver/Src/stm32h7xx_hal_rcc.c ****       }
 3099              		.loc 1 1092 16 view .LVU911
 3100 01cc 0120     		movs	r0, #1
 3101 01ce 25E1     		b	.L248
 3102              	.LVL231:
 3103              	.L294:
 935:Drivers/STM32H7xx_HAL_Driver/Src/stm32h7xx_hal_rcc.c ****   assert_param(IS_FLASH_LATENCY(FLatency));
 3104              		.loc 1 935 3 discriminator 1 view .LVU912
 3105 01d0 40F2A731 		movw	r1, #935
 3106              	.LVL232:
 935:Drivers/STM32H7xx_HAL_Driver/Src/stm32h7xx_hal_rcc.c ****   assert_param(IS_FLASH_LATENCY(FLatency));
 3107              		.loc 1 935 3 discriminator 1 view .LVU913
 3108 01d4 3248     		ldr	r0, .L312+8
 3109              	.LVL233:
 935:Drivers/STM32H7xx_HAL_Driver/Src/stm32h7xx_hal_rcc.c ****   assert_param(IS_FLASH_LATENCY(FLatency));
 3110              		.loc 1 935 3 discriminator 1 view .LVU914
 3111 01d6 FFF7FEFF 		bl	assert_failed
 3112              	.LVL234:
 3113 01da 1CE7     		b	.L249
 3114              	.L295:
 936:Drivers/STM32H7xx_HAL_Driver/Src/stm32h7xx_hal_rcc.c **** 
 3115              		.loc 1 936 3 discriminator 1 view .LVU915
 3116 01dc 4FF46A71 		mov	r1, #936
 3117 01e0 2F48     		ldr	r0, .L312+8
ARM GAS  /var/folders/g1/j12m_ky910s3_sv7d4yrsdn00000gn/T//ccmnBD4l.s 			page 92


 3118 01e2 FFF7FEFF 		bl	assert_failed
 3119              	.LVL235:
 3120 01e6 19E7     		b	.L250
 3121              	.L296:
 964:Drivers/STM32H7xx_HAL_Driver/Src/stm32h7xx_hal_rcc.c ****       MODIFY_REG(RCC->D1CFGR, RCC_D1CFGR_D1PPRE, RCC_ClkInitStruct->APB3CLKDivider);
 3122              		.loc 1 964 7 discriminator 4 view .LVU916
 3123 01e8 4FF47171 		mov	r1, #964
 3124 01ec 2C48     		ldr	r0, .L312+8
 3125 01ee FFF7FEFF 		bl	assert_failed
 3126              	.LVL236:
 3127 01f2 3BE7     		b	.L253
 3128              	.L297:
 982:Drivers/STM32H7xx_HAL_Driver/Src/stm32h7xx_hal_rcc.c ****       MODIFY_REG(RCC->D2CFGR, RCC_D2CFGR_D2PPRE1, (RCC_ClkInitStruct->APB1CLKDivider));
 3129              		.loc 1 982 7 discriminator 4 view .LVU917
 3130 01f4 40F2D631 		movw	r1, #982
 3131 01f8 2948     		ldr	r0, .L312+8
 3132 01fa FFF7FEFF 		bl	assert_failed
 3133              	.LVL237:
 3134 01fe 52E7     		b	.L255
 3135              	.L298:
 999:Drivers/STM32H7xx_HAL_Driver/Src/stm32h7xx_hal_rcc.c ****       MODIFY_REG(RCC->D2CFGR, RCC_D2CFGR_D2PPRE2, (RCC_ClkInitStruct->APB2CLKDivider));
 3136              		.loc 1 999 7 discriminator 4 view .LVU918
 3137 0200 40F2E731 		movw	r1, #999
 3138 0204 2648     		ldr	r0, .L312+8
 3139 0206 FFF7FEFF 		bl	assert_failed
 3140              	.LVL238:
 3141 020a 6DE7     		b	.L257
 3142              	.L299:
1017:Drivers/STM32H7xx_HAL_Driver/Src/stm32h7xx_hal_rcc.c ****       MODIFY_REG(RCC->D3CFGR, RCC_D3CFGR_D3PPRE, (RCC_ClkInitStruct->APB4CLKDivider));
 3143              		.loc 1 1017 7 discriminator 4 view .LVU919
 3144 020c 40F2F931 		movw	r1, #1017
 3145 0210 2348     		ldr	r0, .L312+8
 3146 0212 FFF7FEFF 		bl	assert_failed
 3147              	.LVL239:
 3148 0216 83E7     		b	.L259
 3149              	.L300:
1036:Drivers/STM32H7xx_HAL_Driver/Src/stm32h7xx_hal_rcc.c ****       MODIFY_REG(RCC->D1CFGR, RCC_D1CFGR_HPRE, RCC_ClkInitStruct->AHBCLKDivider);
 3150              		.loc 1 1036 7 discriminator 8 view .LVU920
 3151 0218 40F20C41 		movw	r1, #1036
 3152 021c 2048     		ldr	r0, .L312+8
 3153 021e FFF7FEFF 		bl	assert_failed
 3154              	.LVL240:
 3155 0222 96E7     		b	.L261
 3156              	.L301:
1052:Drivers/STM32H7xx_HAL_Driver/Src/stm32h7xx_hal_rcc.c ****     assert_param(IS_RCC_SYSCLKSOURCE(RCC_ClkInitStruct->SYSCLKSource));
 3157              		.loc 1 1052 5 discriminator 8 view .LVU921
 3158 0224 40F21C41 		movw	r1, #1052
 3159 0228 1D48     		ldr	r0, .L312+8
 3160 022a FFF7FEFF 		bl	assert_failed
 3161              	.LVL241:
 3162 022e B7E7     		b	.L263
 3163              	.L302:
1053:Drivers/STM32H7xx_HAL_Driver/Src/stm32h7xx_hal_rcc.c **** #if defined(RCC_D1CFGR_D1CPRE)
 3164              		.loc 1 1053 5 discriminator 1 view .LVU922
 3165 0230 40F21D41 		movw	r1, #1053
 3166 0234 1A48     		ldr	r0, .L312+8
 3167 0236 FFF7FEFF 		bl	assert_failed
ARM GAS  /var/folders/g1/j12m_ky910s3_sv7d4yrsdn00000gn/T//ccmnBD4l.s 			page 93


 3168              	.LVL242:
 3169 023a B4E7     		b	.L264
 3170              	.L303:
1063:Drivers/STM32H7xx_HAL_Driver/Src/stm32h7xx_hal_rcc.c ****       {
 3171              		.loc 1 1063 7 is_stmt 1 view .LVU923
1063:Drivers/STM32H7xx_HAL_Driver/Src/stm32h7xx_hal_rcc.c ****       {
 3172              		.loc 1 1063 11 is_stmt 0 view .LVU924
 3173 023c 1268     		ldr	r2, [r2]
1063:Drivers/STM32H7xx_HAL_Driver/Src/stm32h7xx_hal_rcc.c ****       {
 3174              		.loc 1 1063 10 view .LVU925
 3175 023e 12F4003F 		tst	r2, #131072
 3176 0242 00F00E81 		beq	.L306
 3177              	.L266:
1095:Drivers/STM32H7xx_HAL_Driver/Src/stm32h7xx_hal_rcc.c **** 
 3178              		.loc 1 1095 5 is_stmt 1 view .LVU926
 3179 0246 1549     		ldr	r1, .L312+4
 3180 0248 0A69     		ldr	r2, [r1, #16]
 3181 024a 22F00702 		bic	r2, r2, #7
 3182 024e 1343     		orrs	r3, r3, r2
 3183 0250 0B61     		str	r3, [r1, #16]
1098:Drivers/STM32H7xx_HAL_Driver/Src/stm32h7xx_hal_rcc.c **** 
 3184              		.loc 1 1098 5 view .LVU927
1098:Drivers/STM32H7xx_HAL_Driver/Src/stm32h7xx_hal_rcc.c **** 
 3185              		.loc 1 1098 17 is_stmt 0 view .LVU928
 3186 0252 FFF7FEFF 		bl	HAL_GetTick
 3187              	.LVL243:
 3188 0256 0646     		mov	r6, r0
 3189              	.LVL244:
1100:Drivers/STM32H7xx_HAL_Driver/Src/stm32h7xx_hal_rcc.c ****     {
 3190              		.loc 1 1100 5 is_stmt 1 view .LVU929
 3191              	.L269:
1100:Drivers/STM32H7xx_HAL_Driver/Src/stm32h7xx_hal_rcc.c ****     {
 3192              		.loc 1 1100 42 view .LVU930
1100:Drivers/STM32H7xx_HAL_Driver/Src/stm32h7xx_hal_rcc.c ****     {
 3193              		.loc 1 1100 12 is_stmt 0 view .LVU931
 3194 0258 104B     		ldr	r3, .L312+4
 3195 025a 1B69     		ldr	r3, [r3, #16]
 3196 025c 03F03803 		and	r3, r3, #56
1100:Drivers/STM32H7xx_HAL_Driver/Src/stm32h7xx_hal_rcc.c ****     {
 3197              		.loc 1 1100 63 view .LVU932
 3198 0260 6268     		ldr	r2, [r4, #4]
1100:Drivers/STM32H7xx_HAL_Driver/Src/stm32h7xx_hal_rcc.c ****     {
 3199              		.loc 1 1100 42 view .LVU933
 3200 0262 B3EBC20F 		cmp	r3, r2, lsl #3
 3201 0266 1DD0     		beq	.L262
1102:Drivers/STM32H7xx_HAL_Driver/Src/stm32h7xx_hal_rcc.c ****       {
 3202              		.loc 1 1102 7 is_stmt 1 view .LVU934
1102:Drivers/STM32H7xx_HAL_Driver/Src/stm32h7xx_hal_rcc.c ****       {
 3203              		.loc 1 1102 12 is_stmt 0 view .LVU935
 3204 0268 FFF7FEFF 		bl	HAL_GetTick
 3205              	.LVL245:
1102:Drivers/STM32H7xx_HAL_Driver/Src/stm32h7xx_hal_rcc.c ****       {
 3206              		.loc 1 1102 26 discriminator 1 view .LVU936
 3207 026c 801B     		subs	r0, r0, r6
1102:Drivers/STM32H7xx_HAL_Driver/Src/stm32h7xx_hal_rcc.c ****       {
 3208              		.loc 1 1102 10 discriminator 1 view .LVU937
 3209 026e 41F28833 		movw	r3, #5000
ARM GAS  /var/folders/g1/j12m_ky910s3_sv7d4yrsdn00000gn/T//ccmnBD4l.s 			page 94


 3210 0272 9842     		cmp	r0, r3
 3211 0274 F0D9     		bls	.L269
1104:Drivers/STM32H7xx_HAL_Driver/Src/stm32h7xx_hal_rcc.c ****       }
 3212              		.loc 1 1104 16 view .LVU938
 3213 0276 0320     		movs	r0, #3
 3214 0278 D0E0     		b	.L248
 3215              	.LVL246:
 3216              	.L304:
1072:Drivers/STM32H7xx_HAL_Driver/Src/stm32h7xx_hal_rcc.c ****       {
 3217              		.loc 1 1072 7 is_stmt 1 view .LVU939
1072:Drivers/STM32H7xx_HAL_Driver/Src/stm32h7xx_hal_rcc.c ****       {
 3218              		.loc 1 1072 11 is_stmt 0 view .LVU940
 3219 027a 084A     		ldr	r2, .L312+4
 3220 027c 1268     		ldr	r2, [r2]
1072:Drivers/STM32H7xx_HAL_Driver/Src/stm32h7xx_hal_rcc.c ****       {
 3221              		.loc 1 1072 10 view .LVU941
 3222 027e 12F0007F 		tst	r2, #33554432
 3223 0282 E0D1     		bne	.L266
1074:Drivers/STM32H7xx_HAL_Driver/Src/stm32h7xx_hal_rcc.c ****       }
 3224              		.loc 1 1074 16 view .LVU942
 3225 0284 0120     		movs	r0, #1
 3226 0286 C9E0     		b	.L248
 3227              	.L305:
1081:Drivers/STM32H7xx_HAL_Driver/Src/stm32h7xx_hal_rcc.c ****       {
 3228              		.loc 1 1081 7 is_stmt 1 view .LVU943
1081:Drivers/STM32H7xx_HAL_Driver/Src/stm32h7xx_hal_rcc.c ****       {
 3229              		.loc 1 1081 11 is_stmt 0 view .LVU944
 3230 0288 044A     		ldr	r2, .L312+4
 3231 028a 1268     		ldr	r2, [r2]
1081:Drivers/STM32H7xx_HAL_Driver/Src/stm32h7xx_hal_rcc.c ****       {
 3232              		.loc 1 1081 10 view .LVU945
 3233 028c 12F4807F 		tst	r2, #256
 3234 0290 D9D1     		bne	.L266
1083:Drivers/STM32H7xx_HAL_Driver/Src/stm32h7xx_hal_rcc.c ****       }
 3235              		.loc 1 1083 16 view .LVU946
 3236 0292 0120     		movs	r0, #1
 3237 0294 C2E0     		b	.L248
 3238              	.L313:
 3239 0296 00BF     		.align	2
 3240              	.L312:
 3241 0298 00200052 		.word	1375739904
 3242 029c 00440258 		.word	1476543488
 3243 02a0 00000000 		.word	.LC0
 3244              	.L262:
1112:Drivers/STM32H7xx_HAL_Driver/Src/stm32h7xx_hal_rcc.c ****   {
 3245              		.loc 1 1112 3 is_stmt 1 view .LVU947
1112:Drivers/STM32H7xx_HAL_Driver/Src/stm32h7xx_hal_rcc.c ****   {
 3246              		.loc 1 1112 26 is_stmt 0 view .LVU948
 3247 02a4 2368     		ldr	r3, [r4]
1112:Drivers/STM32H7xx_HAL_Driver/Src/stm32h7xx_hal_rcc.c ****   {
 3248              		.loc 1 1112 6 view .LVU949
 3249 02a6 13F0020F 		tst	r3, #2
 3250 02aa 15D0     		beq	.L271
1115:Drivers/STM32H7xx_HAL_Driver/Src/stm32h7xx_hal_rcc.c ****     {
 3251              		.loc 1 1115 5 is_stmt 1 view .LVU950
1115:Drivers/STM32H7xx_HAL_Driver/Src/stm32h7xx_hal_rcc.c ****     {
 3252              		.loc 1 1115 27 is_stmt 0 view .LVU951
ARM GAS  /var/folders/g1/j12m_ky910s3_sv7d4yrsdn00000gn/T//ccmnBD4l.s 			page 95


 3253 02ac E268     		ldr	r2, [r4, #12]
1115:Drivers/STM32H7xx_HAL_Driver/Src/stm32h7xx_hal_rcc.c ****     {
 3254              		.loc 1 1115 50 view .LVU952
 3255 02ae 6F4B     		ldr	r3, .L314
 3256 02b0 9B69     		ldr	r3, [r3, #24]
1115:Drivers/STM32H7xx_HAL_Driver/Src/stm32h7xx_hal_rcc.c ****     {
 3257              		.loc 1 1115 59 view .LVU953
 3258 02b2 03F00F03 		and	r3, r3, #15
1115:Drivers/STM32H7xx_HAL_Driver/Src/stm32h7xx_hal_rcc.c ****     {
 3259              		.loc 1 1115 8 view .LVU954
 3260 02b6 9A42     		cmp	r2, r3
 3261 02b8 0ED2     		bcs	.L271
1118:Drivers/STM32H7xx_HAL_Driver/Src/stm32h7xx_hal_rcc.c ****       MODIFY_REG(RCC->D1CFGR, RCC_D1CFGR_HPRE, RCC_ClkInitStruct->AHBCLKDivider);
 3262              		.loc 1 1118 7 is_stmt 1 view .LVU955
 3263 02ba 002A     		cmp	r2, #0
 3264 02bc 18BF     		it	ne
 3265 02be 082A     		cmpne	r2, #8
 3266 02c0 03D0     		beq	.L272
 3267 02c2 093A     		subs	r2, r2, #9
 3268 02c4 062A     		cmp	r2, #6
 3269 02c6 00F2AA80 		bhi	.L307
 3270              	.L272:
1119:Drivers/STM32H7xx_HAL_Driver/Src/stm32h7xx_hal_rcc.c ****     }
 3271              		.loc 1 1119 7 view .LVU956
 3272 02ca 684A     		ldr	r2, .L314
 3273 02cc 9369     		ldr	r3, [r2, #24]
 3274 02ce 23F00F03 		bic	r3, r3, #15
 3275 02d2 E168     		ldr	r1, [r4, #12]
 3276 02d4 0B43     		orrs	r3, r3, r1
 3277 02d6 9361     		str	r3, [r2, #24]
 3278              	.L271:
1132:Drivers/STM32H7xx_HAL_Driver/Src/stm32h7xx_hal_rcc.c ****   {
 3279              		.loc 1 1132 3 view .LVU957
1132:Drivers/STM32H7xx_HAL_Driver/Src/stm32h7xx_hal_rcc.c ****   {
 3280              		.loc 1 1132 18 is_stmt 0 view .LVU958
 3281 02d8 654B     		ldr	r3, .L314+4
 3282 02da 1B68     		ldr	r3, [r3]
 3283 02dc 03F00F03 		and	r3, r3, #15
1132:Drivers/STM32H7xx_HAL_Driver/Src/stm32h7xx_hal_rcc.c ****   {
 3284              		.loc 1 1132 6 view .LVU959
 3285 02e0 AB42     		cmp	r3, r5
 3286 02e2 0BD9     		bls	.L273
1135:Drivers/STM32H7xx_HAL_Driver/Src/stm32h7xx_hal_rcc.c **** 
 3287              		.loc 1 1135 5 is_stmt 1 view .LVU960
 3288 02e4 624A     		ldr	r2, .L314+4
 3289 02e6 1368     		ldr	r3, [r2]
 3290 02e8 23F00F03 		bic	r3, r3, #15
 3291 02ec 2B43     		orrs	r3, r3, r5
 3292 02ee 1360     		str	r3, [r2]
1139:Drivers/STM32H7xx_HAL_Driver/Src/stm32h7xx_hal_rcc.c ****     {
 3293              		.loc 1 1139 5 view .LVU961
1139:Drivers/STM32H7xx_HAL_Driver/Src/stm32h7xx_hal_rcc.c ****     {
 3294              		.loc 1 1139 9 is_stmt 0 view .LVU962
 3295 02f0 1368     		ldr	r3, [r2]
 3296 02f2 03F00F03 		and	r3, r3, #15
1139:Drivers/STM32H7xx_HAL_Driver/Src/stm32h7xx_hal_rcc.c ****     {
 3297              		.loc 1 1139 8 view .LVU963
ARM GAS  /var/folders/g1/j12m_ky910s3_sv7d4yrsdn00000gn/T//ccmnBD4l.s 			page 96


 3298 02f6 AB42     		cmp	r3, r5
 3299 02f8 40F0B580 		bne	.L289
 3300              	.L273:
1146:Drivers/STM32H7xx_HAL_Driver/Src/stm32h7xx_hal_rcc.c ****   {
 3301              		.loc 1 1146 3 is_stmt 1 view .LVU964
1146:Drivers/STM32H7xx_HAL_Driver/Src/stm32h7xx_hal_rcc.c ****   {
 3302              		.loc 1 1146 26 is_stmt 0 view .LVU965
 3303 02fc 2368     		ldr	r3, [r4]
1146:Drivers/STM32H7xx_HAL_Driver/Src/stm32h7xx_hal_rcc.c ****   {
 3304              		.loc 1 1146 6 view .LVU966
 3305 02fe 13F0040F 		tst	r3, #4
 3306 0302 18D0     		beq	.L274
1149:Drivers/STM32H7xx_HAL_Driver/Src/stm32h7xx_hal_rcc.c ****     {
 3307              		.loc 1 1149 5 is_stmt 1 view .LVU967
1149:Drivers/STM32H7xx_HAL_Driver/Src/stm32h7xx_hal_rcc.c ****     {
 3308              		.loc 1 1149 27 is_stmt 0 view .LVU968
 3309 0304 2269     		ldr	r2, [r4, #16]
1149:Drivers/STM32H7xx_HAL_Driver/Src/stm32h7xx_hal_rcc.c ****     {
 3310              		.loc 1 1149 51 view .LVU969
 3311 0306 594B     		ldr	r3, .L314
 3312 0308 9B69     		ldr	r3, [r3, #24]
1149:Drivers/STM32H7xx_HAL_Driver/Src/stm32h7xx_hal_rcc.c ****     {
 3313              		.loc 1 1149 60 view .LVU970
 3314 030a 03F07003 		and	r3, r3, #112
1149:Drivers/STM32H7xx_HAL_Driver/Src/stm32h7xx_hal_rcc.c ****     {
 3315              		.loc 1 1149 8 view .LVU971
 3316 030e 9A42     		cmp	r2, r3
 3317 0310 11D2     		bcs	.L274
1151:Drivers/STM32H7xx_HAL_Driver/Src/stm32h7xx_hal_rcc.c ****       MODIFY_REG(RCC->D1CFGR, RCC_D1CFGR_D1PPRE, RCC_ClkInitStruct->APB3CLKDivider);
 3318              		.loc 1 1151 7 is_stmt 1 view .LVU972
 3319 0312 002A     		cmp	r2, #0
 3320 0314 18BF     		it	ne
 3321 0316 402A     		cmpne	r2, #64
 3322 0318 06D0     		beq	.L275
1151:Drivers/STM32H7xx_HAL_Driver/Src/stm32h7xx_hal_rcc.c ****       MODIFY_REG(RCC->D1CFGR, RCC_D1CFGR_D1PPRE, RCC_ClkInitStruct->APB3CLKDivider);
 3323              		.loc 1 1151 7 is_stmt 0 discriminator 1 view .LVU973
 3324 031a 502A     		cmp	r2, #80
 3325 031c 04D0     		beq	.L275
1151:Drivers/STM32H7xx_HAL_Driver/Src/stm32h7xx_hal_rcc.c ****       MODIFY_REG(RCC->D1CFGR, RCC_D1CFGR_D1PPRE, RCC_ClkInitStruct->APB3CLKDivider);
 3326              		.loc 1 1151 7 discriminator 2 view .LVU974
 3327 031e 602A     		cmp	r2, #96
 3328 0320 02D0     		beq	.L275
1151:Drivers/STM32H7xx_HAL_Driver/Src/stm32h7xx_hal_rcc.c ****       MODIFY_REG(RCC->D1CFGR, RCC_D1CFGR_D1PPRE, RCC_ClkInitStruct->APB3CLKDivider);
 3329              		.loc 1 1151 7 discriminator 3 view .LVU975
 3330 0322 702A     		cmp	r2, #112
 3331 0324 40F08180 		bne	.L308
 3332              	.L275:
1152:Drivers/STM32H7xx_HAL_Driver/Src/stm32h7xx_hal_rcc.c ****     }
 3333              		.loc 1 1152 7 is_stmt 1 view .LVU976
 3334 0328 504A     		ldr	r2, .L314
 3335 032a 9369     		ldr	r3, [r2, #24]
 3336 032c 23F07003 		bic	r3, r3, #112
 3337 0330 2169     		ldr	r1, [r4, #16]
 3338 0332 0B43     		orrs	r3, r3, r1
 3339 0334 9361     		str	r3, [r2, #24]
 3340              	.L274:
1164:Drivers/STM32H7xx_HAL_Driver/Src/stm32h7xx_hal_rcc.c ****   {
ARM GAS  /var/folders/g1/j12m_ky910s3_sv7d4yrsdn00000gn/T//ccmnBD4l.s 			page 97


 3341              		.loc 1 1164 3 view .LVU977
1164:Drivers/STM32H7xx_HAL_Driver/Src/stm32h7xx_hal_rcc.c ****   {
 3342              		.loc 1 1164 26 is_stmt 0 view .LVU978
 3343 0336 2368     		ldr	r3, [r4]
1164:Drivers/STM32H7xx_HAL_Driver/Src/stm32h7xx_hal_rcc.c ****   {
 3344              		.loc 1 1164 6 view .LVU979
 3345 0338 13F0080F 		tst	r3, #8
 3346 033c 17D0     		beq	.L276
1167:Drivers/STM32H7xx_HAL_Driver/Src/stm32h7xx_hal_rcc.c ****     {
 3347              		.loc 1 1167 5 is_stmt 1 view .LVU980
1167:Drivers/STM32H7xx_HAL_Driver/Src/stm32h7xx_hal_rcc.c ****     {
 3348              		.loc 1 1167 27 is_stmt 0 view .LVU981
 3349 033e 6269     		ldr	r2, [r4, #20]
1167:Drivers/STM32H7xx_HAL_Driver/Src/stm32h7xx_hal_rcc.c ****     {
 3350              		.loc 1 1167 51 view .LVU982
 3351 0340 4A4B     		ldr	r3, .L314
 3352 0342 DB69     		ldr	r3, [r3, #28]
1167:Drivers/STM32H7xx_HAL_Driver/Src/stm32h7xx_hal_rcc.c ****     {
 3353              		.loc 1 1167 60 view .LVU983
 3354 0344 03F07003 		and	r3, r3, #112
1167:Drivers/STM32H7xx_HAL_Driver/Src/stm32h7xx_hal_rcc.c ****     {
 3355              		.loc 1 1167 8 view .LVU984
 3356 0348 9A42     		cmp	r2, r3
 3357 034a 10D2     		bcs	.L276
1169:Drivers/STM32H7xx_HAL_Driver/Src/stm32h7xx_hal_rcc.c ****       MODIFY_REG(RCC->D2CFGR, RCC_D2CFGR_D2PPRE1, (RCC_ClkInitStruct->APB1CLKDivider));
 3358              		.loc 1 1169 7 is_stmt 1 view .LVU985
 3359 034c 002A     		cmp	r2, #0
 3360 034e 18BF     		it	ne
 3361 0350 402A     		cmpne	r2, #64
 3362 0352 05D0     		beq	.L277
1169:Drivers/STM32H7xx_HAL_Driver/Src/stm32h7xx_hal_rcc.c ****       MODIFY_REG(RCC->D2CFGR, RCC_D2CFGR_D2PPRE1, (RCC_ClkInitStruct->APB1CLKDivider));
 3363              		.loc 1 1169 7 is_stmt 0 discriminator 1 view .LVU986
 3364 0354 502A     		cmp	r2, #80
 3365 0356 03D0     		beq	.L277
1169:Drivers/STM32H7xx_HAL_Driver/Src/stm32h7xx_hal_rcc.c ****       MODIFY_REG(RCC->D2CFGR, RCC_D2CFGR_D2PPRE1, (RCC_ClkInitStruct->APB1CLKDivider));
 3366              		.loc 1 1169 7 discriminator 2 view .LVU987
 3367 0358 602A     		cmp	r2, #96
 3368 035a 01D0     		beq	.L277
1169:Drivers/STM32H7xx_HAL_Driver/Src/stm32h7xx_hal_rcc.c ****       MODIFY_REG(RCC->D2CFGR, RCC_D2CFGR_D2PPRE1, (RCC_ClkInitStruct->APB1CLKDivider));
 3369              		.loc 1 1169 7 discriminator 3 view .LVU988
 3370 035c 702A     		cmp	r2, #112
 3371 035e 6AD1     		bne	.L309
 3372              	.L277:
1170:Drivers/STM32H7xx_HAL_Driver/Src/stm32h7xx_hal_rcc.c ****     }
 3373              		.loc 1 1170 7 is_stmt 1 view .LVU989
 3374 0360 424A     		ldr	r2, .L314
 3375 0362 D369     		ldr	r3, [r2, #28]
 3376 0364 23F07003 		bic	r3, r3, #112
 3377 0368 6169     		ldr	r1, [r4, #20]
 3378 036a 0B43     		orrs	r3, r3, r1
 3379 036c D361     		str	r3, [r2, #28]
 3380              	.L276:
1182:Drivers/STM32H7xx_HAL_Driver/Src/stm32h7xx_hal_rcc.c ****   {
 3381              		.loc 1 1182 3 view .LVU990
1182:Drivers/STM32H7xx_HAL_Driver/Src/stm32h7xx_hal_rcc.c ****   {
 3382              		.loc 1 1182 26 is_stmt 0 view .LVU991
 3383 036e 2368     		ldr	r3, [r4]
ARM GAS  /var/folders/g1/j12m_ky910s3_sv7d4yrsdn00000gn/T//ccmnBD4l.s 			page 98


1182:Drivers/STM32H7xx_HAL_Driver/Src/stm32h7xx_hal_rcc.c ****   {
 3384              		.loc 1 1182 6 view .LVU992
 3385 0370 13F0100F 		tst	r3, #16
 3386 0374 1BD0     		beq	.L278
1185:Drivers/STM32H7xx_HAL_Driver/Src/stm32h7xx_hal_rcc.c ****     {
 3387              		.loc 1 1185 5 is_stmt 1 view .LVU993
1185:Drivers/STM32H7xx_HAL_Driver/Src/stm32h7xx_hal_rcc.c ****     {
 3388              		.loc 1 1185 27 is_stmt 0 view .LVU994
 3389 0376 A269     		ldr	r2, [r4, #24]
1185:Drivers/STM32H7xx_HAL_Driver/Src/stm32h7xx_hal_rcc.c ****     {
 3390              		.loc 1 1185 51 view .LVU995
 3391 0378 3C4B     		ldr	r3, .L314
 3392 037a DB69     		ldr	r3, [r3, #28]
1185:Drivers/STM32H7xx_HAL_Driver/Src/stm32h7xx_hal_rcc.c ****     {
 3393              		.loc 1 1185 60 view .LVU996
 3394 037c 03F4E063 		and	r3, r3, #1792
1185:Drivers/STM32H7xx_HAL_Driver/Src/stm32h7xx_hal_rcc.c ****     {
 3395              		.loc 1 1185 8 view .LVU997
 3396 0380 9A42     		cmp	r2, r3
 3397 0382 14D2     		bcs	.L278
1187:Drivers/STM32H7xx_HAL_Driver/Src/stm32h7xx_hal_rcc.c ****       MODIFY_REG(RCC->D2CFGR, RCC_D2CFGR_D2PPRE2, (RCC_ClkInitStruct->APB2CLKDivider));
 3398              		.loc 1 1187 7 is_stmt 1 view .LVU998
 3399 0384 002A     		cmp	r2, #0
 3400 0386 18BF     		it	ne
 3401 0388 B2F5806F 		cmpne	r2, #1024
 3402 038c 08D0     		beq	.L279
1187:Drivers/STM32H7xx_HAL_Driver/Src/stm32h7xx_hal_rcc.c ****       MODIFY_REG(RCC->D2CFGR, RCC_D2CFGR_D2PPRE2, (RCC_ClkInitStruct->APB2CLKDivider));
 3403              		.loc 1 1187 7 is_stmt 0 discriminator 1 view .LVU999
 3404 038e B2F5A06F 		cmp	r2, #1280
 3405 0392 05D0     		beq	.L279
1187:Drivers/STM32H7xx_HAL_Driver/Src/stm32h7xx_hal_rcc.c ****       MODIFY_REG(RCC->D2CFGR, RCC_D2CFGR_D2PPRE2, (RCC_ClkInitStruct->APB2CLKDivider));
 3406              		.loc 1 1187 7 discriminator 2 view .LVU1000
 3407 0394 B2F5C06F 		cmp	r2, #1536
 3408 0398 02D0     		beq	.L279
1187:Drivers/STM32H7xx_HAL_Driver/Src/stm32h7xx_hal_rcc.c ****       MODIFY_REG(RCC->D2CFGR, RCC_D2CFGR_D2PPRE2, (RCC_ClkInitStruct->APB2CLKDivider));
 3409              		.loc 1 1187 7 discriminator 3 view .LVU1001
 3410 039a B2F5E06F 		cmp	r2, #1792
 3411 039e 50D1     		bne	.L310
 3412              	.L279:
1188:Drivers/STM32H7xx_HAL_Driver/Src/stm32h7xx_hal_rcc.c ****     }
 3413              		.loc 1 1188 7 is_stmt 1 view .LVU1002
 3414 03a0 324A     		ldr	r2, .L314
 3415 03a2 D369     		ldr	r3, [r2, #28]
 3416 03a4 23F4E063 		bic	r3, r3, #1792
 3417 03a8 A169     		ldr	r1, [r4, #24]
 3418 03aa 0B43     		orrs	r3, r3, r1
 3419 03ac D361     		str	r3, [r2, #28]
 3420              	.L278:
1200:Drivers/STM32H7xx_HAL_Driver/Src/stm32h7xx_hal_rcc.c ****   {
 3421              		.loc 1 1200 3 view .LVU1003
1200:Drivers/STM32H7xx_HAL_Driver/Src/stm32h7xx_hal_rcc.c ****   {
 3422              		.loc 1 1200 26 is_stmt 0 view .LVU1004
 3423 03ae 2368     		ldr	r3, [r4]
1200:Drivers/STM32H7xx_HAL_Driver/Src/stm32h7xx_hal_rcc.c ****   {
 3424              		.loc 1 1200 6 view .LVU1005
 3425 03b0 13F0200F 		tst	r3, #32
 3426 03b4 17D0     		beq	.L280
ARM GAS  /var/folders/g1/j12m_ky910s3_sv7d4yrsdn00000gn/T//ccmnBD4l.s 			page 99


1203:Drivers/STM32H7xx_HAL_Driver/Src/stm32h7xx_hal_rcc.c ****     {
 3427              		.loc 1 1203 5 is_stmt 1 view .LVU1006
1203:Drivers/STM32H7xx_HAL_Driver/Src/stm32h7xx_hal_rcc.c ****     {
 3428              		.loc 1 1203 27 is_stmt 0 view .LVU1007
 3429 03b6 E269     		ldr	r2, [r4, #28]
1203:Drivers/STM32H7xx_HAL_Driver/Src/stm32h7xx_hal_rcc.c ****     {
 3430              		.loc 1 1203 51 view .LVU1008
 3431 03b8 2C4B     		ldr	r3, .L314
 3432 03ba 1B6A     		ldr	r3, [r3, #32]
1203:Drivers/STM32H7xx_HAL_Driver/Src/stm32h7xx_hal_rcc.c ****     {
 3433              		.loc 1 1203 60 view .LVU1009
 3434 03bc 03F07003 		and	r3, r3, #112
1203:Drivers/STM32H7xx_HAL_Driver/Src/stm32h7xx_hal_rcc.c ****     {
 3435              		.loc 1 1203 8 view .LVU1010
 3436 03c0 9A42     		cmp	r2, r3
 3437 03c2 10D2     		bcs	.L280
1205:Drivers/STM32H7xx_HAL_Driver/Src/stm32h7xx_hal_rcc.c ****       MODIFY_REG(RCC->D3CFGR, RCC_D3CFGR_D3PPRE, (RCC_ClkInitStruct->APB4CLKDivider));
 3438              		.loc 1 1205 7 is_stmt 1 view .LVU1011
 3439 03c4 002A     		cmp	r2, #0
 3440 03c6 18BF     		it	ne
 3441 03c8 402A     		cmpne	r2, #64
 3442 03ca 05D0     		beq	.L281
1205:Drivers/STM32H7xx_HAL_Driver/Src/stm32h7xx_hal_rcc.c ****       MODIFY_REG(RCC->D3CFGR, RCC_D3CFGR_D3PPRE, (RCC_ClkInitStruct->APB4CLKDivider));
 3443              		.loc 1 1205 7 is_stmt 0 discriminator 1 view .LVU1012
 3444 03cc 502A     		cmp	r2, #80
 3445 03ce 03D0     		beq	.L281
1205:Drivers/STM32H7xx_HAL_Driver/Src/stm32h7xx_hal_rcc.c ****       MODIFY_REG(RCC->D3CFGR, RCC_D3CFGR_D3PPRE, (RCC_ClkInitStruct->APB4CLKDivider));
 3446              		.loc 1 1205 7 discriminator 2 view .LVU1013
 3447 03d0 602A     		cmp	r2, #96
 3448 03d2 01D0     		beq	.L281
1205:Drivers/STM32H7xx_HAL_Driver/Src/stm32h7xx_hal_rcc.c ****       MODIFY_REG(RCC->D3CFGR, RCC_D3CFGR_D3PPRE, (RCC_ClkInitStruct->APB4CLKDivider));
 3449              		.loc 1 1205 7 discriminator 3 view .LVU1014
 3450 03d4 702A     		cmp	r2, #112
 3451 03d6 3AD1     		bne	.L311
 3452              	.L281:
1206:Drivers/STM32H7xx_HAL_Driver/Src/stm32h7xx_hal_rcc.c ****     }
 3453              		.loc 1 1206 7 is_stmt 1 view .LVU1015
 3454 03d8 244A     		ldr	r2, .L314
 3455 03da 136A     		ldr	r3, [r2, #32]
 3456 03dc 23F07003 		bic	r3, r3, #112
 3457 03e0 E169     		ldr	r1, [r4, #28]
 3458 03e2 0B43     		orrs	r3, r3, r1
 3459 03e4 1362     		str	r3, [r2, #32]
 3460              	.L280:
1219:Drivers/STM32H7xx_HAL_Driver/Src/stm32h7xx_hal_rcc.c **** #else
 3461              		.loc 1 1219 3 view .LVU1016
1219:Drivers/STM32H7xx_HAL_Driver/Src/stm32h7xx_hal_rcc.c **** #else
 3462              		.loc 1 1219 25 is_stmt 0 view .LVU1017
 3463 03e6 FFF7FEFF 		bl	HAL_RCC_GetSysClockFreq
 3464              	.LVL247:
1219:Drivers/STM32H7xx_HAL_Driver/Src/stm32h7xx_hal_rcc.c **** #else
 3465              		.loc 1 1219 77 discriminator 1 view .LVU1018
 3466 03ea 2049     		ldr	r1, .L314
 3467 03ec 8B69     		ldr	r3, [r1, #24]
1219:Drivers/STM32H7xx_HAL_Driver/Src/stm32h7xx_hal_rcc.c **** #else
 3468              		.loc 1 1219 107 discriminator 1 view .LVU1019
 3469 03ee C3F30323 		ubfx	r3, r3, #8, #4
ARM GAS  /var/folders/g1/j12m_ky910s3_sv7d4yrsdn00000gn/T//ccmnBD4l.s 			page 100


1219:Drivers/STM32H7xx_HAL_Driver/Src/stm32h7xx_hal_rcc.c **** #else
 3470              		.loc 1 1219 72 discriminator 1 view .LVU1020
 3471 03f2 204A     		ldr	r2, .L314+8
 3472 03f4 D35C     		ldrb	r3, [r2, r3]	@ zero_extendqisi2
1219:Drivers/STM32H7xx_HAL_Driver/Src/stm32h7xx_hal_rcc.c **** #else
 3473              		.loc 1 1219 134 discriminator 1 view .LVU1021
 3474 03f6 03F01F03 		and	r3, r3, #31
1219:Drivers/STM32H7xx_HAL_Driver/Src/stm32h7xx_hal_rcc.c **** #else
 3475              		.loc 1 1219 23 discriminator 1 view .LVU1022
 3476 03fa D840     		lsrs	r0, r0, r3
 3477              	.LVL248:
1225:Drivers/STM32H7xx_HAL_Driver/Src/stm32h7xx_hal_rcc.c **** #else
 3478              		.loc 1 1225 3 is_stmt 1 view .LVU1023
1225:Drivers/STM32H7xx_HAL_Driver/Src/stm32h7xx_hal_rcc.c **** #else
 3479              		.loc 1 1225 66 is_stmt 0 view .LVU1024
 3480 03fc 8B69     		ldr	r3, [r1, #24]
1225:Drivers/STM32H7xx_HAL_Driver/Src/stm32h7xx_hal_rcc.c **** #else
 3481              		.loc 1 1225 94 view .LVU1025
 3482 03fe 03F00F03 		and	r3, r3, #15
1225:Drivers/STM32H7xx_HAL_Driver/Src/stm32h7xx_hal_rcc.c **** #else
 3483              		.loc 1 1225 61 view .LVU1026
 3484 0402 D35C     		ldrb	r3, [r2, r3]	@ zero_extendqisi2
1225:Drivers/STM32H7xx_HAL_Driver/Src/stm32h7xx_hal_rcc.c **** #else
 3485              		.loc 1 1225 119 view .LVU1027
 3486 0404 03F01F03 		and	r3, r3, #31
1225:Drivers/STM32H7xx_HAL_Driver/Src/stm32h7xx_hal_rcc.c **** #else
 3487              		.loc 1 1225 40 view .LVU1028
 3488 0408 20FA03F3 		lsr	r3, r0, r3
1225:Drivers/STM32H7xx_HAL_Driver/Src/stm32h7xx_hal_rcc.c **** #else
 3489              		.loc 1 1225 17 view .LVU1029
 3490 040c 1A4A     		ldr	r2, .L314+12
 3491 040e 1360     		str	r3, [r2]
1233:Drivers/STM32H7xx_HAL_Driver/Src/stm32h7xx_hal_rcc.c **** #endif /* DUAL_CORE && CORE_CM4 */
 3492              		.loc 1 1233 3 is_stmt 1 view .LVU1030
1233:Drivers/STM32H7xx_HAL_Driver/Src/stm32h7xx_hal_rcc.c **** #endif /* DUAL_CORE && CORE_CM4 */
 3493              		.loc 1 1233 19 is_stmt 0 view .LVU1031
 3494 0410 1A4B     		ldr	r3, .L314+16
 3495 0412 1860     		str	r0, [r3]
1237:Drivers/STM32H7xx_HAL_Driver/Src/stm32h7xx_hal_rcc.c **** 
 3496              		.loc 1 1237 3 is_stmt 1 view .LVU1032
1237:Drivers/STM32H7xx_HAL_Driver/Src/stm32h7xx_hal_rcc.c **** 
 3497              		.loc 1 1237 15 is_stmt 0 view .LVU1033
 3498 0414 1A4B     		ldr	r3, .L314+20
 3499 0416 1868     		ldr	r0, [r3]
 3500              	.LVL249:
1237:Drivers/STM32H7xx_HAL_Driver/Src/stm32h7xx_hal_rcc.c **** 
 3501              		.loc 1 1237 15 view .LVU1034
 3502 0418 FFF7FEFF 		bl	HAL_InitTick
 3503              	.LVL250:
1239:Drivers/STM32H7xx_HAL_Driver/Src/stm32h7xx_hal_rcc.c **** }
 3504              		.loc 1 1239 3 is_stmt 1 view .LVU1035
 3505              	.L248:
1240:Drivers/STM32H7xx_HAL_Driver/Src/stm32h7xx_hal_rcc.c **** 
 3506              		.loc 1 1240 1 is_stmt 0 view .LVU1036
 3507 041c 70BD     		pop	{r4, r5, r6, pc}
 3508              	.LVL251:
 3509              	.L307:
ARM GAS  /var/folders/g1/j12m_ky910s3_sv7d4yrsdn00000gn/T//ccmnBD4l.s 			page 101


1118:Drivers/STM32H7xx_HAL_Driver/Src/stm32h7xx_hal_rcc.c ****       MODIFY_REG(RCC->D1CFGR, RCC_D1CFGR_HPRE, RCC_ClkInitStruct->AHBCLKDivider);
 3510              		.loc 1 1118 7 discriminator 8 view .LVU1037
 3511 041e 40F25E41 		movw	r1, #1118
 3512 0422 1848     		ldr	r0, .L314+24
 3513 0424 FFF7FEFF 		bl	assert_failed
 3514              	.LVL252:
 3515 0428 4FE7     		b	.L272
 3516              	.L308:
1151:Drivers/STM32H7xx_HAL_Driver/Src/stm32h7xx_hal_rcc.c ****       MODIFY_REG(RCC->D1CFGR, RCC_D1CFGR_D1PPRE, RCC_ClkInitStruct->APB3CLKDivider);
 3517              		.loc 1 1151 7 discriminator 4 view .LVU1038
 3518 042a 40F27F41 		movw	r1, #1151
 3519 042e 1548     		ldr	r0, .L314+24
 3520 0430 FFF7FEFF 		bl	assert_failed
 3521              	.LVL253:
 3522 0434 78E7     		b	.L275
 3523              	.L309:
1169:Drivers/STM32H7xx_HAL_Driver/Src/stm32h7xx_hal_rcc.c ****       MODIFY_REG(RCC->D2CFGR, RCC_D2CFGR_D2PPRE1, (RCC_ClkInitStruct->APB1CLKDivider));
 3524              		.loc 1 1169 7 discriminator 4 view .LVU1039
 3525 0436 40F29141 		movw	r1, #1169
 3526 043a 1248     		ldr	r0, .L314+24
 3527 043c FFF7FEFF 		bl	assert_failed
 3528              	.LVL254:
 3529 0440 8EE7     		b	.L277
 3530              	.L310:
1187:Drivers/STM32H7xx_HAL_Driver/Src/stm32h7xx_hal_rcc.c ****       MODIFY_REG(RCC->D2CFGR, RCC_D2CFGR_D2PPRE2, (RCC_ClkInitStruct->APB2CLKDivider));
 3531              		.loc 1 1187 7 discriminator 4 view .LVU1040
 3532 0442 40F2A341 		movw	r1, #1187
 3533 0446 0F48     		ldr	r0, .L314+24
 3534 0448 FFF7FEFF 		bl	assert_failed
 3535              	.LVL255:
 3536 044c A8E7     		b	.L279
 3537              	.L311:
1205:Drivers/STM32H7xx_HAL_Driver/Src/stm32h7xx_hal_rcc.c ****       MODIFY_REG(RCC->D3CFGR, RCC_D3CFGR_D3PPRE, (RCC_ClkInitStruct->APB4CLKDivider));
 3538              		.loc 1 1205 7 discriminator 4 view .LVU1041
 3539 044e 40F2B541 		movw	r1, #1205
 3540 0452 0C48     		ldr	r0, .L314+24
 3541 0454 FFF7FEFF 		bl	assert_failed
 3542              	.LVL256:
 3543 0458 BEE7     		b	.L281
 3544              	.LVL257:
 3545              	.L282:
 3546              	.LCFI13:
 3547              		.cfi_def_cfa_offset 0
 3548              		.cfi_restore 4
 3549              		.cfi_restore 5
 3550              		.cfi_restore 6
 3551              		.cfi_restore 14
 931:Drivers/STM32H7xx_HAL_Driver/Src/stm32h7xx_hal_rcc.c ****   }
 3552              		.loc 1 931 12 view .LVU1042
 3553 045a 0120     		movs	r0, #1
 3554              	.LVL258:
1240:Drivers/STM32H7xx_HAL_Driver/Src/stm32h7xx_hal_rcc.c **** 
 3555              		.loc 1 1240 1 view .LVU1043
 3556 045c 7047     		bx	lr
 3557              	.LVL259:
 3558              	.L283:
 3559              	.LCFI14:
ARM GAS  /var/folders/g1/j12m_ky910s3_sv7d4yrsdn00000gn/T//ccmnBD4l.s 			page 102


 3560              		.cfi_def_cfa_offset 16
 3561              		.cfi_offset 4, -16
 3562              		.cfi_offset 5, -12
 3563              		.cfi_offset 6, -8
 3564              		.cfi_offset 14, -4
 952:Drivers/STM32H7xx_HAL_Driver/Src/stm32h7xx_hal_rcc.c ****     }
 3565              		.loc 1 952 14 view .LVU1044
 3566 045e 0120     		movs	r0, #1
 3567 0460 DCE7     		b	.L248
 3568              	.L306:
1065:Drivers/STM32H7xx_HAL_Driver/Src/stm32h7xx_hal_rcc.c ****       }
 3569              		.loc 1 1065 16 view .LVU1045
 3570 0462 0120     		movs	r0, #1
 3571 0464 DAE7     		b	.L248
 3572              	.L289:
1141:Drivers/STM32H7xx_HAL_Driver/Src/stm32h7xx_hal_rcc.c ****     }
 3573              		.loc 1 1141 14 view .LVU1046
 3574 0466 0120     		movs	r0, #1
 3575 0468 D8E7     		b	.L248
 3576              	.L315:
 3577 046a 00BF     		.align	2
 3578              	.L314:
 3579 046c 00440258 		.word	1476543488
 3580 0470 00200052 		.word	1375739904
 3581 0474 00000000 		.word	D1CorePrescTable
 3582 0478 00000000 		.word	SystemD2Clock
 3583 047c 00000000 		.word	SystemCoreClock
 3584 0480 00000000 		.word	uwTickPrio
 3585 0484 00000000 		.word	.LC0
 3586              		.cfi_endproc
 3587              	.LFE146:
 3589              		.section	.text.HAL_RCC_GetHCLKFreq,"ax",%progbits
 3590              		.align	1
 3591              		.global	HAL_RCC_GetHCLKFreq
 3592              		.syntax unified
 3593              		.thumb
 3594              		.thumb_func
 3596              	HAL_RCC_GetHCLKFreq:
 3597              	.LFB151:
1474:Drivers/STM32H7xx_HAL_Driver/Src/stm32h7xx_hal_rcc.c **** 
1475:Drivers/STM32H7xx_HAL_Driver/Src/stm32h7xx_hal_rcc.c **** 
1476:Drivers/STM32H7xx_HAL_Driver/Src/stm32h7xx_hal_rcc.c **** /**
1477:Drivers/STM32H7xx_HAL_Driver/Src/stm32h7xx_hal_rcc.c ****   * @brief  Returns the HCLK frequency
1478:Drivers/STM32H7xx_HAL_Driver/Src/stm32h7xx_hal_rcc.c ****   * @note   Each time HCLK changes, this function must be called to update the
1479:Drivers/STM32H7xx_HAL_Driver/Src/stm32h7xx_hal_rcc.c ****   *         right HCLK value. Otherwise, any configuration based on this function will be incorrect
1480:Drivers/STM32H7xx_HAL_Driver/Src/stm32h7xx_hal_rcc.c ****   *
1481:Drivers/STM32H7xx_HAL_Driver/Src/stm32h7xx_hal_rcc.c ****   * @note   The SystemD2Clock CMSIS variable is used to store System domain2 Clock Frequency
1482:Drivers/STM32H7xx_HAL_Driver/Src/stm32h7xx_hal_rcc.c ****   *         and updated within this function
1483:Drivers/STM32H7xx_HAL_Driver/Src/stm32h7xx_hal_rcc.c ****   * @retval HCLK frequency
1484:Drivers/STM32H7xx_HAL_Driver/Src/stm32h7xx_hal_rcc.c ****   */
1485:Drivers/STM32H7xx_HAL_Driver/Src/stm32h7xx_hal_rcc.c **** uint32_t HAL_RCC_GetHCLKFreq(void)
1486:Drivers/STM32H7xx_HAL_Driver/Src/stm32h7xx_hal_rcc.c **** {
 3598              		.loc 1 1486 1 is_stmt 1 view -0
 3599              		.cfi_startproc
 3600              		@ args = 0, pretend = 0, frame = 0
 3601              		@ frame_needed = 0, uses_anonymous_args = 0
 3602 0000 08B5     		push	{r3, lr}
ARM GAS  /var/folders/g1/j12m_ky910s3_sv7d4yrsdn00000gn/T//ccmnBD4l.s 			page 103


 3603              	.LCFI15:
 3604              		.cfi_def_cfa_offset 8
 3605              		.cfi_offset 3, -8
 3606              		.cfi_offset 14, -4
1487:Drivers/STM32H7xx_HAL_Driver/Src/stm32h7xx_hal_rcc.c ****   uint32_t common_system_clock;
 3607              		.loc 1 1487 3 view .LVU1048
1488:Drivers/STM32H7xx_HAL_Driver/Src/stm32h7xx_hal_rcc.c **** 
1489:Drivers/STM32H7xx_HAL_Driver/Src/stm32h7xx_hal_rcc.c **** #if defined(RCC_D1CFGR_D1CPRE)
1490:Drivers/STM32H7xx_HAL_Driver/Src/stm32h7xx_hal_rcc.c ****   common_system_clock = HAL_RCC_GetSysClockFreq() >> (D1CorePrescTable[(RCC->D1CFGR & RCC_D1CFGR_D1
 3608              		.loc 1 1490 3 view .LVU1049
 3609              		.loc 1 1490 25 is_stmt 0 view .LVU1050
 3610 0002 FFF7FEFF 		bl	HAL_RCC_GetSysClockFreq
 3611              	.LVL260:
 3612              		.loc 1 1490 76 discriminator 1 view .LVU1051
 3613 0006 0B4A     		ldr	r2, .L318
 3614 0008 9369     		ldr	r3, [r2, #24]
 3615              		.loc 1 1490 106 discriminator 1 view .LVU1052
 3616 000a C3F30323 		ubfx	r3, r3, #8, #4
 3617              		.loc 1 1490 71 discriminator 1 view .LVU1053
 3618 000e 0A49     		ldr	r1, .L318+4
 3619 0010 CB5C     		ldrb	r3, [r1, r3]	@ zero_extendqisi2
 3620              		.loc 1 1490 132 discriminator 1 view .LVU1054
 3621 0012 03F01F03 		and	r3, r3, #31
 3622              		.loc 1 1490 23 discriminator 1 view .LVU1055
 3623 0016 20FA03F3 		lsr	r3, r0, r3
 3624              	.LVL261:
1491:Drivers/STM32H7xx_HAL_Driver/Src/stm32h7xx_hal_rcc.c **** #else
1492:Drivers/STM32H7xx_HAL_Driver/Src/stm32h7xx_hal_rcc.c ****   common_system_clock = HAL_RCC_GetSysClockFreq() >> (D1CorePrescTable[(RCC->CDCFGR1 & RCC_CDCFGR1_
1493:Drivers/STM32H7xx_HAL_Driver/Src/stm32h7xx_hal_rcc.c **** #endif
1494:Drivers/STM32H7xx_HAL_Driver/Src/stm32h7xx_hal_rcc.c **** 
1495:Drivers/STM32H7xx_HAL_Driver/Src/stm32h7xx_hal_rcc.c **** #if defined(RCC_D1CFGR_HPRE)
1496:Drivers/STM32H7xx_HAL_Driver/Src/stm32h7xx_hal_rcc.c ****   SystemD2Clock = (common_system_clock >> ((D1CorePrescTable[(RCC->D1CFGR & RCC_D1CFGR_HPRE) >> RCC
 3625              		.loc 1 1496 3 is_stmt 1 view .LVU1056
 3626              		.loc 1 1496 66 is_stmt 0 view .LVU1057
 3627 001a 9269     		ldr	r2, [r2, #24]
 3628              		.loc 1 1496 94 view .LVU1058
 3629 001c 02F00F02 		and	r2, r2, #15
 3630              		.loc 1 1496 61 view .LVU1059
 3631 0020 885C     		ldrb	r0, [r1, r2]	@ zero_extendqisi2
 3632              		.loc 1 1496 119 view .LVU1060
 3633 0022 00F01F00 		and	r0, r0, #31
 3634              		.loc 1 1496 40 view .LVU1061
 3635 0026 23FA00F0 		lsr	r0, r3, r0
 3636              		.loc 1 1496 17 view .LVU1062
 3637 002a 044A     		ldr	r2, .L318+8
 3638 002c 1060     		str	r0, [r2]
1497:Drivers/STM32H7xx_HAL_Driver/Src/stm32h7xx_hal_rcc.c **** #else
1498:Drivers/STM32H7xx_HAL_Driver/Src/stm32h7xx_hal_rcc.c ****   SystemD2Clock = (common_system_clock >> ((D1CorePrescTable[(RCC->CDCFGR1 & RCC_CDCFGR1_HPRE) >> R
1499:Drivers/STM32H7xx_HAL_Driver/Src/stm32h7xx_hal_rcc.c **** #endif
1500:Drivers/STM32H7xx_HAL_Driver/Src/stm32h7xx_hal_rcc.c **** 
1501:Drivers/STM32H7xx_HAL_Driver/Src/stm32h7xx_hal_rcc.c **** #if defined(DUAL_CORE) && defined(CORE_CM4)
1502:Drivers/STM32H7xx_HAL_Driver/Src/stm32h7xx_hal_rcc.c ****   SystemCoreClock = SystemD2Clock;
1503:Drivers/STM32H7xx_HAL_Driver/Src/stm32h7xx_hal_rcc.c **** #else
1504:Drivers/STM32H7xx_HAL_Driver/Src/stm32h7xx_hal_rcc.c ****   SystemCoreClock = common_system_clock;
 3639              		.loc 1 1504 3 is_stmt 1 view .LVU1063
 3640              		.loc 1 1504 19 is_stmt 0 view .LVU1064
 3641 002e 044A     		ldr	r2, .L318+12
ARM GAS  /var/folders/g1/j12m_ky910s3_sv7d4yrsdn00000gn/T//ccmnBD4l.s 			page 104


 3642 0030 1360     		str	r3, [r2]
1505:Drivers/STM32H7xx_HAL_Driver/Src/stm32h7xx_hal_rcc.c **** #endif /* DUAL_CORE && CORE_CM4 */
1506:Drivers/STM32H7xx_HAL_Driver/Src/stm32h7xx_hal_rcc.c **** 
1507:Drivers/STM32H7xx_HAL_Driver/Src/stm32h7xx_hal_rcc.c ****   return SystemD2Clock;
 3643              		.loc 1 1507 3 is_stmt 1 view .LVU1065
1508:Drivers/STM32H7xx_HAL_Driver/Src/stm32h7xx_hal_rcc.c **** }
 3644              		.loc 1 1508 1 is_stmt 0 view .LVU1066
 3645 0032 08BD     		pop	{r3, pc}
 3646              	.LVL262:
 3647              	.L319:
 3648              		.loc 1 1508 1 view .LVU1067
 3649              		.align	2
 3650              	.L318:
 3651 0034 00440258 		.word	1476543488
 3652 0038 00000000 		.word	D1CorePrescTable
 3653 003c 00000000 		.word	SystemD2Clock
 3654 0040 00000000 		.word	SystemCoreClock
 3655              		.cfi_endproc
 3656              	.LFE151:
 3658              		.section	.text.HAL_RCC_GetPCLK1Freq,"ax",%progbits
 3659              		.align	1
 3660              		.global	HAL_RCC_GetPCLK1Freq
 3661              		.syntax unified
 3662              		.thumb
 3663              		.thumb_func
 3665              	HAL_RCC_GetPCLK1Freq:
 3666              	.LFB152:
1509:Drivers/STM32H7xx_HAL_Driver/Src/stm32h7xx_hal_rcc.c **** 
1510:Drivers/STM32H7xx_HAL_Driver/Src/stm32h7xx_hal_rcc.c **** 
1511:Drivers/STM32H7xx_HAL_Driver/Src/stm32h7xx_hal_rcc.c **** /**
1512:Drivers/STM32H7xx_HAL_Driver/Src/stm32h7xx_hal_rcc.c ****   * @brief  Returns the PCLK1 frequency
1513:Drivers/STM32H7xx_HAL_Driver/Src/stm32h7xx_hal_rcc.c ****   * @note   Each time PCLK1 changes, this function must be called to update the
1514:Drivers/STM32H7xx_HAL_Driver/Src/stm32h7xx_hal_rcc.c ****   *         right PCLK1 value. Otherwise, any configuration based on this function will be incorrec
1515:Drivers/STM32H7xx_HAL_Driver/Src/stm32h7xx_hal_rcc.c ****   * @retval PCLK1 frequency
1516:Drivers/STM32H7xx_HAL_Driver/Src/stm32h7xx_hal_rcc.c ****   */
1517:Drivers/STM32H7xx_HAL_Driver/Src/stm32h7xx_hal_rcc.c **** uint32_t HAL_RCC_GetPCLK1Freq(void)
1518:Drivers/STM32H7xx_HAL_Driver/Src/stm32h7xx_hal_rcc.c **** {
 3667              		.loc 1 1518 1 is_stmt 1 view -0
 3668              		.cfi_startproc
 3669              		@ args = 0, pretend = 0, frame = 0
 3670              		@ frame_needed = 0, uses_anonymous_args = 0
 3671 0000 08B5     		push	{r3, lr}
 3672              	.LCFI16:
 3673              		.cfi_def_cfa_offset 8
 3674              		.cfi_offset 3, -8
 3675              		.cfi_offset 14, -4
1519:Drivers/STM32H7xx_HAL_Driver/Src/stm32h7xx_hal_rcc.c **** #if defined (RCC_D2CFGR_D2PPRE1)
1520:Drivers/STM32H7xx_HAL_Driver/Src/stm32h7xx_hal_rcc.c ****   /* Get HCLK source and Compute PCLK1 frequency ---------------------------*/
1521:Drivers/STM32H7xx_HAL_Driver/Src/stm32h7xx_hal_rcc.c ****   return (HAL_RCC_GetHCLKFreq() >> ((D1CorePrescTable[(RCC->D2CFGR & RCC_D2CFGR_D2PPRE1) >> RCC_D2C
 3676              		.loc 1 1521 3 view .LVU1069
 3677              		.loc 1 1521 11 is_stmt 0 view .LVU1070
 3678 0002 FFF7FEFF 		bl	HAL_RCC_GetHCLKFreq
 3679              	.LVL263:
 3680              		.loc 1 1521 59 discriminator 1 view .LVU1071
 3681 0006 054B     		ldr	r3, .L322
 3682 0008 DB69     		ldr	r3, [r3, #28]
 3683              		.loc 1 1521 90 discriminator 1 view .LVU1072
ARM GAS  /var/folders/g1/j12m_ky910s3_sv7d4yrsdn00000gn/T//ccmnBD4l.s 			page 105


 3684 000a C3F30213 		ubfx	r3, r3, #4, #3
 3685              		.loc 1 1521 54 discriminator 1 view .LVU1073
 3686 000e 044A     		ldr	r2, .L322+4
 3687 0010 D35C     		ldrb	r3, [r2, r3]	@ zero_extendqisi2
 3688              		.loc 1 1521 118 discriminator 1 view .LVU1074
 3689 0012 03F01F03 		and	r3, r3, #31
1522:Drivers/STM32H7xx_HAL_Driver/Src/stm32h7xx_hal_rcc.c **** #else
1523:Drivers/STM32H7xx_HAL_Driver/Src/stm32h7xx_hal_rcc.c ****   /* Get HCLK source and Compute PCLK1 frequency ---------------------------*/
1524:Drivers/STM32H7xx_HAL_Driver/Src/stm32h7xx_hal_rcc.c ****   return (HAL_RCC_GetHCLKFreq() >> ((D1CorePrescTable[(RCC->CDCFGR2 & RCC_CDCFGR2_CDPPRE1) >> RCC_C
1525:Drivers/STM32H7xx_HAL_Driver/Src/stm32h7xx_hal_rcc.c **** #endif
1526:Drivers/STM32H7xx_HAL_Driver/Src/stm32h7xx_hal_rcc.c **** }
 3690              		.loc 1 1526 1 view .LVU1075
 3691 0016 D840     		lsrs	r0, r0, r3
 3692 0018 08BD     		pop	{r3, pc}
 3693              	.L323:
 3694 001a 00BF     		.align	2
 3695              	.L322:
 3696 001c 00440258 		.word	1476543488
 3697 0020 00000000 		.word	D1CorePrescTable
 3698              		.cfi_endproc
 3699              	.LFE152:
 3701              		.section	.text.HAL_RCC_GetPCLK2Freq,"ax",%progbits
 3702              		.align	1
 3703              		.global	HAL_RCC_GetPCLK2Freq
 3704              		.syntax unified
 3705              		.thumb
 3706              		.thumb_func
 3708              	HAL_RCC_GetPCLK2Freq:
 3709              	.LFB153:
1527:Drivers/STM32H7xx_HAL_Driver/Src/stm32h7xx_hal_rcc.c **** 
1528:Drivers/STM32H7xx_HAL_Driver/Src/stm32h7xx_hal_rcc.c **** 
1529:Drivers/STM32H7xx_HAL_Driver/Src/stm32h7xx_hal_rcc.c **** /**
1530:Drivers/STM32H7xx_HAL_Driver/Src/stm32h7xx_hal_rcc.c ****   * @brief  Returns the D2 PCLK2 frequency
1531:Drivers/STM32H7xx_HAL_Driver/Src/stm32h7xx_hal_rcc.c ****   * @note   Each time PCLK2 changes, this function must be called to update the
1532:Drivers/STM32H7xx_HAL_Driver/Src/stm32h7xx_hal_rcc.c ****   *         right PCLK2 value. Otherwise, any configuration based on this function will be incorrec
1533:Drivers/STM32H7xx_HAL_Driver/Src/stm32h7xx_hal_rcc.c ****   * @retval PCLK1 frequency
1534:Drivers/STM32H7xx_HAL_Driver/Src/stm32h7xx_hal_rcc.c ****   */
1535:Drivers/STM32H7xx_HAL_Driver/Src/stm32h7xx_hal_rcc.c **** uint32_t HAL_RCC_GetPCLK2Freq(void)
1536:Drivers/STM32H7xx_HAL_Driver/Src/stm32h7xx_hal_rcc.c **** {
 3710              		.loc 1 1536 1 is_stmt 1 view -0
 3711              		.cfi_startproc
 3712              		@ args = 0, pretend = 0, frame = 0
 3713              		@ frame_needed = 0, uses_anonymous_args = 0
 3714 0000 08B5     		push	{r3, lr}
 3715              	.LCFI17:
 3716              		.cfi_def_cfa_offset 8
 3717              		.cfi_offset 3, -8
 3718              		.cfi_offset 14, -4
1537:Drivers/STM32H7xx_HAL_Driver/Src/stm32h7xx_hal_rcc.c ****   /* Get HCLK source and Compute PCLK1 frequency ---------------------------*/
1538:Drivers/STM32H7xx_HAL_Driver/Src/stm32h7xx_hal_rcc.c **** #if defined(RCC_D2CFGR_D2PPRE2)
1539:Drivers/STM32H7xx_HAL_Driver/Src/stm32h7xx_hal_rcc.c ****   return (HAL_RCC_GetHCLKFreq() >> ((D1CorePrescTable[(RCC->D2CFGR & RCC_D2CFGR_D2PPRE2) >> RCC_D2C
 3719              		.loc 1 1539 3 view .LVU1077
 3720              		.loc 1 1539 11 is_stmt 0 view .LVU1078
 3721 0002 FFF7FEFF 		bl	HAL_RCC_GetHCLKFreq
 3722              	.LVL264:
 3723              		.loc 1 1539 59 discriminator 1 view .LVU1079
 3724 0006 054B     		ldr	r3, .L326
ARM GAS  /var/folders/g1/j12m_ky910s3_sv7d4yrsdn00000gn/T//ccmnBD4l.s 			page 106


 3725 0008 DB69     		ldr	r3, [r3, #28]
 3726              		.loc 1 1539 90 discriminator 1 view .LVU1080
 3727 000a C3F30223 		ubfx	r3, r3, #8, #3
 3728              		.loc 1 1539 54 discriminator 1 view .LVU1081
 3729 000e 044A     		ldr	r2, .L326+4
 3730 0010 D35C     		ldrb	r3, [r2, r3]	@ zero_extendqisi2
 3731              		.loc 1 1539 118 discriminator 1 view .LVU1082
 3732 0012 03F01F03 		and	r3, r3, #31
1540:Drivers/STM32H7xx_HAL_Driver/Src/stm32h7xx_hal_rcc.c **** #else
1541:Drivers/STM32H7xx_HAL_Driver/Src/stm32h7xx_hal_rcc.c ****   return (HAL_RCC_GetHCLKFreq() >> ((D1CorePrescTable[(RCC->CDCFGR2 & RCC_CDCFGR2_CDPPRE2) >> RCC_C
1542:Drivers/STM32H7xx_HAL_Driver/Src/stm32h7xx_hal_rcc.c **** #endif
1543:Drivers/STM32H7xx_HAL_Driver/Src/stm32h7xx_hal_rcc.c **** }
 3733              		.loc 1 1543 1 view .LVU1083
 3734 0016 D840     		lsrs	r0, r0, r3
 3735 0018 08BD     		pop	{r3, pc}
 3736              	.L327:
 3737 001a 00BF     		.align	2
 3738              	.L326:
 3739 001c 00440258 		.word	1476543488
 3740 0020 00000000 		.word	D1CorePrescTable
 3741              		.cfi_endproc
 3742              	.LFE153:
 3744              		.section	.text.HAL_RCC_GetOscConfig,"ax",%progbits
 3745              		.align	1
 3746              		.global	HAL_RCC_GetOscConfig
 3747              		.syntax unified
 3748              		.thumb
 3749              		.thumb_func
 3751              	HAL_RCC_GetOscConfig:
 3752              	.LVL265:
 3753              	.LFB154:
1544:Drivers/STM32H7xx_HAL_Driver/Src/stm32h7xx_hal_rcc.c **** 
1545:Drivers/STM32H7xx_HAL_Driver/Src/stm32h7xx_hal_rcc.c **** /**
1546:Drivers/STM32H7xx_HAL_Driver/Src/stm32h7xx_hal_rcc.c ****   * @brief  Configures the RCC_OscInitStruct according to the internal
1547:Drivers/STM32H7xx_HAL_Driver/Src/stm32h7xx_hal_rcc.c ****   * RCC configuration registers.
1548:Drivers/STM32H7xx_HAL_Driver/Src/stm32h7xx_hal_rcc.c ****   * @param  RCC_OscInitStruct: pointer to an RCC_OscInitTypeDef structure that
1549:Drivers/STM32H7xx_HAL_Driver/Src/stm32h7xx_hal_rcc.c ****   * will be configured.
1550:Drivers/STM32H7xx_HAL_Driver/Src/stm32h7xx_hal_rcc.c ****   * @retval None
1551:Drivers/STM32H7xx_HAL_Driver/Src/stm32h7xx_hal_rcc.c ****   */
1552:Drivers/STM32H7xx_HAL_Driver/Src/stm32h7xx_hal_rcc.c **** void HAL_RCC_GetOscConfig(RCC_OscInitTypeDef  *RCC_OscInitStruct)
1553:Drivers/STM32H7xx_HAL_Driver/Src/stm32h7xx_hal_rcc.c **** {
 3754              		.loc 1 1553 1 is_stmt 1 view -0
 3755              		.cfi_startproc
 3756              		@ args = 0, pretend = 0, frame = 0
 3757              		@ frame_needed = 0, uses_anonymous_args = 0
 3758              		.loc 1 1553 1 is_stmt 0 view .LVU1085
 3759 0000 10B5     		push	{r4, lr}
 3760              	.LCFI18:
 3761              		.cfi_def_cfa_offset 8
 3762              		.cfi_offset 4, -8
 3763              		.cfi_offset 14, -4
 3764 0002 0446     		mov	r4, r0
1554:Drivers/STM32H7xx_HAL_Driver/Src/stm32h7xx_hal_rcc.c ****   /* Set all possible values for the Oscillator type parameter ---------------*/
1555:Drivers/STM32H7xx_HAL_Driver/Src/stm32h7xx_hal_rcc.c ****   RCC_OscInitStruct->OscillatorType = RCC_OSCILLATORTYPE_HSE | RCC_OSCILLATORTYPE_HSI | RCC_OSCILLA
 3765              		.loc 1 1555 3 is_stmt 1 view .LVU1086
 3766              		.loc 1 1555 37 is_stmt 0 view .LVU1087
 3767 0004 3F23     		movs	r3, #63
ARM GAS  /var/folders/g1/j12m_ky910s3_sv7d4yrsdn00000gn/T//ccmnBD4l.s 			page 107


 3768 0006 0360     		str	r3, [r0]
1556:Drivers/STM32H7xx_HAL_Driver/Src/stm32h7xx_hal_rcc.c ****                                       RCC_OSCILLATORTYPE_LSE | RCC_OSCILLATORTYPE_LSI | RCC_OSCILLA
1557:Drivers/STM32H7xx_HAL_Driver/Src/stm32h7xx_hal_rcc.c **** 
1558:Drivers/STM32H7xx_HAL_Driver/Src/stm32h7xx_hal_rcc.c ****   /* Get the HSE configuration -----------------------------------------------*/
1559:Drivers/STM32H7xx_HAL_Driver/Src/stm32h7xx_hal_rcc.c **** #if defined(RCC_CR_HSEEXT)
1560:Drivers/STM32H7xx_HAL_Driver/Src/stm32h7xx_hal_rcc.c ****   if ((RCC->CR & (RCC_CR_HSEBYP | RCC_CR_HSEEXT)) == RCC_CR_HSEBYP)
1561:Drivers/STM32H7xx_HAL_Driver/Src/stm32h7xx_hal_rcc.c ****   {
1562:Drivers/STM32H7xx_HAL_Driver/Src/stm32h7xx_hal_rcc.c ****     RCC_OscInitStruct->HSEState = RCC_HSE_BYPASS;
1563:Drivers/STM32H7xx_HAL_Driver/Src/stm32h7xx_hal_rcc.c ****   }
1564:Drivers/STM32H7xx_HAL_Driver/Src/stm32h7xx_hal_rcc.c ****   else if ((RCC->CR & (RCC_CR_HSEBYP | RCC_CR_HSEEXT)) == (RCC_CR_HSEBYP | RCC_CR_HSEEXT))
1565:Drivers/STM32H7xx_HAL_Driver/Src/stm32h7xx_hal_rcc.c ****   {
1566:Drivers/STM32H7xx_HAL_Driver/Src/stm32h7xx_hal_rcc.c ****     RCC_OscInitStruct->HSEState = RCC_HSE_BYPASS_DIGITAL;
1567:Drivers/STM32H7xx_HAL_Driver/Src/stm32h7xx_hal_rcc.c ****   }
1568:Drivers/STM32H7xx_HAL_Driver/Src/stm32h7xx_hal_rcc.c ****   else if ((RCC->CR & RCC_CR_HSEON) == RCC_CR_HSEON)
1569:Drivers/STM32H7xx_HAL_Driver/Src/stm32h7xx_hal_rcc.c ****   {
1570:Drivers/STM32H7xx_HAL_Driver/Src/stm32h7xx_hal_rcc.c ****     RCC_OscInitStruct->HSEState = RCC_HSE_ON;
1571:Drivers/STM32H7xx_HAL_Driver/Src/stm32h7xx_hal_rcc.c ****   }
1572:Drivers/STM32H7xx_HAL_Driver/Src/stm32h7xx_hal_rcc.c ****   else
1573:Drivers/STM32H7xx_HAL_Driver/Src/stm32h7xx_hal_rcc.c ****   {
1574:Drivers/STM32H7xx_HAL_Driver/Src/stm32h7xx_hal_rcc.c ****     RCC_OscInitStruct->HSEState = RCC_HSE_OFF;
1575:Drivers/STM32H7xx_HAL_Driver/Src/stm32h7xx_hal_rcc.c ****   }
1576:Drivers/STM32H7xx_HAL_Driver/Src/stm32h7xx_hal_rcc.c **** #else
1577:Drivers/STM32H7xx_HAL_Driver/Src/stm32h7xx_hal_rcc.c ****   if ((RCC->CR & RCC_CR_HSEBYP) == RCC_CR_HSEBYP)
 3769              		.loc 1 1577 3 is_stmt 1 view .LVU1088
 3770              		.loc 1 1577 11 is_stmt 0 view .LVU1089
 3771 0008 514B     		ldr	r3, .L350
 3772 000a 1B68     		ldr	r3, [r3]
 3773              		.loc 1 1577 6 view .LVU1090
 3774 000c 13F4802F 		tst	r3, #262144
 3775 0010 6CD0     		beq	.L329
1578:Drivers/STM32H7xx_HAL_Driver/Src/stm32h7xx_hal_rcc.c ****   {
1579:Drivers/STM32H7xx_HAL_Driver/Src/stm32h7xx_hal_rcc.c ****     RCC_OscInitStruct->HSEState = RCC_HSE_BYPASS;
 3776              		.loc 1 1579 5 is_stmt 1 view .LVU1091
 3777              		.loc 1 1579 33 is_stmt 0 view .LVU1092
 3778 0012 4FF4A023 		mov	r3, #327680
 3779 0016 4360     		str	r3, [r0, #4]
 3780              	.L330:
1580:Drivers/STM32H7xx_HAL_Driver/Src/stm32h7xx_hal_rcc.c ****   }
1581:Drivers/STM32H7xx_HAL_Driver/Src/stm32h7xx_hal_rcc.c ****   else if ((RCC->CR & RCC_CR_HSEON) == RCC_CR_HSEON)
1582:Drivers/STM32H7xx_HAL_Driver/Src/stm32h7xx_hal_rcc.c ****   {
1583:Drivers/STM32H7xx_HAL_Driver/Src/stm32h7xx_hal_rcc.c ****     RCC_OscInitStruct->HSEState = RCC_HSE_ON;
1584:Drivers/STM32H7xx_HAL_Driver/Src/stm32h7xx_hal_rcc.c ****   }
1585:Drivers/STM32H7xx_HAL_Driver/Src/stm32h7xx_hal_rcc.c ****   else
1586:Drivers/STM32H7xx_HAL_Driver/Src/stm32h7xx_hal_rcc.c ****   {
1587:Drivers/STM32H7xx_HAL_Driver/Src/stm32h7xx_hal_rcc.c ****     RCC_OscInitStruct->HSEState = RCC_HSE_OFF;
1588:Drivers/STM32H7xx_HAL_Driver/Src/stm32h7xx_hal_rcc.c ****   }
1589:Drivers/STM32H7xx_HAL_Driver/Src/stm32h7xx_hal_rcc.c **** #endif /* RCC_CR_HSEEXT */
1590:Drivers/STM32H7xx_HAL_Driver/Src/stm32h7xx_hal_rcc.c **** 
1591:Drivers/STM32H7xx_HAL_Driver/Src/stm32h7xx_hal_rcc.c ****   /* Get the CSI configuration -----------------------------------------------*/
1592:Drivers/STM32H7xx_HAL_Driver/Src/stm32h7xx_hal_rcc.c ****   if ((RCC->CR & RCC_CR_CSION) == RCC_CR_CSION)
 3781              		.loc 1 1592 3 is_stmt 1 view .LVU1093
 3782              		.loc 1 1592 11 is_stmt 0 view .LVU1094
 3783 0018 4D4B     		ldr	r3, .L350
 3784 001a 1B68     		ldr	r3, [r3]
 3785              		.loc 1 1592 6 view .LVU1095
 3786 001c 13F0800F 		tst	r3, #128
 3787 0020 70D0     		beq	.L332
ARM GAS  /var/folders/g1/j12m_ky910s3_sv7d4yrsdn00000gn/T//ccmnBD4l.s 			page 108


1593:Drivers/STM32H7xx_HAL_Driver/Src/stm32h7xx_hal_rcc.c ****   {
1594:Drivers/STM32H7xx_HAL_Driver/Src/stm32h7xx_hal_rcc.c ****     RCC_OscInitStruct->CSIState = RCC_CSI_ON;
 3788              		.loc 1 1594 5 is_stmt 1 view .LVU1096
 3789              		.loc 1 1594 33 is_stmt 0 view .LVU1097
 3790 0022 8023     		movs	r3, #128
 3791 0024 E361     		str	r3, [r4, #28]
 3792              	.L333:
1595:Drivers/STM32H7xx_HAL_Driver/Src/stm32h7xx_hal_rcc.c ****   }
1596:Drivers/STM32H7xx_HAL_Driver/Src/stm32h7xx_hal_rcc.c ****   else
1597:Drivers/STM32H7xx_HAL_Driver/Src/stm32h7xx_hal_rcc.c ****   {
1598:Drivers/STM32H7xx_HAL_Driver/Src/stm32h7xx_hal_rcc.c ****     RCC_OscInitStruct->CSIState = RCC_CSI_OFF;
1599:Drivers/STM32H7xx_HAL_Driver/Src/stm32h7xx_hal_rcc.c ****   }
1600:Drivers/STM32H7xx_HAL_Driver/Src/stm32h7xx_hal_rcc.c **** 
1601:Drivers/STM32H7xx_HAL_Driver/Src/stm32h7xx_hal_rcc.c **** #if defined(RCC_VER_X)
1602:Drivers/STM32H7xx_HAL_Driver/Src/stm32h7xx_hal_rcc.c ****   if (HAL_GetREVID() <= REV_ID_Y)
 3793              		.loc 1 1602 3 is_stmt 1 view .LVU1098
 3794              		.loc 1 1602 7 is_stmt 0 view .LVU1099
 3795 0026 FFF7FEFF 		bl	HAL_GetREVID
 3796              	.LVL266:
 3797              		.loc 1 1602 6 discriminator 1 view .LVU1100
 3798 002a 41F20303 		movw	r3, #4099
 3799 002e 9842     		cmp	r0, r3
 3800 0030 6BD8     		bhi	.L334
1603:Drivers/STM32H7xx_HAL_Driver/Src/stm32h7xx_hal_rcc.c ****   {
1604:Drivers/STM32H7xx_HAL_Driver/Src/stm32h7xx_hal_rcc.c ****     RCC_OscInitStruct->CSICalibrationValue = (uint32_t)(READ_BIT(RCC->HSICFGR, HAL_RCC_REV_Y_CSITRI
 3801              		.loc 1 1604 5 is_stmt 1 view .LVU1101
 3802              		.loc 1 1604 57 is_stmt 0 view .LVU1102
 3803 0032 474B     		ldr	r3, .L350
 3804 0034 5B68     		ldr	r3, [r3, #4]
 3805              		.loc 1 1604 46 view .LVU1103
 3806 0036 C3F38463 		ubfx	r3, r3, #26, #5
 3807              		.loc 1 1604 44 view .LVU1104
 3808 003a 2362     		str	r3, [r4, #32]
 3809              	.L335:
1605:Drivers/STM32H7xx_HAL_Driver/Src/stm32h7xx_hal_rcc.c ****   }
1606:Drivers/STM32H7xx_HAL_Driver/Src/stm32h7xx_hal_rcc.c ****   else
1607:Drivers/STM32H7xx_HAL_Driver/Src/stm32h7xx_hal_rcc.c ****   {
1608:Drivers/STM32H7xx_HAL_Driver/Src/stm32h7xx_hal_rcc.c ****     RCC_OscInitStruct->CSICalibrationValue = (uint32_t)(READ_BIT(RCC->CSICFGR, RCC_CSICFGR_CSITRIM)
1609:Drivers/STM32H7xx_HAL_Driver/Src/stm32h7xx_hal_rcc.c ****   }
1610:Drivers/STM32H7xx_HAL_Driver/Src/stm32h7xx_hal_rcc.c **** #else
1611:Drivers/STM32H7xx_HAL_Driver/Src/stm32h7xx_hal_rcc.c ****   RCC_OscInitStruct->CSICalibrationValue = (uint32_t)(READ_BIT(RCC->CSICFGR, RCC_CSICFGR_CSITRIM) >
1612:Drivers/STM32H7xx_HAL_Driver/Src/stm32h7xx_hal_rcc.c **** #endif /*RCC_VER_X*/
1613:Drivers/STM32H7xx_HAL_Driver/Src/stm32h7xx_hal_rcc.c **** 
1614:Drivers/STM32H7xx_HAL_Driver/Src/stm32h7xx_hal_rcc.c ****   /* Get the HSI configuration -----------------------------------------------*/
1615:Drivers/STM32H7xx_HAL_Driver/Src/stm32h7xx_hal_rcc.c ****   if ((RCC->CR & RCC_CR_HSION) == RCC_CR_HSION)
 3810              		.loc 1 1615 3 is_stmt 1 view .LVU1105
 3811              		.loc 1 1615 11 is_stmt 0 view .LVU1106
 3812 003c 444B     		ldr	r3, .L350
 3813 003e 1B68     		ldr	r3, [r3]
 3814              		.loc 1 1615 6 view .LVU1107
 3815 0040 13F0010F 		tst	r3, #1
 3816 0044 67D0     		beq	.L336
1616:Drivers/STM32H7xx_HAL_Driver/Src/stm32h7xx_hal_rcc.c ****   {
1617:Drivers/STM32H7xx_HAL_Driver/Src/stm32h7xx_hal_rcc.c ****     RCC_OscInitStruct->HSIState = RCC_HSI_ON;
 3817              		.loc 1 1617 5 is_stmt 1 view .LVU1108
 3818              		.loc 1 1617 33 is_stmt 0 view .LVU1109
 3819 0046 0123     		movs	r3, #1
ARM GAS  /var/folders/g1/j12m_ky910s3_sv7d4yrsdn00000gn/T//ccmnBD4l.s 			page 109


 3820 0048 E360     		str	r3, [r4, #12]
 3821              	.L337:
1618:Drivers/STM32H7xx_HAL_Driver/Src/stm32h7xx_hal_rcc.c ****   }
1619:Drivers/STM32H7xx_HAL_Driver/Src/stm32h7xx_hal_rcc.c ****   else
1620:Drivers/STM32H7xx_HAL_Driver/Src/stm32h7xx_hal_rcc.c ****   {
1621:Drivers/STM32H7xx_HAL_Driver/Src/stm32h7xx_hal_rcc.c ****     RCC_OscInitStruct->HSIState = RCC_HSI_OFF;
1622:Drivers/STM32H7xx_HAL_Driver/Src/stm32h7xx_hal_rcc.c ****   }
1623:Drivers/STM32H7xx_HAL_Driver/Src/stm32h7xx_hal_rcc.c **** 
1624:Drivers/STM32H7xx_HAL_Driver/Src/stm32h7xx_hal_rcc.c **** #if defined(RCC_VER_X)
1625:Drivers/STM32H7xx_HAL_Driver/Src/stm32h7xx_hal_rcc.c ****   if (HAL_GetREVID() <= REV_ID_Y)
 3822              		.loc 1 1625 3 is_stmt 1 view .LVU1110
 3823              		.loc 1 1625 7 is_stmt 0 view .LVU1111
 3824 004a FFF7FEFF 		bl	HAL_GetREVID
 3825              	.LVL267:
 3826              		.loc 1 1625 6 discriminator 1 view .LVU1112
 3827 004e 41F20303 		movw	r3, #4099
 3828 0052 9842     		cmp	r0, r3
 3829 0054 62D8     		bhi	.L338
1626:Drivers/STM32H7xx_HAL_Driver/Src/stm32h7xx_hal_rcc.c ****   {
1627:Drivers/STM32H7xx_HAL_Driver/Src/stm32h7xx_hal_rcc.c ****     RCC_OscInitStruct->HSICalibrationValue = (uint32_t)(READ_BIT(RCC->HSICFGR, HAL_RCC_REV_Y_HSITRI
 3830              		.loc 1 1627 5 is_stmt 1 view .LVU1113
 3831              		.loc 1 1627 57 is_stmt 0 view .LVU1114
 3832 0056 3E4B     		ldr	r3, .L350
 3833 0058 5B68     		ldr	r3, [r3, #4]
 3834              		.loc 1 1627 46 view .LVU1115
 3835 005a C3F30533 		ubfx	r3, r3, #12, #6
 3836              		.loc 1 1627 44 view .LVU1116
 3837 005e 2361     		str	r3, [r4, #16]
 3838              	.L339:
1628:Drivers/STM32H7xx_HAL_Driver/Src/stm32h7xx_hal_rcc.c ****   }
1629:Drivers/STM32H7xx_HAL_Driver/Src/stm32h7xx_hal_rcc.c ****   else
1630:Drivers/STM32H7xx_HAL_Driver/Src/stm32h7xx_hal_rcc.c ****   {
1631:Drivers/STM32H7xx_HAL_Driver/Src/stm32h7xx_hal_rcc.c ****     RCC_OscInitStruct->HSICalibrationValue = (uint32_t)(READ_BIT(RCC->HSICFGR, RCC_HSICFGR_HSITRIM)
1632:Drivers/STM32H7xx_HAL_Driver/Src/stm32h7xx_hal_rcc.c ****   }
1633:Drivers/STM32H7xx_HAL_Driver/Src/stm32h7xx_hal_rcc.c **** #else
1634:Drivers/STM32H7xx_HAL_Driver/Src/stm32h7xx_hal_rcc.c ****   RCC_OscInitStruct->HSICalibrationValue = (uint32_t)(READ_BIT(RCC->HSICFGR, RCC_HSICFGR_HSITRIM) >
1635:Drivers/STM32H7xx_HAL_Driver/Src/stm32h7xx_hal_rcc.c **** #endif /*RCC_VER_X*/
1636:Drivers/STM32H7xx_HAL_Driver/Src/stm32h7xx_hal_rcc.c **** 
1637:Drivers/STM32H7xx_HAL_Driver/Src/stm32h7xx_hal_rcc.c ****   /* Get the LSE configuration -----------------------------------------------*/
1638:Drivers/STM32H7xx_HAL_Driver/Src/stm32h7xx_hal_rcc.c **** #if defined(RCC_BDCR_LSEEXT)
1639:Drivers/STM32H7xx_HAL_Driver/Src/stm32h7xx_hal_rcc.c ****   if ((RCC->BDCR & (RCC_BDCR_LSEBYP | RCC_BDCR_LSEEXT)) == RCC_BDCR_LSEBYP)
1640:Drivers/STM32H7xx_HAL_Driver/Src/stm32h7xx_hal_rcc.c ****   {
1641:Drivers/STM32H7xx_HAL_Driver/Src/stm32h7xx_hal_rcc.c ****     RCC_OscInitStruct->LSEState = RCC_LSE_BYPASS;
1642:Drivers/STM32H7xx_HAL_Driver/Src/stm32h7xx_hal_rcc.c ****   }
1643:Drivers/STM32H7xx_HAL_Driver/Src/stm32h7xx_hal_rcc.c ****   else if ((RCC->BDCR & (RCC_BDCR_LSEBYP | RCC_BDCR_LSEEXT)) == (RCC_BDCR_LSEBYP | RCC_BDCR_LSEEXT)
1644:Drivers/STM32H7xx_HAL_Driver/Src/stm32h7xx_hal_rcc.c ****   {
1645:Drivers/STM32H7xx_HAL_Driver/Src/stm32h7xx_hal_rcc.c ****     RCC_OscInitStruct->LSEState = RCC_LSE_BYPASS_DIGITAL;
1646:Drivers/STM32H7xx_HAL_Driver/Src/stm32h7xx_hal_rcc.c ****   }
1647:Drivers/STM32H7xx_HAL_Driver/Src/stm32h7xx_hal_rcc.c ****   else if ((RCC->BDCR & RCC_BDCR_LSEON) == RCC_BDCR_LSEON)
1648:Drivers/STM32H7xx_HAL_Driver/Src/stm32h7xx_hal_rcc.c ****   {
1649:Drivers/STM32H7xx_HAL_Driver/Src/stm32h7xx_hal_rcc.c ****     RCC_OscInitStruct->LSEState = RCC_LSE_ON;
1650:Drivers/STM32H7xx_HAL_Driver/Src/stm32h7xx_hal_rcc.c ****   }
1651:Drivers/STM32H7xx_HAL_Driver/Src/stm32h7xx_hal_rcc.c ****   else
1652:Drivers/STM32H7xx_HAL_Driver/Src/stm32h7xx_hal_rcc.c ****   {
1653:Drivers/STM32H7xx_HAL_Driver/Src/stm32h7xx_hal_rcc.c ****     RCC_OscInitStruct->LSEState = RCC_LSE_OFF;
1654:Drivers/STM32H7xx_HAL_Driver/Src/stm32h7xx_hal_rcc.c ****   }
1655:Drivers/STM32H7xx_HAL_Driver/Src/stm32h7xx_hal_rcc.c **** #else
ARM GAS  /var/folders/g1/j12m_ky910s3_sv7d4yrsdn00000gn/T//ccmnBD4l.s 			page 110


1656:Drivers/STM32H7xx_HAL_Driver/Src/stm32h7xx_hal_rcc.c ****   if ((RCC->BDCR & RCC_BDCR_LSEBYP) == RCC_BDCR_LSEBYP)
 3839              		.loc 1 1656 3 is_stmt 1 view .LVU1117
 3840              		.loc 1 1656 11 is_stmt 0 view .LVU1118
 3841 0060 3B4B     		ldr	r3, .L350
 3842 0062 1B6F     		ldr	r3, [r3, #112]
 3843              		.loc 1 1656 6 view .LVU1119
 3844 0064 13F0040F 		tst	r3, #4
 3845 0068 5ED0     		beq	.L340
1657:Drivers/STM32H7xx_HAL_Driver/Src/stm32h7xx_hal_rcc.c ****   {
1658:Drivers/STM32H7xx_HAL_Driver/Src/stm32h7xx_hal_rcc.c ****     RCC_OscInitStruct->LSEState = RCC_LSE_BYPASS;
 3846              		.loc 1 1658 5 is_stmt 1 view .LVU1120
 3847              		.loc 1 1658 33 is_stmt 0 view .LVU1121
 3848 006a 0523     		movs	r3, #5
 3849 006c A360     		str	r3, [r4, #8]
 3850              	.L341:
1659:Drivers/STM32H7xx_HAL_Driver/Src/stm32h7xx_hal_rcc.c ****   }
1660:Drivers/STM32H7xx_HAL_Driver/Src/stm32h7xx_hal_rcc.c ****   else if ((RCC->BDCR & RCC_BDCR_LSEON) == RCC_BDCR_LSEON)
1661:Drivers/STM32H7xx_HAL_Driver/Src/stm32h7xx_hal_rcc.c ****   {
1662:Drivers/STM32H7xx_HAL_Driver/Src/stm32h7xx_hal_rcc.c ****     RCC_OscInitStruct->LSEState = RCC_LSE_ON;
1663:Drivers/STM32H7xx_HAL_Driver/Src/stm32h7xx_hal_rcc.c ****   }
1664:Drivers/STM32H7xx_HAL_Driver/Src/stm32h7xx_hal_rcc.c ****   else
1665:Drivers/STM32H7xx_HAL_Driver/Src/stm32h7xx_hal_rcc.c ****   {
1666:Drivers/STM32H7xx_HAL_Driver/Src/stm32h7xx_hal_rcc.c ****     RCC_OscInitStruct->LSEState = RCC_LSE_OFF;
1667:Drivers/STM32H7xx_HAL_Driver/Src/stm32h7xx_hal_rcc.c ****   }
1668:Drivers/STM32H7xx_HAL_Driver/Src/stm32h7xx_hal_rcc.c **** #endif /* RCC_BDCR_LSEEXT */
1669:Drivers/STM32H7xx_HAL_Driver/Src/stm32h7xx_hal_rcc.c **** 
1670:Drivers/STM32H7xx_HAL_Driver/Src/stm32h7xx_hal_rcc.c ****   /* Get the LSI configuration -----------------------------------------------*/
1671:Drivers/STM32H7xx_HAL_Driver/Src/stm32h7xx_hal_rcc.c ****   if ((RCC->CSR & RCC_CSR_LSION) == RCC_CSR_LSION)
 3851              		.loc 1 1671 3 is_stmt 1 view .LVU1122
 3852              		.loc 1 1671 11 is_stmt 0 view .LVU1123
 3853 006e 384B     		ldr	r3, .L350
 3854 0070 5B6F     		ldr	r3, [r3, #116]
 3855              		.loc 1 1671 6 view .LVU1124
 3856 0072 13F0010F 		tst	r3, #1
 3857 0076 62D0     		beq	.L343
1672:Drivers/STM32H7xx_HAL_Driver/Src/stm32h7xx_hal_rcc.c ****   {
1673:Drivers/STM32H7xx_HAL_Driver/Src/stm32h7xx_hal_rcc.c ****     RCC_OscInitStruct->LSIState = RCC_LSI_ON;
 3858              		.loc 1 1673 5 is_stmt 1 view .LVU1125
 3859              		.loc 1 1673 33 is_stmt 0 view .LVU1126
 3860 0078 0123     		movs	r3, #1
 3861 007a 6361     		str	r3, [r4, #20]
 3862              	.L344:
1674:Drivers/STM32H7xx_HAL_Driver/Src/stm32h7xx_hal_rcc.c ****   }
1675:Drivers/STM32H7xx_HAL_Driver/Src/stm32h7xx_hal_rcc.c ****   else
1676:Drivers/STM32H7xx_HAL_Driver/Src/stm32h7xx_hal_rcc.c ****   {
1677:Drivers/STM32H7xx_HAL_Driver/Src/stm32h7xx_hal_rcc.c ****     RCC_OscInitStruct->LSIState = RCC_LSI_OFF;
1678:Drivers/STM32H7xx_HAL_Driver/Src/stm32h7xx_hal_rcc.c ****   }
1679:Drivers/STM32H7xx_HAL_Driver/Src/stm32h7xx_hal_rcc.c **** 
1680:Drivers/STM32H7xx_HAL_Driver/Src/stm32h7xx_hal_rcc.c ****   /* Get the HSI48 configuration ---------------------------------------------*/
1681:Drivers/STM32H7xx_HAL_Driver/Src/stm32h7xx_hal_rcc.c ****   if ((RCC->CR & RCC_CR_HSI48ON) == RCC_CR_HSI48ON)
 3863              		.loc 1 1681 3 is_stmt 1 view .LVU1127
 3864              		.loc 1 1681 11 is_stmt 0 view .LVU1128
 3865 007c 344B     		ldr	r3, .L350
 3866 007e 1B68     		ldr	r3, [r3]
 3867              		.loc 1 1681 6 view .LVU1129
 3868 0080 13F4805F 		tst	r3, #4096
 3869 0084 5ED0     		beq	.L345
ARM GAS  /var/folders/g1/j12m_ky910s3_sv7d4yrsdn00000gn/T//ccmnBD4l.s 			page 111


1682:Drivers/STM32H7xx_HAL_Driver/Src/stm32h7xx_hal_rcc.c ****   {
1683:Drivers/STM32H7xx_HAL_Driver/Src/stm32h7xx_hal_rcc.c ****     RCC_OscInitStruct->HSI48State = RCC_HSI48_ON;
 3870              		.loc 1 1683 5 is_stmt 1 view .LVU1130
 3871              		.loc 1 1683 35 is_stmt 0 view .LVU1131
 3872 0086 0123     		movs	r3, #1
 3873 0088 A361     		str	r3, [r4, #24]
 3874              	.L346:
1684:Drivers/STM32H7xx_HAL_Driver/Src/stm32h7xx_hal_rcc.c ****   }
1685:Drivers/STM32H7xx_HAL_Driver/Src/stm32h7xx_hal_rcc.c ****   else
1686:Drivers/STM32H7xx_HAL_Driver/Src/stm32h7xx_hal_rcc.c ****   {
1687:Drivers/STM32H7xx_HAL_Driver/Src/stm32h7xx_hal_rcc.c ****     RCC_OscInitStruct->HSI48State = RCC_HSI48_OFF;
1688:Drivers/STM32H7xx_HAL_Driver/Src/stm32h7xx_hal_rcc.c ****   }
1689:Drivers/STM32H7xx_HAL_Driver/Src/stm32h7xx_hal_rcc.c **** 
1690:Drivers/STM32H7xx_HAL_Driver/Src/stm32h7xx_hal_rcc.c ****   /* Get the PLL configuration -----------------------------------------------*/
1691:Drivers/STM32H7xx_HAL_Driver/Src/stm32h7xx_hal_rcc.c ****   if ((RCC->CR & RCC_CR_PLLON) == RCC_CR_PLLON)
 3875              		.loc 1 1691 3 is_stmt 1 view .LVU1132
 3876              		.loc 1 1691 11 is_stmt 0 view .LVU1133
 3877 008a 314B     		ldr	r3, .L350
 3878 008c 1B68     		ldr	r3, [r3]
 3879              		.loc 1 1691 6 view .LVU1134
 3880 008e 13F0807F 		tst	r3, #16777216
 3881 0092 5AD0     		beq	.L347
1692:Drivers/STM32H7xx_HAL_Driver/Src/stm32h7xx_hal_rcc.c ****   {
1693:Drivers/STM32H7xx_HAL_Driver/Src/stm32h7xx_hal_rcc.c ****     RCC_OscInitStruct->PLL.PLLState = RCC_PLL_ON;
 3882              		.loc 1 1693 5 is_stmt 1 view .LVU1135
 3883              		.loc 1 1693 37 is_stmt 0 view .LVU1136
 3884 0094 0223     		movs	r3, #2
 3885 0096 6362     		str	r3, [r4, #36]
 3886              	.L348:
1694:Drivers/STM32H7xx_HAL_Driver/Src/stm32h7xx_hal_rcc.c ****   }
1695:Drivers/STM32H7xx_HAL_Driver/Src/stm32h7xx_hal_rcc.c ****   else
1696:Drivers/STM32H7xx_HAL_Driver/Src/stm32h7xx_hal_rcc.c ****   {
1697:Drivers/STM32H7xx_HAL_Driver/Src/stm32h7xx_hal_rcc.c ****     RCC_OscInitStruct->PLL.PLLState = RCC_PLL_OFF;
1698:Drivers/STM32H7xx_HAL_Driver/Src/stm32h7xx_hal_rcc.c ****   }
1699:Drivers/STM32H7xx_HAL_Driver/Src/stm32h7xx_hal_rcc.c ****   RCC_OscInitStruct->PLL.PLLSource = (uint32_t)(RCC->PLLCKSELR & RCC_PLLCKSELR_PLLSRC);
 3887              		.loc 1 1699 3 is_stmt 1 view .LVU1137
 3888              		.loc 1 1699 52 is_stmt 0 view .LVU1138
 3889 0098 2D4B     		ldr	r3, .L350
 3890 009a 9A6A     		ldr	r2, [r3, #40]
 3891              		.loc 1 1699 38 view .LVU1139
 3892 009c 02F00302 		and	r2, r2, #3
 3893              		.loc 1 1699 36 view .LVU1140
 3894 00a0 A262     		str	r2, [r4, #40]
1700:Drivers/STM32H7xx_HAL_Driver/Src/stm32h7xx_hal_rcc.c ****   RCC_OscInitStruct->PLL.PLLM = (uint32_t)((RCC->PLLCKSELR & RCC_PLLCKSELR_DIVM1) >> RCC_PLLCKSELR_
 3895              		.loc 1 1700 3 is_stmt 1 view .LVU1141
 3896              		.loc 1 1700 48 is_stmt 0 view .LVU1142
 3897 00a2 9A6A     		ldr	r2, [r3, #40]
 3898              		.loc 1 1700 33 view .LVU1143
 3899 00a4 C2F30512 		ubfx	r2, r2, #4, #6
 3900              		.loc 1 1700 31 view .LVU1144
 3901 00a8 E262     		str	r2, [r4, #44]
1701:Drivers/STM32H7xx_HAL_Driver/Src/stm32h7xx_hal_rcc.c ****   RCC_OscInitStruct->PLL.PLLN = (uint32_t)((RCC->PLL1DIVR & RCC_PLL1DIVR_N1) >> RCC_PLL1DIVR_N1_Pos
 3902              		.loc 1 1701 3 is_stmt 1 view .LVU1145
 3903              		.loc 1 1701 48 is_stmt 0 view .LVU1146
 3904 00aa 1A6B     		ldr	r2, [r3, #48]
 3905              		.loc 1 1701 33 view .LVU1147
 3906 00ac C2F30802 		ubfx	r2, r2, #0, #9
ARM GAS  /var/folders/g1/j12m_ky910s3_sv7d4yrsdn00000gn/T//ccmnBD4l.s 			page 112


 3907              		.loc 1 1701 102 view .LVU1148
 3908 00b0 0132     		adds	r2, r2, #1
 3909              		.loc 1 1701 31 view .LVU1149
 3910 00b2 2263     		str	r2, [r4, #48]
1702:Drivers/STM32H7xx_HAL_Driver/Src/stm32h7xx_hal_rcc.c ****   RCC_OscInitStruct->PLL.PLLR = (uint32_t)((RCC->PLL1DIVR & RCC_PLL1DIVR_R1) >> RCC_PLL1DIVR_R1_Pos
 3911              		.loc 1 1702 3 is_stmt 1 view .LVU1150
 3912              		.loc 1 1702 48 is_stmt 0 view .LVU1151
 3913 00b4 1A6B     		ldr	r2, [r3, #48]
 3914              		.loc 1 1702 33 view .LVU1152
 3915 00b6 C2F30662 		ubfx	r2, r2, #24, #7
 3916              		.loc 1 1702 102 view .LVU1153
 3917 00ba 0132     		adds	r2, r2, #1
 3918              		.loc 1 1702 31 view .LVU1154
 3919 00bc E263     		str	r2, [r4, #60]
1703:Drivers/STM32H7xx_HAL_Driver/Src/stm32h7xx_hal_rcc.c ****   RCC_OscInitStruct->PLL.PLLP = (uint32_t)((RCC->PLL1DIVR & RCC_PLL1DIVR_P1) >> RCC_PLL1DIVR_P1_Pos
 3920              		.loc 1 1703 3 is_stmt 1 view .LVU1155
 3921              		.loc 1 1703 48 is_stmt 0 view .LVU1156
 3922 00be 1A6B     		ldr	r2, [r3, #48]
 3923              		.loc 1 1703 33 view .LVU1157
 3924 00c0 C2F34622 		ubfx	r2, r2, #9, #7
 3925              		.loc 1 1703 102 view .LVU1158
 3926 00c4 0132     		adds	r2, r2, #1
 3927              		.loc 1 1703 31 view .LVU1159
 3928 00c6 6263     		str	r2, [r4, #52]
1704:Drivers/STM32H7xx_HAL_Driver/Src/stm32h7xx_hal_rcc.c ****   RCC_OscInitStruct->PLL.PLLQ = (uint32_t)((RCC->PLL1DIVR & RCC_PLL1DIVR_Q1) >> RCC_PLL1DIVR_Q1_Pos
 3929              		.loc 1 1704 3 is_stmt 1 view .LVU1160
 3930              		.loc 1 1704 48 is_stmt 0 view .LVU1161
 3931 00c8 1A6B     		ldr	r2, [r3, #48]
 3932              		.loc 1 1704 33 view .LVU1162
 3933 00ca C2F30642 		ubfx	r2, r2, #16, #7
 3934              		.loc 1 1704 102 view .LVU1163
 3935 00ce 0132     		adds	r2, r2, #1
 3936              		.loc 1 1704 31 view .LVU1164
 3937 00d0 A263     		str	r2, [r4, #56]
1705:Drivers/STM32H7xx_HAL_Driver/Src/stm32h7xx_hal_rcc.c ****   RCC_OscInitStruct->PLL.PLLRGE = (uint32_t)((RCC->PLLCFGR & RCC_PLLCFGR_PLL1RGE));
 3938              		.loc 1 1705 3 is_stmt 1 view .LVU1165
 3939              		.loc 1 1705 50 is_stmt 0 view .LVU1166
 3940 00d2 DA6A     		ldr	r2, [r3, #44]
 3941              		.loc 1 1705 35 view .LVU1167
 3942 00d4 02F00C02 		and	r2, r2, #12
 3943              		.loc 1 1705 33 view .LVU1168
 3944 00d8 2264     		str	r2, [r4, #64]
1706:Drivers/STM32H7xx_HAL_Driver/Src/stm32h7xx_hal_rcc.c ****   RCC_OscInitStruct->PLL.PLLVCOSEL = (uint32_t)((RCC->PLLCFGR & RCC_PLLCFGR_PLL1VCOSEL) >> RCC_PLLC
 3945              		.loc 1 1706 3 is_stmt 1 view .LVU1169
 3946              		.loc 1 1706 53 is_stmt 0 view .LVU1170
 3947 00da DA6A     		ldr	r2, [r3, #44]
 3948              		.loc 1 1706 38 view .LVU1171
 3949 00dc C2F34002 		ubfx	r2, r2, #1, #1
 3950              		.loc 1 1706 36 view .LVU1172
 3951 00e0 6264     		str	r2, [r4, #68]
1707:Drivers/STM32H7xx_HAL_Driver/Src/stm32h7xx_hal_rcc.c ****   RCC_OscInitStruct->PLL.PLLFRACN = (uint32_t)(((RCC->PLL1FRACR & RCC_PLL1FRACR_FRACN1) >> RCC_PLL1
 3952              		.loc 1 1707 3 is_stmt 1 view .LVU1173
 3953              		.loc 1 1707 53 is_stmt 0 view .LVU1174
 3954 00e2 5B6B     		ldr	r3, [r3, #52]
 3955              		.loc 1 1707 37 view .LVU1175
 3956 00e4 C3F3CC03 		ubfx	r3, r3, #3, #13
 3957              		.loc 1 1707 35 view .LVU1176
ARM GAS  /var/folders/g1/j12m_ky910s3_sv7d4yrsdn00000gn/T//ccmnBD4l.s 			page 113


 3958 00e8 A364     		str	r3, [r4, #72]
1708:Drivers/STM32H7xx_HAL_Driver/Src/stm32h7xx_hal_rcc.c **** }
 3959              		.loc 1 1708 1 view .LVU1177
 3960 00ea 10BD     		pop	{r4, pc}
 3961              	.LVL268:
 3962              	.L329:
1581:Drivers/STM32H7xx_HAL_Driver/Src/stm32h7xx_hal_rcc.c ****   {
 3963              		.loc 1 1581 8 is_stmt 1 view .LVU1178
1581:Drivers/STM32H7xx_HAL_Driver/Src/stm32h7xx_hal_rcc.c ****   {
 3964              		.loc 1 1581 16 is_stmt 0 view .LVU1179
 3965 00ec 184B     		ldr	r3, .L350
 3966 00ee 1B68     		ldr	r3, [r3]
1581:Drivers/STM32H7xx_HAL_Driver/Src/stm32h7xx_hal_rcc.c ****   {
 3967              		.loc 1 1581 11 view .LVU1180
 3968 00f0 13F4803F 		tst	r3, #65536
 3969 00f4 03D0     		beq	.L331
1583:Drivers/STM32H7xx_HAL_Driver/Src/stm32h7xx_hal_rcc.c ****   }
 3970              		.loc 1 1583 5 is_stmt 1 view .LVU1181
1583:Drivers/STM32H7xx_HAL_Driver/Src/stm32h7xx_hal_rcc.c ****   }
 3971              		.loc 1 1583 33 is_stmt 0 view .LVU1182
 3972 00f6 4FF48033 		mov	r3, #65536
 3973 00fa 4360     		str	r3, [r0, #4]
 3974 00fc 8CE7     		b	.L330
 3975              	.L331:
1587:Drivers/STM32H7xx_HAL_Driver/Src/stm32h7xx_hal_rcc.c ****   }
 3976              		.loc 1 1587 5 is_stmt 1 view .LVU1183
1587:Drivers/STM32H7xx_HAL_Driver/Src/stm32h7xx_hal_rcc.c ****   }
 3977              		.loc 1 1587 33 is_stmt 0 view .LVU1184
 3978 00fe 0023     		movs	r3, #0
 3979 0100 4360     		str	r3, [r0, #4]
 3980 0102 89E7     		b	.L330
 3981              	.L332:
1598:Drivers/STM32H7xx_HAL_Driver/Src/stm32h7xx_hal_rcc.c ****   }
 3982              		.loc 1 1598 5 is_stmt 1 view .LVU1185
1598:Drivers/STM32H7xx_HAL_Driver/Src/stm32h7xx_hal_rcc.c ****   }
 3983              		.loc 1 1598 33 is_stmt 0 view .LVU1186
 3984 0104 0023     		movs	r3, #0
 3985 0106 E361     		str	r3, [r4, #28]
 3986 0108 8DE7     		b	.L333
 3987              	.LVL269:
 3988              	.L334:
1608:Drivers/STM32H7xx_HAL_Driver/Src/stm32h7xx_hal_rcc.c ****   }
 3989              		.loc 1 1608 5 is_stmt 1 view .LVU1187
1608:Drivers/STM32H7xx_HAL_Driver/Src/stm32h7xx_hal_rcc.c ****   }
 3990              		.loc 1 1608 57 is_stmt 0 view .LVU1188
 3991 010a 114B     		ldr	r3, .L350
 3992 010c DB68     		ldr	r3, [r3, #12]
1608:Drivers/STM32H7xx_HAL_Driver/Src/stm32h7xx_hal_rcc.c ****   }
 3993              		.loc 1 1608 46 view .LVU1189
 3994 010e C3F30563 		ubfx	r3, r3, #24, #6
1608:Drivers/STM32H7xx_HAL_Driver/Src/stm32h7xx_hal_rcc.c ****   }
 3995              		.loc 1 1608 44 view .LVU1190
 3996 0112 2362     		str	r3, [r4, #32]
 3997 0114 92E7     		b	.L335
 3998              	.L336:
1621:Drivers/STM32H7xx_HAL_Driver/Src/stm32h7xx_hal_rcc.c ****   }
 3999              		.loc 1 1621 5 is_stmt 1 view .LVU1191
ARM GAS  /var/folders/g1/j12m_ky910s3_sv7d4yrsdn00000gn/T//ccmnBD4l.s 			page 114


1621:Drivers/STM32H7xx_HAL_Driver/Src/stm32h7xx_hal_rcc.c ****   }
 4000              		.loc 1 1621 33 is_stmt 0 view .LVU1192
 4001 0116 0023     		movs	r3, #0
 4002 0118 E360     		str	r3, [r4, #12]
 4003 011a 96E7     		b	.L337
 4004              	.L338:
1631:Drivers/STM32H7xx_HAL_Driver/Src/stm32h7xx_hal_rcc.c ****   }
 4005              		.loc 1 1631 5 is_stmt 1 view .LVU1193
1631:Drivers/STM32H7xx_HAL_Driver/Src/stm32h7xx_hal_rcc.c ****   }
 4006              		.loc 1 1631 57 is_stmt 0 view .LVU1194
 4007 011c 0C4B     		ldr	r3, .L350
 4008 011e 5B68     		ldr	r3, [r3, #4]
1631:Drivers/STM32H7xx_HAL_Driver/Src/stm32h7xx_hal_rcc.c ****   }
 4009              		.loc 1 1631 46 view .LVU1195
 4010 0120 C3F30663 		ubfx	r3, r3, #24, #7
1631:Drivers/STM32H7xx_HAL_Driver/Src/stm32h7xx_hal_rcc.c ****   }
 4011              		.loc 1 1631 44 view .LVU1196
 4012 0124 2361     		str	r3, [r4, #16]
 4013 0126 9BE7     		b	.L339
 4014              	.L340:
1660:Drivers/STM32H7xx_HAL_Driver/Src/stm32h7xx_hal_rcc.c ****   {
 4015              		.loc 1 1660 8 is_stmt 1 view .LVU1197
1660:Drivers/STM32H7xx_HAL_Driver/Src/stm32h7xx_hal_rcc.c ****   {
 4016              		.loc 1 1660 16 is_stmt 0 view .LVU1198
 4017 0128 094B     		ldr	r3, .L350
 4018 012a 1B6F     		ldr	r3, [r3, #112]
1660:Drivers/STM32H7xx_HAL_Driver/Src/stm32h7xx_hal_rcc.c ****   {
 4019              		.loc 1 1660 11 view .LVU1199
 4020 012c 13F0010F 		tst	r3, #1
 4021 0130 02D0     		beq	.L342
1662:Drivers/STM32H7xx_HAL_Driver/Src/stm32h7xx_hal_rcc.c ****   }
 4022              		.loc 1 1662 5 is_stmt 1 view .LVU1200
1662:Drivers/STM32H7xx_HAL_Driver/Src/stm32h7xx_hal_rcc.c ****   }
 4023              		.loc 1 1662 33 is_stmt 0 view .LVU1201
 4024 0132 0123     		movs	r3, #1
 4025 0134 A360     		str	r3, [r4, #8]
 4026 0136 9AE7     		b	.L341
 4027              	.L342:
1666:Drivers/STM32H7xx_HAL_Driver/Src/stm32h7xx_hal_rcc.c ****   }
 4028              		.loc 1 1666 5 is_stmt 1 view .LVU1202
1666:Drivers/STM32H7xx_HAL_Driver/Src/stm32h7xx_hal_rcc.c ****   }
 4029              		.loc 1 1666 33 is_stmt 0 view .LVU1203
 4030 0138 0023     		movs	r3, #0
 4031 013a A360     		str	r3, [r4, #8]
 4032 013c 97E7     		b	.L341
 4033              	.L343:
1677:Drivers/STM32H7xx_HAL_Driver/Src/stm32h7xx_hal_rcc.c ****   }
 4034              		.loc 1 1677 5 is_stmt 1 view .LVU1204
1677:Drivers/STM32H7xx_HAL_Driver/Src/stm32h7xx_hal_rcc.c ****   }
 4035              		.loc 1 1677 33 is_stmt 0 view .LVU1205
 4036 013e 0023     		movs	r3, #0
 4037 0140 6361     		str	r3, [r4, #20]
 4038 0142 9BE7     		b	.L344
 4039              	.L345:
1687:Drivers/STM32H7xx_HAL_Driver/Src/stm32h7xx_hal_rcc.c ****   }
 4040              		.loc 1 1687 5 is_stmt 1 view .LVU1206
1687:Drivers/STM32H7xx_HAL_Driver/Src/stm32h7xx_hal_rcc.c ****   }
ARM GAS  /var/folders/g1/j12m_ky910s3_sv7d4yrsdn00000gn/T//ccmnBD4l.s 			page 115


 4041              		.loc 1 1687 35 is_stmt 0 view .LVU1207
 4042 0144 0023     		movs	r3, #0
 4043 0146 A361     		str	r3, [r4, #24]
 4044 0148 9FE7     		b	.L346
 4045              	.L347:
1697:Drivers/STM32H7xx_HAL_Driver/Src/stm32h7xx_hal_rcc.c ****   }
 4046              		.loc 1 1697 5 is_stmt 1 view .LVU1208
1697:Drivers/STM32H7xx_HAL_Driver/Src/stm32h7xx_hal_rcc.c ****   }
 4047              		.loc 1 1697 37 is_stmt 0 view .LVU1209
 4048 014a 0123     		movs	r3, #1
 4049 014c 6362     		str	r3, [r4, #36]
 4050 014e A3E7     		b	.L348
 4051              	.L351:
 4052              		.align	2
 4053              	.L350:
 4054 0150 00440258 		.word	1476543488
 4055              		.cfi_endproc
 4056              	.LFE154:
 4058              		.section	.text.HAL_RCC_GetClockConfig,"ax",%progbits
 4059              		.align	1
 4060              		.global	HAL_RCC_GetClockConfig
 4061              		.syntax unified
 4062              		.thumb
 4063              		.thumb_func
 4065              	HAL_RCC_GetClockConfig:
 4066              	.LVL270:
 4067              	.LFB155:
1709:Drivers/STM32H7xx_HAL_Driver/Src/stm32h7xx_hal_rcc.c **** 
1710:Drivers/STM32H7xx_HAL_Driver/Src/stm32h7xx_hal_rcc.c **** /**
1711:Drivers/STM32H7xx_HAL_Driver/Src/stm32h7xx_hal_rcc.c ****   * @brief  Configures the RCC_ClkInitStruct according to the internal
1712:Drivers/STM32H7xx_HAL_Driver/Src/stm32h7xx_hal_rcc.c ****   * RCC configuration registers.
1713:Drivers/STM32H7xx_HAL_Driver/Src/stm32h7xx_hal_rcc.c ****   * @param  RCC_ClkInitStruct: pointer to an RCC_ClkInitTypeDef structure that
1714:Drivers/STM32H7xx_HAL_Driver/Src/stm32h7xx_hal_rcc.c ****   * will be configured.
1715:Drivers/STM32H7xx_HAL_Driver/Src/stm32h7xx_hal_rcc.c ****   * @param  pFLatency: Pointer on the Flash Latency.
1716:Drivers/STM32H7xx_HAL_Driver/Src/stm32h7xx_hal_rcc.c ****   * @retval None
1717:Drivers/STM32H7xx_HAL_Driver/Src/stm32h7xx_hal_rcc.c ****   */
1718:Drivers/STM32H7xx_HAL_Driver/Src/stm32h7xx_hal_rcc.c **** void HAL_RCC_GetClockConfig(RCC_ClkInitTypeDef  *RCC_ClkInitStruct, uint32_t *pFLatency)
1719:Drivers/STM32H7xx_HAL_Driver/Src/stm32h7xx_hal_rcc.c **** {
 4068              		.loc 1 1719 1 is_stmt 1 view -0
 4069              		.cfi_startproc
 4070              		@ args = 0, pretend = 0, frame = 0
 4071              		@ frame_needed = 0, uses_anonymous_args = 0
 4072              		@ link register save eliminated.
1720:Drivers/STM32H7xx_HAL_Driver/Src/stm32h7xx_hal_rcc.c ****   /* Set all possible values for the Clock type parameter --------------------*/
1721:Drivers/STM32H7xx_HAL_Driver/Src/stm32h7xx_hal_rcc.c ****   RCC_ClkInitStruct->ClockType = RCC_CLOCKTYPE_SYSCLK | RCC_CLOCKTYPE_HCLK | RCC_CLOCKTYPE_D1PCLK1 
 4073              		.loc 1 1721 3 view .LVU1211
 4074              		.loc 1 1721 32 is_stmt 0 view .LVU1212
 4075 0000 3F23     		movs	r3, #63
 4076 0002 0360     		str	r3, [r0]
1722:Drivers/STM32H7xx_HAL_Driver/Src/stm32h7xx_hal_rcc.c ****                                  RCC_CLOCKTYPE_PCLK2 |  RCC_CLOCKTYPE_D3PCLK1  ;
1723:Drivers/STM32H7xx_HAL_Driver/Src/stm32h7xx_hal_rcc.c **** 
1724:Drivers/STM32H7xx_HAL_Driver/Src/stm32h7xx_hal_rcc.c ****   /* Get the SYSCLK configuration --------------------------------------------*/
1725:Drivers/STM32H7xx_HAL_Driver/Src/stm32h7xx_hal_rcc.c ****   RCC_ClkInitStruct->SYSCLKSource = (uint32_t)(RCC->CFGR & RCC_CFGR_SW);
 4077              		.loc 1 1725 3 is_stmt 1 view .LVU1213
 4078              		.loc 1 1725 51 is_stmt 0 view .LVU1214
 4079 0004 114B     		ldr	r3, .L353
 4080 0006 1A69     		ldr	r2, [r3, #16]
ARM GAS  /var/folders/g1/j12m_ky910s3_sv7d4yrsdn00000gn/T//ccmnBD4l.s 			page 116


 4081              		.loc 1 1725 37 view .LVU1215
 4082 0008 02F00702 		and	r2, r2, #7
 4083              		.loc 1 1725 35 view .LVU1216
 4084 000c 4260     		str	r2, [r0, #4]
1726:Drivers/STM32H7xx_HAL_Driver/Src/stm32h7xx_hal_rcc.c **** 
1727:Drivers/STM32H7xx_HAL_Driver/Src/stm32h7xx_hal_rcc.c **** #if defined(RCC_D1CFGR_D1CPRE)
1728:Drivers/STM32H7xx_HAL_Driver/Src/stm32h7xx_hal_rcc.c ****   /* Get the SYSCLK configuration ----------------------------------------------*/
1729:Drivers/STM32H7xx_HAL_Driver/Src/stm32h7xx_hal_rcc.c ****   RCC_ClkInitStruct->SYSCLKDivider = (uint32_t)(RCC->D1CFGR & RCC_D1CFGR_D1CPRE);
 4085              		.loc 1 1729 3 is_stmt 1 view .LVU1217
 4086              		.loc 1 1729 52 is_stmt 0 view .LVU1218
 4087 000e 9A69     		ldr	r2, [r3, #24]
 4088              		.loc 1 1729 38 view .LVU1219
 4089 0010 02F47062 		and	r2, r2, #3840
 4090              		.loc 1 1729 36 view .LVU1220
 4091 0014 8260     		str	r2, [r0, #8]
1730:Drivers/STM32H7xx_HAL_Driver/Src/stm32h7xx_hal_rcc.c **** 
1731:Drivers/STM32H7xx_HAL_Driver/Src/stm32h7xx_hal_rcc.c ****   /* Get the D1HCLK configuration ----------------------------------------------*/
1732:Drivers/STM32H7xx_HAL_Driver/Src/stm32h7xx_hal_rcc.c ****   RCC_ClkInitStruct->AHBCLKDivider = (uint32_t)(RCC->D1CFGR & RCC_D1CFGR_HPRE);
 4092              		.loc 1 1732 3 is_stmt 1 view .LVU1221
 4093              		.loc 1 1732 52 is_stmt 0 view .LVU1222
 4094 0016 9A69     		ldr	r2, [r3, #24]
 4095              		.loc 1 1732 38 view .LVU1223
 4096 0018 02F00F02 		and	r2, r2, #15
 4097              		.loc 1 1732 36 view .LVU1224
 4098 001c C260     		str	r2, [r0, #12]
1733:Drivers/STM32H7xx_HAL_Driver/Src/stm32h7xx_hal_rcc.c **** 
1734:Drivers/STM32H7xx_HAL_Driver/Src/stm32h7xx_hal_rcc.c ****   /* Get the APB3 configuration ----------------------------------------------*/
1735:Drivers/STM32H7xx_HAL_Driver/Src/stm32h7xx_hal_rcc.c ****   RCC_ClkInitStruct->APB3CLKDivider = (uint32_t)(RCC->D1CFGR & RCC_D1CFGR_D1PPRE);
 4099              		.loc 1 1735 3 is_stmt 1 view .LVU1225
 4100              		.loc 1 1735 53 is_stmt 0 view .LVU1226
 4101 001e 9A69     		ldr	r2, [r3, #24]
 4102              		.loc 1 1735 39 view .LVU1227
 4103 0020 02F07002 		and	r2, r2, #112
 4104              		.loc 1 1735 37 view .LVU1228
 4105 0024 0261     		str	r2, [r0, #16]
1736:Drivers/STM32H7xx_HAL_Driver/Src/stm32h7xx_hal_rcc.c **** 
1737:Drivers/STM32H7xx_HAL_Driver/Src/stm32h7xx_hal_rcc.c ****   /* Get the APB1 configuration ----------------------------------------------*/
1738:Drivers/STM32H7xx_HAL_Driver/Src/stm32h7xx_hal_rcc.c ****   RCC_ClkInitStruct->APB1CLKDivider = (uint32_t)(RCC->D2CFGR & RCC_D2CFGR_D2PPRE1);
 4106              		.loc 1 1738 3 is_stmt 1 view .LVU1229
 4107              		.loc 1 1738 53 is_stmt 0 view .LVU1230
 4108 0026 DA69     		ldr	r2, [r3, #28]
 4109              		.loc 1 1738 39 view .LVU1231
 4110 0028 02F07002 		and	r2, r2, #112
 4111              		.loc 1 1738 37 view .LVU1232
 4112 002c 4261     		str	r2, [r0, #20]
1739:Drivers/STM32H7xx_HAL_Driver/Src/stm32h7xx_hal_rcc.c **** 
1740:Drivers/STM32H7xx_HAL_Driver/Src/stm32h7xx_hal_rcc.c ****   /* Get the APB2 configuration ----------------------------------------------*/
1741:Drivers/STM32H7xx_HAL_Driver/Src/stm32h7xx_hal_rcc.c ****   RCC_ClkInitStruct->APB2CLKDivider = (uint32_t)(RCC->D2CFGR & RCC_D2CFGR_D2PPRE2);
 4113              		.loc 1 1741 3 is_stmt 1 view .LVU1233
 4114              		.loc 1 1741 53 is_stmt 0 view .LVU1234
 4115 002e DA69     		ldr	r2, [r3, #28]
 4116              		.loc 1 1741 39 view .LVU1235
 4117 0030 02F4E062 		and	r2, r2, #1792
 4118              		.loc 1 1741 37 view .LVU1236
 4119 0034 8261     		str	r2, [r0, #24]
1742:Drivers/STM32H7xx_HAL_Driver/Src/stm32h7xx_hal_rcc.c **** 
1743:Drivers/STM32H7xx_HAL_Driver/Src/stm32h7xx_hal_rcc.c ****   /* Get the APB4 configuration ----------------------------------------------*/
ARM GAS  /var/folders/g1/j12m_ky910s3_sv7d4yrsdn00000gn/T//ccmnBD4l.s 			page 117


1744:Drivers/STM32H7xx_HAL_Driver/Src/stm32h7xx_hal_rcc.c ****   RCC_ClkInitStruct->APB4CLKDivider = (uint32_t)(RCC->D3CFGR & RCC_D3CFGR_D3PPRE);
 4120              		.loc 1 1744 3 is_stmt 1 view .LVU1237
 4121              		.loc 1 1744 53 is_stmt 0 view .LVU1238
 4122 0036 1B6A     		ldr	r3, [r3, #32]
 4123              		.loc 1 1744 39 view .LVU1239
 4124 0038 03F07003 		and	r3, r3, #112
 4125              		.loc 1 1744 37 view .LVU1240
 4126 003c C361     		str	r3, [r0, #28]
1745:Drivers/STM32H7xx_HAL_Driver/Src/stm32h7xx_hal_rcc.c **** #else
1746:Drivers/STM32H7xx_HAL_Driver/Src/stm32h7xx_hal_rcc.c ****   /* Get the SYSCLK configuration ----------------------------------------------*/
1747:Drivers/STM32H7xx_HAL_Driver/Src/stm32h7xx_hal_rcc.c ****   RCC_ClkInitStruct->SYSCLKDivider = (uint32_t)(RCC->CDCFGR1 & RCC_CDCFGR1_CDCPRE);
1748:Drivers/STM32H7xx_HAL_Driver/Src/stm32h7xx_hal_rcc.c **** 
1749:Drivers/STM32H7xx_HAL_Driver/Src/stm32h7xx_hal_rcc.c ****   /* Get the D1HCLK configuration ----------------------------------------------*/
1750:Drivers/STM32H7xx_HAL_Driver/Src/stm32h7xx_hal_rcc.c ****   RCC_ClkInitStruct->AHBCLKDivider = (uint32_t)(RCC->CDCFGR1 & RCC_CDCFGR1_HPRE);
1751:Drivers/STM32H7xx_HAL_Driver/Src/stm32h7xx_hal_rcc.c **** 
1752:Drivers/STM32H7xx_HAL_Driver/Src/stm32h7xx_hal_rcc.c ****   /* Get the APB3 configuration ----------------------------------------------*/
1753:Drivers/STM32H7xx_HAL_Driver/Src/stm32h7xx_hal_rcc.c ****   RCC_ClkInitStruct->APB3CLKDivider = (uint32_t)(RCC->CDCFGR1 & RCC_CDCFGR1_CDPPRE);
1754:Drivers/STM32H7xx_HAL_Driver/Src/stm32h7xx_hal_rcc.c **** 
1755:Drivers/STM32H7xx_HAL_Driver/Src/stm32h7xx_hal_rcc.c ****   /* Get the APB1 configuration ----------------------------------------------*/
1756:Drivers/STM32H7xx_HAL_Driver/Src/stm32h7xx_hal_rcc.c ****   RCC_ClkInitStruct->APB1CLKDivider = (uint32_t)(RCC->CDCFGR2 & RCC_CDCFGR2_CDPPRE1);
1757:Drivers/STM32H7xx_HAL_Driver/Src/stm32h7xx_hal_rcc.c **** 
1758:Drivers/STM32H7xx_HAL_Driver/Src/stm32h7xx_hal_rcc.c ****   /* Get the APB2 configuration ----------------------------------------------*/
1759:Drivers/STM32H7xx_HAL_Driver/Src/stm32h7xx_hal_rcc.c ****   RCC_ClkInitStruct->APB2CLKDivider = (uint32_t)(RCC->CDCFGR2 & RCC_CDCFGR2_CDPPRE2);
1760:Drivers/STM32H7xx_HAL_Driver/Src/stm32h7xx_hal_rcc.c **** 
1761:Drivers/STM32H7xx_HAL_Driver/Src/stm32h7xx_hal_rcc.c ****   /* Get the APB4 configuration ----------------------------------------------*/
1762:Drivers/STM32H7xx_HAL_Driver/Src/stm32h7xx_hal_rcc.c ****   RCC_ClkInitStruct->APB4CLKDivider = (uint32_t)(RCC->SRDCFGR & RCC_SRDCFGR_SRDPPRE);
1763:Drivers/STM32H7xx_HAL_Driver/Src/stm32h7xx_hal_rcc.c **** #endif
1764:Drivers/STM32H7xx_HAL_Driver/Src/stm32h7xx_hal_rcc.c **** 
1765:Drivers/STM32H7xx_HAL_Driver/Src/stm32h7xx_hal_rcc.c ****   /* Get the Flash Wait State (Latency) configuration ------------------------*/
1766:Drivers/STM32H7xx_HAL_Driver/Src/stm32h7xx_hal_rcc.c ****   *pFLatency = (uint32_t)(FLASH->ACR & FLASH_ACR_LATENCY);
 4127              		.loc 1 1766 3 is_stmt 1 view .LVU1241
 4128              		.loc 1 1766 32 is_stmt 0 view .LVU1242
 4129 003e 044B     		ldr	r3, .L353+4
 4130 0040 1B68     		ldr	r3, [r3]
 4131              		.loc 1 1766 16 view .LVU1243
 4132 0042 03F00F03 		and	r3, r3, #15
 4133              		.loc 1 1766 14 view .LVU1244
 4134 0046 0B60     		str	r3, [r1]
1767:Drivers/STM32H7xx_HAL_Driver/Src/stm32h7xx_hal_rcc.c **** }
 4135              		.loc 1 1767 1 view .LVU1245
 4136 0048 7047     		bx	lr
 4137              	.L354:
 4138 004a 00BF     		.align	2
 4139              	.L353:
 4140 004c 00440258 		.word	1476543488
 4141 0050 00200052 		.word	1375739904
 4142              		.cfi_endproc
 4143              	.LFE155:
 4145              		.section	.text.HAL_RCC_CSSCallback,"ax",%progbits
 4146              		.align	1
 4147              		.weak	HAL_RCC_CSSCallback
 4148              		.syntax unified
 4149              		.thumb
 4150              		.thumb_func
 4152              	HAL_RCC_CSSCallback:
 4153              	.LFB157:
1768:Drivers/STM32H7xx_HAL_Driver/Src/stm32h7xx_hal_rcc.c **** 
ARM GAS  /var/folders/g1/j12m_ky910s3_sv7d4yrsdn00000gn/T//ccmnBD4l.s 			page 118


1769:Drivers/STM32H7xx_HAL_Driver/Src/stm32h7xx_hal_rcc.c **** /**
1770:Drivers/STM32H7xx_HAL_Driver/Src/stm32h7xx_hal_rcc.c ****   * @brief This function handles the RCC CSS interrupt request.
1771:Drivers/STM32H7xx_HAL_Driver/Src/stm32h7xx_hal_rcc.c ****   * @note This API should be called under the NMI_Handler().
1772:Drivers/STM32H7xx_HAL_Driver/Src/stm32h7xx_hal_rcc.c ****   * @retval None
1773:Drivers/STM32H7xx_HAL_Driver/Src/stm32h7xx_hal_rcc.c ****   */
1774:Drivers/STM32H7xx_HAL_Driver/Src/stm32h7xx_hal_rcc.c **** void HAL_RCC_NMI_IRQHandler(void)
1775:Drivers/STM32H7xx_HAL_Driver/Src/stm32h7xx_hal_rcc.c **** {
1776:Drivers/STM32H7xx_HAL_Driver/Src/stm32h7xx_hal_rcc.c ****   /* Check RCC CSSF flag  */
1777:Drivers/STM32H7xx_HAL_Driver/Src/stm32h7xx_hal_rcc.c ****   if (__HAL_RCC_GET_IT(RCC_IT_CSS))
1778:Drivers/STM32H7xx_HAL_Driver/Src/stm32h7xx_hal_rcc.c ****   {
1779:Drivers/STM32H7xx_HAL_Driver/Src/stm32h7xx_hal_rcc.c ****     /* RCC Clock Security System interrupt user callback */
1780:Drivers/STM32H7xx_HAL_Driver/Src/stm32h7xx_hal_rcc.c ****     HAL_RCC_CSSCallback();
1781:Drivers/STM32H7xx_HAL_Driver/Src/stm32h7xx_hal_rcc.c **** 
1782:Drivers/STM32H7xx_HAL_Driver/Src/stm32h7xx_hal_rcc.c ****     /* Clear RCC CSS pending bit */
1783:Drivers/STM32H7xx_HAL_Driver/Src/stm32h7xx_hal_rcc.c ****     __HAL_RCC_CLEAR_IT(RCC_IT_CSS);
1784:Drivers/STM32H7xx_HAL_Driver/Src/stm32h7xx_hal_rcc.c ****   }
1785:Drivers/STM32H7xx_HAL_Driver/Src/stm32h7xx_hal_rcc.c **** }
1786:Drivers/STM32H7xx_HAL_Driver/Src/stm32h7xx_hal_rcc.c **** 
1787:Drivers/STM32H7xx_HAL_Driver/Src/stm32h7xx_hal_rcc.c **** /**
1788:Drivers/STM32H7xx_HAL_Driver/Src/stm32h7xx_hal_rcc.c ****   * @brief  RCC Clock Security System interrupt callback
1789:Drivers/STM32H7xx_HAL_Driver/Src/stm32h7xx_hal_rcc.c ****   * @retval none
1790:Drivers/STM32H7xx_HAL_Driver/Src/stm32h7xx_hal_rcc.c ****   */
1791:Drivers/STM32H7xx_HAL_Driver/Src/stm32h7xx_hal_rcc.c **** __weak void HAL_RCC_CSSCallback(void)
1792:Drivers/STM32H7xx_HAL_Driver/Src/stm32h7xx_hal_rcc.c **** {
 4154              		.loc 1 1792 1 is_stmt 1 view -0
 4155              		.cfi_startproc
 4156              		@ args = 0, pretend = 0, frame = 0
 4157              		@ frame_needed = 0, uses_anonymous_args = 0
 4158              		@ link register save eliminated.
1793:Drivers/STM32H7xx_HAL_Driver/Src/stm32h7xx_hal_rcc.c ****   /* NOTE : This function Should not be modified, when the callback is needed,
1794:Drivers/STM32H7xx_HAL_Driver/Src/stm32h7xx_hal_rcc.c ****             the HAL_RCC_CSSCallback could be implemented in the user file
1795:Drivers/STM32H7xx_HAL_Driver/Src/stm32h7xx_hal_rcc.c ****    */
1796:Drivers/STM32H7xx_HAL_Driver/Src/stm32h7xx_hal_rcc.c **** }
 4159              		.loc 1 1796 1 view .LVU1247
 4160 0000 7047     		bx	lr
 4161              		.cfi_endproc
 4162              	.LFE157:
 4164              		.section	.text.HAL_RCC_NMI_IRQHandler,"ax",%progbits
 4165              		.align	1
 4166              		.global	HAL_RCC_NMI_IRQHandler
 4167              		.syntax unified
 4168              		.thumb
 4169              		.thumb_func
 4171              	HAL_RCC_NMI_IRQHandler:
 4172              	.LFB156:
1775:Drivers/STM32H7xx_HAL_Driver/Src/stm32h7xx_hal_rcc.c ****   /* Check RCC CSSF flag  */
 4173              		.loc 1 1775 1 view -0
 4174              		.cfi_startproc
 4175              		@ args = 0, pretend = 0, frame = 0
 4176              		@ frame_needed = 0, uses_anonymous_args = 0
 4177 0000 08B5     		push	{r3, lr}
 4178              	.LCFI19:
 4179              		.cfi_def_cfa_offset 8
 4180              		.cfi_offset 3, -8
 4181              		.cfi_offset 14, -4
1777:Drivers/STM32H7xx_HAL_Driver/Src/stm32h7xx_hal_rcc.c ****   {
 4182              		.loc 1 1777 3 view .LVU1249
ARM GAS  /var/folders/g1/j12m_ky910s3_sv7d4yrsdn00000gn/T//ccmnBD4l.s 			page 119


1777:Drivers/STM32H7xx_HAL_Driver/Src/stm32h7xx_hal_rcc.c ****   {
 4183              		.loc 1 1777 7 is_stmt 0 view .LVU1250
 4184 0002 064B     		ldr	r3, .L360
 4185 0004 5B6E     		ldr	r3, [r3, #100]
1777:Drivers/STM32H7xx_HAL_Driver/Src/stm32h7xx_hal_rcc.c ****   {
 4186              		.loc 1 1777 6 view .LVU1251
 4187 0006 13F4806F 		tst	r3, #1024
 4188 000a 00D1     		bne	.L359
 4189              	.L356:
1785:Drivers/STM32H7xx_HAL_Driver/Src/stm32h7xx_hal_rcc.c **** 
 4190              		.loc 1 1785 1 view .LVU1252
 4191 000c 08BD     		pop	{r3, pc}
 4192              	.L359:
1780:Drivers/STM32H7xx_HAL_Driver/Src/stm32h7xx_hal_rcc.c **** 
 4193              		.loc 1 1780 5 is_stmt 1 view .LVU1253
 4194 000e FFF7FEFF 		bl	HAL_RCC_CSSCallback
 4195              	.LVL271:
1783:Drivers/STM32H7xx_HAL_Driver/Src/stm32h7xx_hal_rcc.c ****   }
 4196              		.loc 1 1783 5 view .LVU1254
 4197 0012 024B     		ldr	r3, .L360
 4198 0014 4FF48062 		mov	r2, #1024
 4199 0018 9A66     		str	r2, [r3, #104]
1785:Drivers/STM32H7xx_HAL_Driver/Src/stm32h7xx_hal_rcc.c **** 
 4200              		.loc 1 1785 1 is_stmt 0 view .LVU1255
 4201 001a F7E7     		b	.L356
 4202              	.L361:
 4203              		.align	2
 4204              	.L360:
 4205 001c 00440258 		.word	1476543488
 4206              		.cfi_endproc
 4207              	.LFE156:
 4209              		.text
 4210              	.Letext0:
 4211              		.file 2 "/Users/zhy/Tools/xpack-arm-none-eabi-gcc-14.2.1-1.1/arm-none-eabi/include/machine/_defaul
 4212              		.file 3 "/Users/zhy/Tools/xpack-arm-none-eabi-gcc-14.2.1-1.1/arm-none-eabi/include/sys/_stdint.h"
 4213              		.file 4 "Drivers/CMSIS/Device/ST/STM32H7xx/Include/system_stm32h7xx.h"
 4214              		.file 5 "Drivers/CMSIS/Device/ST/STM32H7xx/Include/stm32h743xx.h"
 4215              		.file 6 "/Users/zhy/Tools/xpack-arm-none-eabi-gcc-14.2.1-1.1/arm-none-eabi/include/math.h"
 4216              		.file 7 "Drivers/STM32H7xx_HAL_Driver/Inc/stm32h7xx_hal_def.h"
 4217              		.file 8 "Drivers/STM32H7xx_HAL_Driver/Inc/stm32h7xx_hal_rcc.h"
 4218              		.file 9 "Drivers/STM32H7xx_HAL_Driver/Inc/stm32h7xx_hal_gpio.h"
 4219              		.file 10 "Drivers/STM32H7xx_HAL_Driver/Inc/stm32h7xx_hal.h"
 4220              		.file 11 "Core/Inc/stm32h7xx_hal_conf.h"
ARM GAS  /var/folders/g1/j12m_ky910s3_sv7d4yrsdn00000gn/T//ccmnBD4l.s 			page 120


DEFINED SYMBOLS
                            *ABS*:00000000 stm32h7xx_hal_rcc.c
/var/folders/g1/j12m_ky910s3_sv7d4yrsdn00000gn/T//ccmnBD4l.s:20     .text.HAL_RCC_DeInit:00000000 $t
/var/folders/g1/j12m_ky910s3_sv7d4yrsdn00000gn/T//ccmnBD4l.s:26     .text.HAL_RCC_DeInit:00000000 HAL_RCC_DeInit
/var/folders/g1/j12m_ky910s3_sv7d4yrsdn00000gn/T//ccmnBD4l.s:372    .text.HAL_RCC_DeInit:000001a4 $d
/var/folders/g1/j12m_ky910s3_sv7d4yrsdn00000gn/T//ccmnBD4l.s:386    .rodata.HAL_RCC_OscConfig.str1.4:00000000 $d
/var/folders/g1/j12m_ky910s3_sv7d4yrsdn00000gn/T//ccmnBD4l.s:391    .text.HAL_RCC_OscConfig:00000000 $t
/var/folders/g1/j12m_ky910s3_sv7d4yrsdn00000gn/T//ccmnBD4l.s:397    .text.HAL_RCC_OscConfig:00000000 HAL_RCC_OscConfig
/var/folders/g1/j12m_ky910s3_sv7d4yrsdn00000gn/T//ccmnBD4l.s:962    .text.HAL_RCC_OscConfig:000002b0 $d
/var/folders/g1/j12m_ky910s3_sv7d4yrsdn00000gn/T//ccmnBD4l.s:967    .text.HAL_RCC_OscConfig:000002b8 $t
/var/folders/g1/j12m_ky910s3_sv7d4yrsdn00000gn/T//ccmnBD4l.s:1460   .text.HAL_RCC_OscConfig:00000530 $d
/var/folders/g1/j12m_ky910s3_sv7d4yrsdn00000gn/T//ccmnBD4l.s:1465   .text.HAL_RCC_OscConfig:0000053c $t
/var/folders/g1/j12m_ky910s3_sv7d4yrsdn00000gn/T//ccmnBD4l.s:1860   .text.HAL_RCC_OscConfig:0000078c $d
/var/folders/g1/j12m_ky910s3_sv7d4yrsdn00000gn/T//ccmnBD4l.s:1867   .text.HAL_RCC_OscConfig:00000798 $t
/var/folders/g1/j12m_ky910s3_sv7d4yrsdn00000gn/T//ccmnBD4l.s:2093   .text.HAL_RCC_OscConfig:00000870 $d
/var/folders/g1/j12m_ky910s3_sv7d4yrsdn00000gn/T//ccmnBD4l.s:2099   .text.HAL_RCC_MCOConfig:00000000 $t
/var/folders/g1/j12m_ky910s3_sv7d4yrsdn00000gn/T//ccmnBD4l.s:2105   .text.HAL_RCC_MCOConfig:00000000 HAL_RCC_MCOConfig
/var/folders/g1/j12m_ky910s3_sv7d4yrsdn00000gn/T//ccmnBD4l.s:2375   .text.HAL_RCC_MCOConfig:0000018c $d
/var/folders/g1/j12m_ky910s3_sv7d4yrsdn00000gn/T//ccmnBD4l.s:2383   .text.HAL_RCC_EnableCSS:00000000 $t
/var/folders/g1/j12m_ky910s3_sv7d4yrsdn00000gn/T//ccmnBD4l.s:2389   .text.HAL_RCC_EnableCSS:00000000 HAL_RCC_EnableCSS
/var/folders/g1/j12m_ky910s3_sv7d4yrsdn00000gn/T//ccmnBD4l.s:2406   .text.HAL_RCC_EnableCSS:0000000c $d
/var/folders/g1/j12m_ky910s3_sv7d4yrsdn00000gn/T//ccmnBD4l.s:2411   .text.HAL_RCC_DisableCSS:00000000 $t
/var/folders/g1/j12m_ky910s3_sv7d4yrsdn00000gn/T//ccmnBD4l.s:2417   .text.HAL_RCC_DisableCSS:00000000 HAL_RCC_DisableCSS
/var/folders/g1/j12m_ky910s3_sv7d4yrsdn00000gn/T//ccmnBD4l.s:2434   .text.HAL_RCC_DisableCSS:0000000c $d
/var/folders/g1/j12m_ky910s3_sv7d4yrsdn00000gn/T//ccmnBD4l.s:2439   .text.HAL_RCC_GetSysClockFreq:00000000 $t
/var/folders/g1/j12m_ky910s3_sv7d4yrsdn00000gn/T//ccmnBD4l.s:2445   .text.HAL_RCC_GetSysClockFreq:00000000 HAL_RCC_GetSysClockFreq
/var/folders/g1/j12m_ky910s3_sv7d4yrsdn00000gn/T//ccmnBD4l.s:2763   .text.HAL_RCC_GetSysClockFreq:000001d8 $d
/var/folders/g1/j12m_ky910s3_sv7d4yrsdn00000gn/T//ccmnBD4l.s:2775   .text.HAL_RCC_ClockConfig:00000000 $t
/var/folders/g1/j12m_ky910s3_sv7d4yrsdn00000gn/T//ccmnBD4l.s:2781   .text.HAL_RCC_ClockConfig:00000000 HAL_RCC_ClockConfig
/var/folders/g1/j12m_ky910s3_sv7d4yrsdn00000gn/T//ccmnBD4l.s:3241   .text.HAL_RCC_ClockConfig:00000298 $d
/var/folders/g1/j12m_ky910s3_sv7d4yrsdn00000gn/T//ccmnBD4l.s:3247   .text.HAL_RCC_ClockConfig:000002a4 $t
/var/folders/g1/j12m_ky910s3_sv7d4yrsdn00000gn/T//ccmnBD4l.s:3579   .text.HAL_RCC_ClockConfig:0000046c $d
/var/folders/g1/j12m_ky910s3_sv7d4yrsdn00000gn/T//ccmnBD4l.s:3590   .text.HAL_RCC_GetHCLKFreq:00000000 $t
/var/folders/g1/j12m_ky910s3_sv7d4yrsdn00000gn/T//ccmnBD4l.s:3596   .text.HAL_RCC_GetHCLKFreq:00000000 HAL_RCC_GetHCLKFreq
/var/folders/g1/j12m_ky910s3_sv7d4yrsdn00000gn/T//ccmnBD4l.s:3651   .text.HAL_RCC_GetHCLKFreq:00000034 $d
/var/folders/g1/j12m_ky910s3_sv7d4yrsdn00000gn/T//ccmnBD4l.s:3659   .text.HAL_RCC_GetPCLK1Freq:00000000 $t
/var/folders/g1/j12m_ky910s3_sv7d4yrsdn00000gn/T//ccmnBD4l.s:3665   .text.HAL_RCC_GetPCLK1Freq:00000000 HAL_RCC_GetPCLK1Freq
/var/folders/g1/j12m_ky910s3_sv7d4yrsdn00000gn/T//ccmnBD4l.s:3696   .text.HAL_RCC_GetPCLK1Freq:0000001c $d
/var/folders/g1/j12m_ky910s3_sv7d4yrsdn00000gn/T//ccmnBD4l.s:3702   .text.HAL_RCC_GetPCLK2Freq:00000000 $t
/var/folders/g1/j12m_ky910s3_sv7d4yrsdn00000gn/T//ccmnBD4l.s:3708   .text.HAL_RCC_GetPCLK2Freq:00000000 HAL_RCC_GetPCLK2Freq
/var/folders/g1/j12m_ky910s3_sv7d4yrsdn00000gn/T//ccmnBD4l.s:3739   .text.HAL_RCC_GetPCLK2Freq:0000001c $d
/var/folders/g1/j12m_ky910s3_sv7d4yrsdn00000gn/T//ccmnBD4l.s:3745   .text.HAL_RCC_GetOscConfig:00000000 $t
/var/folders/g1/j12m_ky910s3_sv7d4yrsdn00000gn/T//ccmnBD4l.s:3751   .text.HAL_RCC_GetOscConfig:00000000 HAL_RCC_GetOscConfig
/var/folders/g1/j12m_ky910s3_sv7d4yrsdn00000gn/T//ccmnBD4l.s:4054   .text.HAL_RCC_GetOscConfig:00000150 $d
/var/folders/g1/j12m_ky910s3_sv7d4yrsdn00000gn/T//ccmnBD4l.s:4059   .text.HAL_RCC_GetClockConfig:00000000 $t
/var/folders/g1/j12m_ky910s3_sv7d4yrsdn00000gn/T//ccmnBD4l.s:4065   .text.HAL_RCC_GetClockConfig:00000000 HAL_RCC_GetClockConfig
/var/folders/g1/j12m_ky910s3_sv7d4yrsdn00000gn/T//ccmnBD4l.s:4140   .text.HAL_RCC_GetClockConfig:0000004c $d
/var/folders/g1/j12m_ky910s3_sv7d4yrsdn00000gn/T//ccmnBD4l.s:4146   .text.HAL_RCC_CSSCallback:00000000 $t
/var/folders/g1/j12m_ky910s3_sv7d4yrsdn00000gn/T//ccmnBD4l.s:4152   .text.HAL_RCC_CSSCallback:00000000 HAL_RCC_CSSCallback
/var/folders/g1/j12m_ky910s3_sv7d4yrsdn00000gn/T//ccmnBD4l.s:4165   .text.HAL_RCC_NMI_IRQHandler:00000000 $t
/var/folders/g1/j12m_ky910s3_sv7d4yrsdn00000gn/T//ccmnBD4l.s:4171   .text.HAL_RCC_NMI_IRQHandler:00000000 HAL_RCC_NMI_IRQHandler
/var/folders/g1/j12m_ky910s3_sv7d4yrsdn00000gn/T//ccmnBD4l.s:4205   .text.HAL_RCC_NMI_IRQHandler:0000001c $d

UNDEFINED SYMBOLS
HAL_GetTick
HAL_InitTick
SystemCoreClock
ARM GAS  /var/folders/g1/j12m_ky910s3_sv7d4yrsdn00000gn/T//ccmnBD4l.s 			page 121


SystemD2Clock
uwTickPrio
assert_failed
HAL_GetREVID
HAL_GPIO_Init
D1CorePrescTable
