ARM GAS  /var/folders/g1/j12m_ky910s3_sv7d4yrsdn00000gn/T//ccJdS4Vo.s 			page 1


   1              		.cpu cortex-m7
   2              		.arch armv7e-m
   3              		.fpu fpv5-d16
   4              		.eabi_attribute 28, 1
   5              		.eabi_attribute 20, 1
   6              		.eabi_attribute 21, 1
   7              		.eabi_attribute 23, 3
   8              		.eabi_attribute 24, 1
   9              		.eabi_attribute 25, 1
  10              		.eabi_attribute 26, 1
  11              		.eabi_attribute 30, 1
  12              		.eabi_attribute 34, 1
  13              		.eabi_attribute 18, 4
  14              		.file	"gpio.c"
  15              		.text
  16              	.Ltext0:
  17              		.cfi_sections	.debug_frame
  18              		.file 1 "Core/Src/gpio.c"
  19              		.section	.text.MX_GPIO_Init,"ax",%progbits
  20              		.align	1
  21              		.global	MX_GPIO_Init
  22              		.syntax unified
  23              		.thumb
  24              		.thumb_func
  26              	MX_GPIO_Init:
  27              	.LFB144:
   1:Core/Src/gpio.c **** /* USER CODE BEGIN Header */
   2:Core/Src/gpio.c **** /**
   3:Core/Src/gpio.c ****   ******************************************************************************
   4:Core/Src/gpio.c ****   * @file    gpio.c
   5:Core/Src/gpio.c ****   * @brief   This file provides code for the configuration
   6:Core/Src/gpio.c ****   *          of all used GPIO pins.
   7:Core/Src/gpio.c ****   ******************************************************************************
   8:Core/Src/gpio.c ****   * @attention
   9:Core/Src/gpio.c ****   *
  10:Core/Src/gpio.c ****   * Copyright (c) 2025 STMicroelectronics.
  11:Core/Src/gpio.c ****   * All rights reserved.
  12:Core/Src/gpio.c ****   *
  13:Core/Src/gpio.c ****   * This software is licensed under terms that can be found in the LICENSE file
  14:Core/Src/gpio.c ****   * in the root directory of this software component.
  15:Core/Src/gpio.c ****   * If no LICENSE file comes with this software, it is provided AS-IS.
  16:Core/Src/gpio.c ****   *
  17:Core/Src/gpio.c ****   ******************************************************************************
  18:Core/Src/gpio.c ****   */
  19:Core/Src/gpio.c **** /* USER CODE END Header */
  20:Core/Src/gpio.c **** 
  21:Core/Src/gpio.c **** /* Includes ------------------------------------------------------------------*/
  22:Core/Src/gpio.c **** #include "gpio.h"
  23:Core/Src/gpio.c **** 
  24:Core/Src/gpio.c **** /* USER CODE BEGIN 0 */
  25:Core/Src/gpio.c **** 
  26:Core/Src/gpio.c **** /* USER CODE END 0 */
  27:Core/Src/gpio.c **** 
  28:Core/Src/gpio.c **** /*----------------------------------------------------------------------------*/
  29:Core/Src/gpio.c **** /* Configure GPIO                                                             */
  30:Core/Src/gpio.c **** /*----------------------------------------------------------------------------*/
  31:Core/Src/gpio.c **** /* USER CODE BEGIN 1 */
ARM GAS  /var/folders/g1/j12m_ky910s3_sv7d4yrsdn00000gn/T//ccJdS4Vo.s 			page 2


  32:Core/Src/gpio.c **** 
  33:Core/Src/gpio.c **** /* USER CODE END 1 */
  34:Core/Src/gpio.c **** 
  35:Core/Src/gpio.c **** /** Configure pins
  36:Core/Src/gpio.c **** */
  37:Core/Src/gpio.c **** void MX_GPIO_Init(void)
  38:Core/Src/gpio.c **** {
  28              		.loc 1 38 1 view -0
  29              		.cfi_startproc
  30              		@ args = 0, pretend = 0, frame = 32
  31              		@ frame_needed = 0, uses_anonymous_args = 0
  32 0000 70B5     		push	{r4, r5, r6, lr}
  33              	.LCFI0:
  34              		.cfi_def_cfa_offset 16
  35              		.cfi_offset 4, -16
  36              		.cfi_offset 5, -12
  37              		.cfi_offset 6, -8
  38              		.cfi_offset 14, -4
  39 0002 88B0     		sub	sp, sp, #32
  40              	.LCFI1:
  41              		.cfi_def_cfa_offset 48
  39:Core/Src/gpio.c **** 
  40:Core/Src/gpio.c ****   GPIO_InitTypeDef GPIO_InitStruct = {0};
  42              		.loc 1 40 3 view .LVU1
  43              		.loc 1 40 20 is_stmt 0 view .LVU2
  44 0004 03AD     		add	r5, sp, #12
  45 0006 0024     		movs	r4, #0
  46 0008 0394     		str	r4, [sp, #12]
  47 000a 0494     		str	r4, [sp, #16]
  48 000c 0594     		str	r4, [sp, #20]
  49 000e 0694     		str	r4, [sp, #24]
  50 0010 0794     		str	r4, [sp, #28]
  41:Core/Src/gpio.c **** 
  42:Core/Src/gpio.c ****   /* GPIO Ports Clock Enable */
  43:Core/Src/gpio.c ****   __HAL_RCC_GPIOB_CLK_ENABLE();
  51              		.loc 1 43 3 is_stmt 1 view .LVU3
  52              	.LBB2:
  53              		.loc 1 43 3 view .LVU4
  54              		.loc 1 43 3 view .LVU5
  55 0012 1C4B     		ldr	r3, .L3
  56 0014 D3F8E020 		ldr	r2, [r3, #224]
  57 0018 42F00202 		orr	r2, r2, #2
  58 001c C3F8E020 		str	r2, [r3, #224]
  59              		.loc 1 43 3 view .LVU6
  60 0020 D3F8E020 		ldr	r2, [r3, #224]
  61 0024 02F00202 		and	r2, r2, #2
  62 0028 0092     		str	r2, [sp]
  63              		.loc 1 43 3 view .LVU7
  64 002a 009A     		ldr	r2, [sp]
  65              	.LBE2:
  66              		.loc 1 43 3 view .LVU8
  44:Core/Src/gpio.c ****   __HAL_RCC_GPIOC_CLK_ENABLE();
  67              		.loc 1 44 3 view .LVU9
  68              	.LBB3:
  69              		.loc 1 44 3 view .LVU10
  70              		.loc 1 44 3 view .LVU11
  71 002c D3F8E020 		ldr	r2, [r3, #224]
ARM GAS  /var/folders/g1/j12m_ky910s3_sv7d4yrsdn00000gn/T//ccJdS4Vo.s 			page 3


  72 0030 42F00402 		orr	r2, r2, #4
  73 0034 C3F8E020 		str	r2, [r3, #224]
  74              		.loc 1 44 3 view .LVU12
  75 0038 D3F8E020 		ldr	r2, [r3, #224]
  76 003c 02F00402 		and	r2, r2, #4
  77 0040 0192     		str	r2, [sp, #4]
  78              		.loc 1 44 3 view .LVU13
  79 0042 019A     		ldr	r2, [sp, #4]
  80              	.LBE3:
  81              		.loc 1 44 3 view .LVU14
  45:Core/Src/gpio.c ****   __HAL_RCC_GPIOA_CLK_ENABLE();
  82              		.loc 1 45 3 view .LVU15
  83              	.LBB4:
  84              		.loc 1 45 3 view .LVU16
  85              		.loc 1 45 3 view .LVU17
  86 0044 D3F8E020 		ldr	r2, [r3, #224]
  87 0048 42F00102 		orr	r2, r2, #1
  88 004c C3F8E020 		str	r2, [r3, #224]
  89              		.loc 1 45 3 view .LVU18
  90 0050 D3F8E030 		ldr	r3, [r3, #224]
  91 0054 03F00103 		and	r3, r3, #1
  92 0058 0293     		str	r3, [sp, #8]
  93              		.loc 1 45 3 view .LVU19
  94 005a 029B     		ldr	r3, [sp, #8]
  95              	.LBE4:
  96              		.loc 1 45 3 view .LVU20
  46:Core/Src/gpio.c **** 
  47:Core/Src/gpio.c ****   /*Configure GPIO pin Output Level */
  48:Core/Src/gpio.c ****   HAL_GPIO_WritePin(GPIOC, GPIO_PIN_6|GPIO_PIN_7|GPIO_PIN_8|GPIO_PIN_9, GPIO_PIN_RESET);
  97              		.loc 1 48 3 view .LVU21
  98 005c 0A4E     		ldr	r6, .L3+4
  99 005e 2246     		mov	r2, r4
 100 0060 4FF47071 		mov	r1, #960
 101 0064 3046     		mov	r0, r6
 102 0066 FFF7FEFF 		bl	HAL_GPIO_WritePin
 103              	.LVL0:
  49:Core/Src/gpio.c **** 
  50:Core/Src/gpio.c ****   /*Configure GPIO pins : PC6 PC7 PC8 PC9 */
  51:Core/Src/gpio.c ****   GPIO_InitStruct.Pin = GPIO_PIN_6|GPIO_PIN_7|GPIO_PIN_8|GPIO_PIN_9;
 104              		.loc 1 51 3 view .LVU22
 105              		.loc 1 51 23 is_stmt 0 view .LVU23
 106 006a 4FF47073 		mov	r3, #960
 107 006e 0393     		str	r3, [sp, #12]
  52:Core/Src/gpio.c ****   GPIO_InitStruct.Mode = GPIO_MODE_OUTPUT_PP;
 108              		.loc 1 52 3 is_stmt 1 view .LVU24
 109              		.loc 1 52 24 is_stmt 0 view .LVU25
 110 0070 0123     		movs	r3, #1
 111 0072 0493     		str	r3, [sp, #16]
  53:Core/Src/gpio.c ****   GPIO_InitStruct.Pull = GPIO_NOPULL;
 112              		.loc 1 53 3 is_stmt 1 view .LVU26
 113              		.loc 1 53 24 is_stmt 0 view .LVU27
 114 0074 0594     		str	r4, [sp, #20]
  54:Core/Src/gpio.c ****   GPIO_InitStruct.Speed = GPIO_SPEED_FREQ_LOW;
 115              		.loc 1 54 3 is_stmt 1 view .LVU28
 116              		.loc 1 54 25 is_stmt 0 view .LVU29
 117 0076 0694     		str	r4, [sp, #24]
  55:Core/Src/gpio.c ****   HAL_GPIO_Init(GPIOC, &GPIO_InitStruct);
ARM GAS  /var/folders/g1/j12m_ky910s3_sv7d4yrsdn00000gn/T//ccJdS4Vo.s 			page 4


 118              		.loc 1 55 3 is_stmt 1 view .LVU30
 119 0078 2946     		mov	r1, r5
 120 007a 3046     		mov	r0, r6
 121 007c FFF7FEFF 		bl	HAL_GPIO_Init
 122              	.LVL1:
  56:Core/Src/gpio.c **** 
  57:Core/Src/gpio.c **** }
 123              		.loc 1 57 1 is_stmt 0 view .LVU31
 124 0080 08B0     		add	sp, sp, #32
 125              	.LCFI2:
 126              		.cfi_def_cfa_offset 16
 127              		@ sp needed
 128 0082 70BD     		pop	{r4, r5, r6, pc}
 129              	.L4:
 130              		.align	2
 131              	.L3:
 132 0084 00440258 		.word	1476543488
 133 0088 00080258 		.word	1476528128
 134              		.cfi_endproc
 135              	.LFE144:
 137              		.text
 138              	.Letext0:
 139              		.file 2 "/Users/zhy/Tools/xpack-arm-none-eabi-gcc-14.2.1-1.1/arm-none-eabi/include/machine/_defaul
 140              		.file 3 "/Users/zhy/Tools/xpack-arm-none-eabi-gcc-14.2.1-1.1/arm-none-eabi/include/sys/_stdint.h"
 141              		.file 4 "Drivers/CMSIS/Device/ST/STM32H7xx/Include/stm32h743xx.h"
 142              		.file 5 "Drivers/STM32H7xx_HAL_Driver/Inc/stm32h7xx_hal_gpio.h"
ARM GAS  /var/folders/g1/j12m_ky910s3_sv7d4yrsdn00000gn/T//ccJdS4Vo.s 			page 5

